
Allocating common symbols
Common symbol       size              file

g_cursor_x          0x4               crt0.o
password            0xb               main.o
objectY             0x4               tests.o
CurrentWindow       0x4               crt0.o
backgroung_color    0x4               crt0.o
wsWindowHeight      0x4               crt0.o
taskbar_window      0x4               crt0.o
g8x16fontAddress    0x4               crt0.o
stdout              0x4               crt0.o
screen_buffer_y     0x4               crt0.o
wlFullScreenLeft    0x4               crt0.o
mm_prev_pointer     0x4               stdlib.o
mmblockList         0x400             stdlib.o
username            0xb               main.o
last_valid          0x4               stdlib.o
heapList            0x400             stdlib.o
close_button        0x4               crt0.o
libcHeap            0x4               stdlib.o
smCursorHeight      0x4               crt0.o
pathname_buffer     0x40              crt0.o
deltaY              0x4               tests.o
errno               0x4               unistd.o
textCurrentRow      0x4               crt0.o
g_char_attrib       0x4               crt0.o
g_rows              0x4               crt0.o
app4_button         0x4               crt0.o
dialogbox_button2   0x4               api.o
smMousePointerWidth
                    0x4               crt0.o
smMousePointerHeight
                    0x4               crt0.o
filename_buffer     0xb               crt0.o
Streams             0x80              crt0.o
messagebox_button1  0x4               api.o
textWheelDelta      0x4               crt0.o
app1_button         0x4               crt0.o
g_using_gui         0x4               crt0.o
wlMinRows           0x4               crt0.o
current_volume_string
                    0x4               crt0.o
ShellMetrics        0x4               crt0.o
smCharHeight        0x4               crt0.o
ApplicationInfo     0x4               crt0.o
randseed            0x4               stdlib.o
heap_start          0x4               stdlib.o
foregroung_color    0x4               crt0.o
prompt_out          0x400             crt0.o
shell_info          0x18              crt0.o
gws_currentfont_address
                    0x4               crt0.o
BufferInfo          0x4               crt0.o
ShellHook           0x4               crt0.o
lineList            0x2000            crt0.o
wlMaxWindowHeight   0x4               crt0.o
wlMaxRows           0x4               crt0.o
gcharHeight         0x4               crt0.o
textCurrentCol      0x4               crt0.o
shell_environment   0x4               main.o
textSavedCol        0x4               crt0.o
current_volume_id   0x4               crt0.o
smCharWidth         0x4               crt0.o
g_current_workingdirectory_id
                    0x4               crt0.o
g_available_heap    0x4               stdlib.o
wlFullScreenHeight  0x4               crt0.o
textTopRow          0x4               crt0.o
g_heap_pointer      0x4               stdlib.o
textMinWheelDelta   0x4               crt0.o
g_columns           0x4               crt0.o
HEAP_SIZE           0x4               stdlib.o
dialogbox_button1   0x4               api.o
mmblockCount        0x4               stdlib.o
prompt_pos          0x4               crt0.o
stdin               0x4               crt0.o
script_name         0x4               main.o
pathname_lenght     0x4               crt0.o
last_size           0x4               stdlib.o
wlMinWindowHeight   0x4               crt0.o
textBottomRow       0x4               crt0.o
wlMinColumns        0x4               crt0.o
prompt_status       0x4               crt0.o
g8x8fontAddress     0x4               crt0.o
objectX             0x4               tests.o
pwd_initialized     0x4               crt0.o
root                0x4               crt0.o
CurrentCommand      0x4               crt0.o
shell_name          0x4               main.o
screen_buffer_x     0x4               crt0.o
wlMinWindowWidth    0x4               crt0.o
CommandHistory      0x4               crt0.o
app3_button         0x4               crt0.o
prompt_err          0x400             crt0.o
pwd                 0x4               crt0.o
screen_buffer       0xfa1             crt0.o
reboot_button       0x4               crt0.o
dummycompiler       0x4               crt0.o
smScreenWidth       0x4               crt0.o
textMaxWheelDelta   0x4               crt0.o
CursorInfo          0x4               crt0.o
g8x14fontAddress    0x4               crt0.o
app2_button         0x4               crt0.o
smScreenHeight      0x4               crt0.o
wlMaxWindowWidth    0x4               crt0.o
heap_end            0x4               stdlib.o
screen_buffer_pos   0x4               crt0.o
build_version       0x4               main.o
smCursorWidth       0x4               crt0.o
wpWindowLeft        0x4               crt0.o
g9x14fontAddress    0x4               crt0.o
xxxpassword         0xb               login.o
terminal_rect       0x10              crt0.o
taskbar_button1     0x4               crt0.o
stderr              0x4               crt0.o
wlFullScreenTop     0x4               crt0.o
wsWindowWidth       0x4               crt0.o
g_current_disk_id   0x4               crt0.o
editboxWindow       0x4               crt0.o
deltaX              0x4               tests.o
prompt              0x400             crt0.o
HEAP_END            0x4               stdlib.o
rect                0x4               crt0.o
EOF_Reached         0x4               crt0.o
gcharWidth          0x4               crt0.o
g_cursor_y          0x4               crt0.o
screenbufferList    0x20              crt0.o
g9x16fontAddress    0x4               crt0.o
headless            0x4               main.o
ClientAreaInfo      0x4               crt0.o
messagebox_button2  0x4               api.o
Heap                0x4               stdlib.o
pathname_initilized
                    0x4               crt0.o
wpWindowTop         0x4               crt0.o
filename_lenght     0x4               crt0.o
current_semaphore   0x4               crt0.o
wlFullScreenWidth   0x4               crt0.o
dist_version        0x4               main.o
xxxusername         0xb               login.o
prompt_max          0x4               crt0.o
current_mmblock     0x4               stdlib.o
wlMaxColumns        0x4               crt0.o
textSavedRow        0x4               crt0.o
heapCount           0x4               stdlib.o
filename_initilized
                    0x4               crt0.o
LINES               0x1580            crt0.o
HEAP_START          0x4               stdlib.o
g_current_volume_id
                    0x4               crt0.o
gfontSize           0x4               crt0.o
current_workingdiretory_string
                    0x20              crt0.o

Memory Configuration

Name             Origin             Length             Attributes
*default*        0x0000000000000000 0xffffffffffffffff

Linker script and memory map


.text           0x0000000000451000     0xc000
                0x0000000000451000                code = .
                0x0000000000451000                _code = .
                0x0000000000451000                __code = .
 *(.head_x86)
 *(.text)
 .text          0x0000000000451000       0x75 crt0.o
                0x0000000000451000                crt0
 .text          0x0000000000451075     0x4893 main.o
                0x0000000000451075                quit
                0x0000000000451095                main
                0x00000000004515cb                shellProcedure
                0x0000000000451985                shellWaitCmd
                0x000000000045199f                shellCompare
                0x000000000045357c                shellInitSystemMetrics
                0x0000000000453615                shellInitWindowLimits
                0x00000000004536d3                shellInitWindowSizes
                0x000000000045371f                shellInitWindowPosition
                0x0000000000453739                shellShell
                0x00000000004538c0                shellInit
                0x00000000004539bf                shellCheckPassword
                0x00000000004539c9                shellSetCursor
                0x0000000000453a04                shellThread
                0x0000000000453a81                shellShowExperienceMenu
                0x0000000000453a9a                shellShowTestsMenu
                0x0000000000453ab3                shellTree
                0x0000000000453acc                shellPrompt
                0x0000000000453b55                shellClearBuffer
                0x0000000000453bfe                shellShowScreenBuffer
                0x0000000000453c0c                shellTestLoadFile
                0x0000000000453c78                shellTestThreads
                0x0000000000453d26                shellClearScreen
                0x0000000000453d9f                shellRefreshScreen
                0x0000000000453e41                shellRefreshLine
                0x0000000000453eb7                shellRefreshChar
                0x0000000000453f13                shellRefreshCurrentChar
                0x0000000000453f4b                shellScroll
                0x0000000000454008                shellInsertCharXY
                0x000000000045405d                shellGetCharXY
                0x0000000000454090                testScrollChar
                0x00000000004540c5                shellInsertNextChar
                0x0000000000454169                shellInsertCR
                0x000000000045417f                shellInsertLF
                0x0000000000454195                shellInsertNullTerminator
                0x00000000004541ab                shellTestMBR
                0x0000000000454206                move_to
                0x0000000000454232                shellShowInfo
                0x00000000004542df                shellShowMetrics
                0x0000000000454391                shellShowSystemInfo
                0x000000000045440c                shellShowWindowInfo
                0x00000000004544d3                shellSendMessage
                0x00000000004544ef                shell_memcpy_bytes
                0x000000000045451b                shellExit
                0x0000000000454532                shellUpdateWorkingDiretoryString
                0x0000000000454591                shellInitializeWorkingDiretoryString
                0x000000000045461b                shellUpdateCurrentDirectoryID
                0x0000000000454629                shellTaskList
                0x000000000045474c                shellShowPID
                0x0000000000454776                shellShowPPID
                0x00000000004547a0                shellShowUID
                0x00000000004547cd                shellShowGID
                0x00000000004547fa                shellShowUserSessionID
                0x0000000000454827                shellShowWindowStationID
                0x0000000000454854                shellShowDesktopID
                0x0000000000454881                shellShowProcessHeapPointer
                0x00000000004548c8                shellShowKernelHeapPointer
                0x0000000000454903                shellShowDiskInfo
                0x000000000045491f                shellShowVolumeInfo
                0x000000000045493b                shellShowMemoryInfo
                0x0000000000454957                shellShowPCIInfo
                0x0000000000454973                shellShowKernelInfo
                0x000000000045498f                shell_fntos
                0x0000000000454aa9                shell_gramado_core_init_execve
                0x0000000000454b14                feedterminalDialog
                0x0000000000454ba6                die
                0x0000000000454be8                concat
                0x0000000000454c9e                error
                0x0000000000454cf2                fatal
                0x0000000000454d1c                save_string
                0x0000000000454d58                shellExecuteThisScript
                0x0000000000454e05                absolute_pathname
                0x0000000000454f6b                shellInitPathname
                0x0000000000454fbb                shellInitFilename
                0x000000000045500b                shell_pathname_backup
                0x0000000000455082                shell_print_tokenList
                0x0000000000455126                is_bin
                0x0000000000455197                is_sh1
                0x0000000000455208                show_shell_version
                0x0000000000455232                shell_save_file
                0x00000000004553a7                save_string2
                0x00000000004554b8                textSetTopRow
                0x00000000004554c6                textGetTopRow
                0x00000000004554d0                textSetBottomRow
                0x00000000004554de                textGetBottomRow
                0x00000000004554e8                clearLine
                0x0000000000455556                testShowLines
                0x00000000004555f3                shellRefreshVisibleArea
                0x00000000004556cb                testChangeVisibleArea
                0x00000000004556f5                updateVisibleArea
                0x0000000000455758                shellSocketTest
                0x00000000004558c3                shellPipeTest
 .text          0x0000000000455908       0x28 stubs.o
                0x0000000000455908                gramado_system_call
 .text          0x0000000000455930        0x0 ctype.o
 .text          0x0000000000455930     0x2529 stdio.o
                0x0000000000455978                stdio_atoi
                0x0000000000455a3f                stdio_fntos
                0x0000000000455b69                fclose
                0x0000000000455b8a                fopen
                0x0000000000455bab                scroll
                0x0000000000455c79                puts
                0x0000000000455c94                fread
                0x0000000000455c9e                fwrite
                0x0000000000456069                printf3
                0x0000000000456086                printf_atoi
                0x0000000000456176                printf_i2hex
                0x00000000004561d8                printf2
                0x000000000045635d                sprintf
                0x00000000004563b2                putchar
                0x00000000004563d3                outbyte
                0x0000000000456591                _outbyte
                0x00000000004565c0                input
                0x0000000000456714                getchar
                0x000000000045672f                stdioInitialize
                0x000000000045691c                fflush
                0x000000000045693d                fprintf
                0x000000000045695e                fputs
                0x000000000045697f                gets
                0x0000000000456a0a                ungetc
                0x0000000000456a14                ftell
                0x0000000000456a1e                fileno
                0x0000000000456a28                fgetc
                0x0000000000456a49                feof
                0x0000000000456a6a                ferror
                0x0000000000456a8b                fseek
                0x0000000000456aac                fputc
                0x0000000000456acd                stdioSetCursor
                0x0000000000456ae8                stdioGetCursorX
                0x0000000000456b03                stdioGetCursorY
                0x0000000000456b1e                scanf
                0x0000000000456cb8                sscanf
                0x0000000000456e73                kvprintf
                0x0000000000457cdd                printf
                0x0000000000457d07                vfprintf
                0x0000000000457d7c                vprintf
                0x0000000000457d9b                stdout_printf
                0x0000000000457dc7                stderr_printf
                0x0000000000457df3                perror
                0x0000000000457e0a                rewind
                0x0000000000457e45                snprintf
 .text          0x0000000000457e59     0x105e stdlib.o
                0x0000000000457e76                rtGetHeapStart
                0x0000000000457e80                rtGetHeapEnd
                0x0000000000457e8a                rtGetHeapPointer
                0x0000000000457e94                rtGetAvailableHeap
                0x0000000000457e9e                heapSetLibcHeap
                0x0000000000457f51                heapAllocateMemory
                0x0000000000458183                FreeHeap
                0x000000000045818d                heapInit
                0x0000000000458320                stdlibInitMM
                0x0000000000458383                libcInitRT
                0x00000000004583a5                rand
                0x00000000004583c2                srand
                0x00000000004583d0                xmalloc
                0x0000000000458402                stdlib_die
                0x0000000000458438                malloc
                0x0000000000458474                realloc
                0x00000000004584b1                free
                0x00000000004584b7                calloc
                0x00000000004584fd                zmalloc
                0x0000000000458539                system
                0x00000000004588fd                stdlib_strncmp
                0x0000000000458960                __findenv
                0x0000000000458a2b                getenv
                0x0000000000458a58                atoi
                0x0000000000458b1f                reverse
                0x0000000000458b86                itoa
                0x0000000000458c34                abs
                0x0000000000458c44                strtod
                0x0000000000458e76                strtof
                0x0000000000458e92                strtold
                0x0000000000458ea5                atof
 .text          0x0000000000458eb7      0x772 string.o
                0x0000000000458eb7                memcmp
                0x0000000000458f1c                strdup
                0x0000000000458f6e                strndup
                0x0000000000458fcf                strrchr
                0x000000000045900a                strtoimax
                0x0000000000459014                strtoumax
                0x000000000045901e                strcasecmp
                0x0000000000459086                strncpy
                0x00000000004590dc                strcmp
                0x0000000000459141                strncmp
                0x00000000004591a4                memset
                0x00000000004591eb                memoryZeroMemory
                0x0000000000459212                memcpy
                0x000000000045924f                strcpy
                0x0000000000459283                strcat
                0x00000000004592b2                bcopy
                0x00000000004592de                bzero
                0x00000000004592fe                strlen
                0x000000000045932c                strnlen
                0x0000000000459360                strcspn
                0x00000000004593ff                strspn
                0x000000000045949e                strtok_r
                0x0000000000459585                strtok
                0x000000000045959d                strchr
                0x00000000004595c9                strstr
 .text          0x0000000000459629       0x89 conio.o
                0x0000000000459629                putch
                0x000000000045964d                cputs
                0x0000000000459682                getch
                0x000000000045969a                getche
 .text          0x00000000004596b2       0x49 socket.o
                0x00000000004596b2                listen
                0x00000000004596bc                recv
                0x00000000004596c6                send
                0x00000000004596d0                shutdown
                0x00000000004596da                socket
 .text          0x00000000004596fb       0x12 signal.o
                0x00000000004596fb                signal
                0x0000000000459703                sigaction
 .text          0x000000000045970d      0x1b3 unistd.o
                0x000000000045970d                execve
                0x0000000000459717                exit
                0x0000000000459737                fork
                0x000000000045974f                setuid
                0x0000000000459759                getpid
                0x0000000000459771                getppid
                0x0000000000459789                getgid
                0x0000000000459793                dup
                0x000000000045979d                dup2
                0x00000000004597a7                dup3
                0x00000000004597b1                fcntl
                0x00000000004597bb                nice
                0x00000000004597c5                pause
                0x00000000004597cf                mkdir
                0x00000000004597e3                rmdir
                0x00000000004597ed                link
                0x00000000004597f7                mlock
                0x0000000000459801                munlock
                0x000000000045980b                mlockall
                0x0000000000459815                munlockall
                0x000000000045981f                sysconf
                0x0000000000459829                fsync
                0x0000000000459833                fdatasync
                0x000000000045983d                fpathconf
                0x0000000000459847                pathconf
                0x0000000000459851                ioctl
                0x000000000045985b                open
                0x0000000000459881                close
                0x000000000045989f                pipe
 .text          0x00000000004598c0     0x207c api.o
                0x00000000004598c0                system_call
                0x00000000004598e8                apiSystem
                0x0000000000459cf0                system1
                0x0000000000459d11                system2
                0x0000000000459d32                system3
                0x0000000000459d53                system4
                0x0000000000459d74                system5
                0x0000000000459d95                system6
                0x0000000000459db6                system7
                0x0000000000459dd7                system8
                0x0000000000459df8                system9
                0x0000000000459e19                system10
                0x0000000000459e3a                system11
                0x0000000000459e5b                system12
                0x0000000000459e7c                system13
                0x0000000000459e9d                system14
                0x0000000000459ebe                system15
                0x0000000000459edf                refresh_buffer
                0x0000000000459fbb                print_string
                0x0000000000459fc1                vsync
                0x0000000000459fdb                edit_box
                0x0000000000459ff7                gde_system_procedure
                0x000000000045a02d                SetNextWindowProcedure
                0x000000000045a037                set_cursor
                0x000000000045a04e                put_char
                0x000000000045a054                gde_load_bitmap_16x16
                0x000000000045a06d                apiShutDown
                0x000000000045a084                apiInitBackground
                0x000000000045a08a                MessageBox
                0x000000000045a616                mbProcedure
                0x000000000045a684                DialogBox
                0x000000000045aa34                dbProcedure
                0x000000000045aaa2                call_kernel
                0x000000000045ac1d                call_gui
                0x000000000045aca9                gde_create_window
                0x000000000045ad22                gde_register_window
                0x000000000045ad4a                gde_close_window
                0x000000000045ad72                gde_set_focus
                0x000000000045ad9a                gde_get_focus
                0x000000000045adaf                APIKillFocus
                0x000000000045add7                APISetActiveWindow
                0x000000000045adff                APIGetActiveWindow
                0x000000000045ae14                APIShowCurrentProcessInfo
                0x000000000045ae2a                APIresize_window
                0x000000000045ae44                APIredraw_window
                0x000000000045ae5e                APIreplace_window
                0x000000000045ae78                APImaximize_window
                0x000000000045ae94                APIminimize_window
                0x000000000045aeb0                APIupdate_window
                0x000000000045aecc                APIget_foregroung_window
                0x000000000045aee2                APIset_foregroung_window
                0x000000000045aefe                apiExit
                0x000000000045af1b                kill
                0x000000000045af21                dead_thread_collector
                0x000000000045af37                api_strncmp
                0x000000000045af9a                refresh_screen
                0x000000000045afb0                api_refresh_screen
                0x000000000045afbb                apiReboot
                0x000000000045afd1                apiSetCursor
                0x000000000045afe9                apiGetCursorX
                0x000000000045b001                apiGetCursorY
                0x000000000045b019                apiGetClientAreaRect
                0x000000000045b031                apiSetClientAreaRect
                0x000000000045b050                gde_create_process
                0x000000000045b069                gde_create_thread
                0x000000000045b082                apiStartThread
                0x000000000045b09e                apiFOpen
                0x000000000045b0ca                gde_save_file
                0x000000000045b11d                apiDown
                0x000000000045b170                apiUp
                0x000000000045b1c3                enterCriticalSection
                0x000000000045b1fe                exitCriticalSection
                0x000000000045b217                initializeCriticalSection
                0x000000000045b230                gde_begin_paint
                0x000000000045b23b                gde_end_paint
                0x000000000045b246                apiPutChar
                0x000000000045b262                apiDefDialog
                0x000000000045b26c                apiGetSystemMetrics
                0x000000000045b28a                api_set_current_keyboard_responder
                0x000000000045b2a9                api_get_current_keyboard_responder
                0x000000000045b2c1                api_set_current_mouse_responder
                0x000000000045b2e0                api_get_current_mouse_responder
                0x000000000045b2f8                api_set_window_with_text_input
                0x000000000045b33a                api_get_window_with_text_input
                0x000000000045b352                gramadocore_init_execve
                0x000000000045b35c                apiDialog
                0x000000000045b3eb                api_getchar
                0x000000000045b403                apiDisplayBMP
                0x000000000045b80a                apiSendMessageToProcess
                0x000000000045b840                apiSendMessage
                0x000000000045b876                apiDrawText
                0x000000000045b8b5                apiGetWSScreenWindow
                0x000000000045b8cd                apiGetWSMainWindow
                0x000000000045b8e5                apiCreateTimer
                0x000000000045b902                apiGetSysTimeInfo
                0x000000000045b920                apiShowWindow
 .text          0x000000000045b93c      0x877 shellui.o
                0x000000000045b93c                shellui_fntos
                0x000000000045ba56                shellTopbarProcedure
                0x000000000045bbaf                shellCreateEditBox
                0x000000000045bc1d                shellCreateMainWindow
                0x000000000045bcd9                testCreateWindow
                0x000000000045bd6b                shellDisplayBMP
                0x000000000045bddf                shellDisplayBMPEx
                0x000000000045be6b                shellTestDisplayBMP
                0x000000000045becd                bmpDisplayBMP
                0x000000000045beea                shellCreateTaskBar
                0x000000000045c025                shellTestButtons
 .text          0x000000000045c1b3      0x16f builtins.o
                0x000000000045c1b3                cd_buitins
                0x000000000045c1cc                cls_builtins
                0x000000000045c1da                copy_builtins
                0x000000000045c1e0                date_builtins
                0x000000000045c1e6                del_builtins
                0x000000000045c1ec                dir_builtins
                0x000000000045c228                echo_builtins
                0x000000000045c244                exec_builtins
                0x000000000045c25d                exit_builtins
                0x000000000045c283                getpid_builtins
                0x000000000045c295                getppid_builtins
                0x000000000045c2a7                getuid_builtins
                0x000000000045c2b9                getgid_builtins
                0x000000000045c2cb                help_builtins
                0x000000000045c306                pwd_builtins
 .text          0x000000000045c322       0x9c desktop.o
                0x000000000045c322                desktopInitialize
                0x000000000045c36b                desktopProcedure
                0x000000000045c397                shellStartDesktopMode
 .text          0x000000000045c3be       0x10 login.o
                0x000000000045c3be                loginCheckPassword
 .text          0x000000000045c3ce      0x15a tests.o
                0x000000000045c3ce                testsTimerUpdateObject
                0x000000000045c4a6                testsInitTimer
 .text          0x000000000045c528       0x1b pixel.o
                0x000000000045c528                gws_backbuffer_putpixel
 .text          0x000000000045c543       0x2b line.o
                0x000000000045c543                my_buffer_horizontal_line
 .text          0x000000000045c56e       0x86 rect.o
                0x000000000045c56e                drawDataRectangle
 .text          0x000000000045c5f4      0x1c7 char.o
                0x000000000045c5f4                my_buffer_char_blt
                0x000000000045c611                set_char_width
                0x000000000045c61f                set_char_height
                0x000000000045c62d                get_char_width
                0x000000000045c637                get_char_height
                0x000000000045c641                gws_drawchar_transparent
                0x000000000045c6fb                gws_draw_char
 .text          0x000000000045c7bb      0x1f3 gws.o
                0x000000000045c7bb                gws_init
                0x000000000045c7ed                serverInit
                0x000000000045c80a                serverDialog
                0x000000000045d000                . = ALIGN (0x1000)
 *fill*         0x000000000045c9ae      0x652 

.iplt           0x000000000045d000        0x0
 .iplt          0x000000000045d000        0x0 gws.o

.rodata         0x000000000045d000     0x6505
 .rodata        0x000000000045d000      0x935 crt0.o
 *fill*         0x000000000045d935        0xb 
 .rodata        0x000000000045d940     0x1ea4 main.o
 *fill*         0x000000000045f7e4       0x1c 
 .rodata        0x000000000045f800      0x100 ctype.o
                0x000000000045f800                _ctype
 .rodata        0x000000000045f900      0x2d4 stdio.o
                0x000000000045fa40                hex2ascii_data
 *fill*         0x000000000045fbd4        0x4 
 .rodata        0x000000000045fbd8      0x510 stdlib.o
 .rodata        0x00000000004600e8        0x6 conio.o
 *fill*         0x00000000004600ee        0x2 
 .rodata        0x00000000004600f0      0x3ab api.o
 *fill*         0x000000000046049b        0x5 
 .rodata        0x00000000004604a0      0xba4 shellui.o
 *fill*         0x0000000000461044       0x1c 
 .rodata        0x0000000000461060      0x90a builtins.o
 *fill*         0x000000000046196a       0x16 
 .rodata        0x0000000000461980      0x94a desktop.o
 *fill*         0x00000000004622ca       0x16 
 .rodata        0x00000000004622e0      0x8b0 login.o
 *fill*         0x0000000000462b90       0x10 
 .rodata        0x0000000000462ba0      0x8d8 tests.o
 .rodata        0x0000000000463478       0x54 char.o
 .rodata        0x00000000004634cc       0x39 gws.o

.eh_frame       0x0000000000463508     0x3220
 .eh_frame      0x0000000000463508       0x34 crt0.o
 .eh_frame      0x000000000046353c      0xca8 main.o
                                        0xcc0 (size before relaxing)
 .eh_frame      0x00000000004641e4       0x24 stubs.o
                                         0x3c (size before relaxing)
 .eh_frame      0x0000000000464208      0x6f0 stdio.o
                                        0x708 (size before relaxing)
 .eh_frame      0x00000000004648f8      0x400 stdlib.o
                                        0x418 (size before relaxing)
 .eh_frame      0x0000000000464cf8      0x320 string.o
                                        0x338 (size before relaxing)
 .eh_frame      0x0000000000465018       0xa0 conio.o
                                         0xb8 (size before relaxing)
 .eh_frame      0x00000000004650b8       0xa0 socket.o
                                         0xb8 (size before relaxing)
 .eh_frame      0x0000000000465158       0x40 signal.o
                                         0x58 (size before relaxing)
 .eh_frame      0x0000000000465198      0x39c unistd.o
                                        0x3b4 (size before relaxing)
 .eh_frame      0x0000000000465534      0xc4c api.o
                                        0xc64 (size before relaxing)
 .eh_frame      0x0000000000466180      0x160 shellui.o
                                        0x178 (size before relaxing)
 .eh_frame      0x00000000004662e0      0x1e0 builtins.o
                                        0x1f8 (size before relaxing)
 .eh_frame      0x00000000004664c0       0x60 desktop.o
                                         0x78 (size before relaxing)
 .eh_frame      0x0000000000466520       0x20 login.o
                                         0x38 (size before relaxing)
 .eh_frame      0x0000000000466540       0x48 tests.o
                                         0x60 (size before relaxing)
 .eh_frame      0x0000000000466588       0x20 pixel.o
                                         0x38 (size before relaxing)
 .eh_frame      0x00000000004665a8       0x20 line.o
                                         0x38 (size before relaxing)
 .eh_frame      0x00000000004665c8       0x20 rect.o
                                         0x38 (size before relaxing)
 .eh_frame      0x00000000004665e8       0xe0 char.o
                                         0xf8 (size before relaxing)
 .eh_frame      0x00000000004666c8       0x60 gws.o
                                         0x78 (size before relaxing)

.note.gnu.property
                0x0000000000466728       0x1c
 .note.gnu.property
                0x0000000000466728       0x1c gws.o

.rel.dyn        0x0000000000466744        0x0
 .rel.got       0x0000000000466744        0x0 gws.o
 .rel.iplt      0x0000000000466744        0x0 gws.o
 .rel.text      0x0000000000466744        0x0 gws.o

.data           0x0000000000466760     0x48a0
                0x0000000000466760                data = .
                0x0000000000466760                _data = .
                0x0000000000466760                __data = .
 *(.data)
 .data          0x0000000000466760      0x4c8 crt0.o
 *fill*         0x0000000000466c28       0x18 
 .data          0x0000000000466c40      0x538 main.o
                0x00000000004670e0                running
                0x00000000004670e4                primary_prompt
                0x00000000004670e8                secondary_prompt
                0x00000000004670ec                mainwindow_used
                0x00000000004670f0                remember_on_history
                0x00000000004670f4                current_command_number
                0x00000000004670f8                bashrc_file
                0x00000000004670fc                shell_config_file
                0x0000000000467100                long_args
 .data          0x0000000000467178        0x0 stubs.o
 .data          0x0000000000467178        0x0 ctype.o
 .data          0x0000000000467178        0x0 stdio.o
 .data          0x0000000000467178        0x8 stdlib.o
                0x0000000000467178                _infinity
 .data          0x0000000000467180        0x0 string.o
 .data          0x0000000000467180        0x0 conio.o
 .data          0x0000000000467180        0x0 socket.o
 .data          0x0000000000467180        0x0 signal.o
 .data          0x0000000000467180        0x0 unistd.o
 .data          0x0000000000467180      0x440 api.o
 .data          0x00000000004675c0      0x4a0 shellui.o
 .data          0x0000000000467a60      0x4a0 builtins.o
 .data          0x0000000000467f00      0x4a8 desktop.o
                0x00000000004683a0                primary_desktop_folder
                0x00000000004683a4                secondary_desktop_folder
 *fill*         0x00000000004683a8       0x18 
 .data          0x00000000004683c0      0x4a0 login.o
 .data          0x0000000000468860      0x4a4 tests.o
                0x0000000000468d00                deltaValue
 *fill*         0x0000000000468d04       0x1c 
 .data          0x0000000000468d20      0x440 pixel.o
 .data          0x0000000000469160      0x440 line.o
 .data          0x00000000004695a0      0x440 rect.o
 .data          0x00000000004699e0      0x440 char.o
 .data          0x0000000000469e20      0x840 gws.o
                0x000000000046b000                . = ALIGN (0x1000)
 *fill*         0x000000000046a660      0x9a0 

.got            0x000000000046b000        0x0
 .got           0x000000000046b000        0x0 gws.o

.got.plt        0x000000000046b000        0x0
 .got.plt       0x000000000046b000        0x0 gws.o

.igot.plt       0x000000000046b000        0x0
 .igot.plt      0x000000000046b000        0x0 gws.o

.bss            0x000000000046b000    0x16d94
                0x000000000046b000                bss = .
                0x000000000046b000                _bss = .
                0x000000000046b000                __bss = .
 *(.bss)
 .bss           0x000000000046b000        0x8 crt0.o
 .bss           0x000000000046b008       0x78 main.o
                0x000000000046b008                ShellFlag
                0x000000000046b00c                shellStatus
                0x000000000046b010                shellError
                0x000000000046b014                executing
                0x000000000046b018                script_shell
                0x000000000046b01c                interactive
                0x000000000046b020                login_shell
                0x000000000046b024                taskbar
                0x000000000046b028                gws
                0x000000000046b02c                desktop
                0x000000000046b030                login_status
                0x000000000046b034                global_command
                0x000000000046b038                interrupt_state
                0x000000000046b03c                current_user_name
                0x000000000046b040                current_host_name
                0x000000000046b044                restricted
                0x000000000046b048                debugging_login_shell
                0x000000000046b04c                indirection_level
                0x000000000046b050                shell_level
                0x000000000046b054                act_like_sh
                0x000000000046b058                debugging
                0x000000000046b05c                no_rc
                0x000000000046b060                no_profile
                0x000000000046b064                do_version
                0x000000000046b068                quiet
                0x000000000046b06c                make_login_shell
                0x000000000046b070                no_line_editing
                0x000000000046b074                no_brace_expansion
 .bss           0x000000000046b080        0x0 stubs.o
 .bss           0x000000000046b080        0x0 ctype.o
 .bss           0x000000000046b080        0x1 stdio.o
 *fill*         0x000000000046b081       0x1f 
 .bss           0x000000000046b0a0     0x8020 stdlib.o
                0x000000000046b0a0                environ
 .bss           0x00000000004730c0        0x4 string.o
 .bss           0x00000000004730c4        0x0 conio.o
 .bss           0x00000000004730c4        0x0 socket.o
 .bss           0x00000000004730c4        0x0 signal.o
 .bss           0x00000000004730c4        0x0 unistd.o
 *fill*         0x00000000004730c4       0x1c 
 .bss           0x00000000004730e0     0x8004 api.o
 .bss           0x000000000047b0e4        0x8 shellui.o
 .bss           0x000000000047b0ec        0x8 builtins.o
 .bss           0x000000000047b0f4        0xc desktop.o
                0x000000000047b0f4                desktop_running
 .bss           0x000000000047b100        0x8 login.o
 .bss           0x000000000047b108        0x8 tests.o
 .bss           0x000000000047b110        0x0 pixel.o
 .bss           0x000000000047b110        0x0 line.o
 .bss           0x000000000047b110        0x0 rect.o
 .bss           0x000000000047b110        0x0 char.o
 .bss           0x000000000047b110        0x0 gws.o
                0x000000000047c000                . = ALIGN (0x1000)
 *fill*         0x000000000047b110      0xef0 
 COMMON         0x000000000047c000     0x54a0 crt0.o
                0x000000000047c000                g_cursor_x
                0x000000000047c004                CurrentWindow
                0x000000000047c008                backgroung_color
                0x000000000047c00c                wsWindowHeight
                0x000000000047c010                taskbar_window
                0x000000000047c014                g8x16fontAddress
                0x000000000047c018                stdout
                0x000000000047c01c                screen_buffer_y
                0x000000000047c020                wlFullScreenLeft
                0x000000000047c024                close_button
                0x000000000047c028                smCursorHeight
                0x000000000047c040                pathname_buffer
                0x000000000047c080                textCurrentRow
                0x000000000047c084                g_char_attrib
                0x000000000047c088                g_rows
                0x000000000047c08c                app4_button
                0x000000000047c090                smMousePointerWidth
                0x000000000047c094                smMousePointerHeight
                0x000000000047c098                filename_buffer
                0x000000000047c0c0                Streams
                0x000000000047c140                textWheelDelta
                0x000000000047c144                app1_button
                0x000000000047c148                g_using_gui
                0x000000000047c14c                wlMinRows
                0x000000000047c150                current_volume_string
                0x000000000047c154                ShellMetrics
                0x000000000047c158                smCharHeight
                0x000000000047c15c                ApplicationInfo
                0x000000000047c160                foregroung_color
                0x000000000047c180                prompt_out
                0x000000000047c580                shell_info
                0x000000000047c598                gws_currentfont_address
                0x000000000047c59c                BufferInfo
                0x000000000047c5a0                ShellHook
                0x000000000047c5c0                lineList
                0x000000000047e5c0                wlMaxWindowHeight
                0x000000000047e5c4                wlMaxRows
                0x000000000047e5c8                gcharHeight
                0x000000000047e5cc                textCurrentCol
                0x000000000047e5d0                textSavedCol
                0x000000000047e5d4                current_volume_id
                0x000000000047e5d8                smCharWidth
                0x000000000047e5dc                g_current_workingdirectory_id
                0x000000000047e5e0                wlFullScreenHeight
                0x000000000047e5e4                textTopRow
                0x000000000047e5e8                textMinWheelDelta
                0x000000000047e5ec                g_columns
                0x000000000047e5f0                prompt_pos
                0x000000000047e5f4                stdin
                0x000000000047e5f8                pathname_lenght
                0x000000000047e5fc                wlMinWindowHeight
                0x000000000047e600                textBottomRow
                0x000000000047e604                wlMinColumns
                0x000000000047e608                prompt_status
                0x000000000047e60c                g8x8fontAddress
                0x000000000047e610                pwd_initialized
                0x000000000047e614                root
                0x000000000047e618                CurrentCommand
                0x000000000047e61c                screen_buffer_x
                0x000000000047e620                wlMinWindowWidth
                0x000000000047e624                CommandHistory
                0x000000000047e628                app3_button
                0x000000000047e640                prompt_err
                0x000000000047ea40                pwd
                0x000000000047ea60                screen_buffer
                0x000000000047fa04                reboot_button
                0x000000000047fa08                dummycompiler
                0x000000000047fa0c                smScreenWidth
                0x000000000047fa10                textMaxWheelDelta
                0x000000000047fa14                CursorInfo
                0x000000000047fa18                g8x14fontAddress
                0x000000000047fa1c                app2_button
                0x000000000047fa20                smScreenHeight
                0x000000000047fa24                wlMaxWindowWidth
                0x000000000047fa28                screen_buffer_pos
                0x000000000047fa2c                smCursorWidth
                0x000000000047fa30                wpWindowLeft
                0x000000000047fa34                g9x14fontAddress
                0x000000000047fa38                terminal_rect
                0x000000000047fa48                taskbar_button1
                0x000000000047fa4c                stderr
                0x000000000047fa50                wlFullScreenTop
                0x000000000047fa54                wsWindowWidth
                0x000000000047fa58                g_current_disk_id
                0x000000000047fa5c                editboxWindow
                0x000000000047fa60                prompt
                0x000000000047fe60                rect
                0x000000000047fe64                EOF_Reached
                0x000000000047fe68                gcharWidth
                0x000000000047fe6c                g_cursor_y
                0x000000000047fe80                screenbufferList
                0x000000000047fea0                g9x16fontAddress
                0x000000000047fea4                ClientAreaInfo
                0x000000000047fea8                pathname_initilized
                0x000000000047feac                wpWindowTop
                0x000000000047feb0                filename_lenght
                0x000000000047feb4                current_semaphore
                0x000000000047feb8                wlFullScreenWidth
                0x000000000047febc                prompt_max
                0x000000000047fec0                wlMaxColumns
                0x000000000047fec4                textSavedRow
                0x000000000047fec8                filename_initilized
                0x000000000047fee0                LINES
                0x0000000000481460                g_current_volume_id
                0x0000000000481464                gfontSize
                0x0000000000481480                current_workingdiretory_string
 COMMON         0x00000000004814a0       0x30 main.o
                0x00000000004814a0                password
                0x00000000004814ac                username
                0x00000000004814b8                shell_environment
                0x00000000004814bc                script_name
                0x00000000004814c0                shell_name
                0x00000000004814c4                build_version
                0x00000000004814c8                headless
                0x00000000004814cc                dist_version
 *fill*         0x00000000004814d0       0x10 
 COMMON         0x00000000004814e0      0x878 stdlib.o
                0x00000000004814e0                mm_prev_pointer
                0x0000000000481500                mmblockList
                0x0000000000481900                last_valid
                0x0000000000481920                heapList
                0x0000000000481d20                libcHeap
                0x0000000000481d24                randseed
                0x0000000000481d28                heap_start
                0x0000000000481d2c                g_available_heap
                0x0000000000481d30                g_heap_pointer
                0x0000000000481d34                HEAP_SIZE
                0x0000000000481d38                mmblockCount
                0x0000000000481d3c                last_size
                0x0000000000481d40                heap_end
                0x0000000000481d44                HEAP_END
                0x0000000000481d48                Heap
                0x0000000000481d4c                current_mmblock
                0x0000000000481d50                heapCount
                0x0000000000481d54                HEAP_START
 COMMON         0x0000000000481d58        0x4 unistd.o
                0x0000000000481d58                errno
 COMMON         0x0000000000481d5c       0x10 api.o
                0x0000000000481d5c                dialogbox_button2
                0x0000000000481d60                messagebox_button1
                0x0000000000481d64                dialogbox_button1
                0x0000000000481d68                messagebox_button2
 COMMON         0x0000000000481d6c       0x17 login.o
                0x0000000000481d6c                xxxpassword
                0x0000000000481d78                xxxusername
 *fill*         0x0000000000481d83        0x1 
 COMMON         0x0000000000481d84       0x10 tests.o
                0x0000000000481d84                objectY
                0x0000000000481d88                deltaY
                0x0000000000481d8c                objectX
                0x0000000000481d90                deltaX
                0x0000000000481d94                end = .
                0x0000000000481d94                _end = .
                0x0000000000481d94                __end = .
LOAD crt0.o
LOAD main.o
LOAD stubs.o
LOAD ctype.o
LOAD stdio.o
LOAD stdlib.o
LOAD string.o
LOAD conio.o
LOAD socket.o
LOAD signal.o
LOAD unistd.o
LOAD api.o
LOAD shellui.o
LOAD builtins.o
LOAD desktop.o
LOAD login.o
LOAD tests.o
LOAD pixel.o
LOAD line.o
LOAD rect.o
LOAD char.o
LOAD gws.o
OUTPUT(SHELL.BIN elf32-i386)

.comment        0x0000000000000000       0x1a
 .comment       0x0000000000000000       0x1a crt0.o
                                         0x1b (size before relaxing)
 .comment       0x000000000000001a       0x1b main.o
 .comment       0x000000000000001a       0x1b stubs.o
 .comment       0x000000000000001a       0x1b ctype.o
 .comment       0x000000000000001a       0x1b stdio.o
 .comment       0x000000000000001a       0x1b stdlib.o
 .comment       0x000000000000001a       0x1b string.o
 .comment       0x000000000000001a       0x1b conio.o
 .comment       0x000000000000001a       0x1b socket.o
 .comment       0x000000000000001a       0x1b signal.o
 .comment       0x000000000000001a       0x1b unistd.o
 .comment       0x000000000000001a       0x1b api.o
 .comment       0x000000000000001a       0x1b shellui.o
 .comment       0x000000000000001a       0x1b builtins.o
 .comment       0x000000000000001a       0x1b desktop.o
 .comment       0x000000000000001a       0x1b login.o
 .comment       0x000000000000001a       0x1b tests.o
 .comment       0x000000000000001a       0x1b pixel.o
 .comment       0x000000000000001a       0x1b line.o
 .comment       0x000000000000001a       0x1b rect.o
 .comment       0x000000000000001a       0x1b char.o
 .comment       0x000000000000001a       0x1b gws.o

.note.GNU-stack
                0x0000000000000000        0x0
 .note.GNU-stack
                0x0000000000000000        0x0 crt0.o
 .note.GNU-stack
                0x0000000000000000        0x0 main.o
 .note.GNU-stack
                0x0000000000000000        0x0 stubs.o
 .note.GNU-stack
                0x0000000000000000        0x0 ctype.o
 .note.GNU-stack
                0x0000000000000000        0x0 stdio.o
 .note.GNU-stack
                0x0000000000000000        0x0 stdlib.o
 .note.GNU-stack
                0x0000000000000000        0x0 string.o
 .note.GNU-stack
                0x0000000000000000        0x0 conio.o
 .note.GNU-stack
                0x0000000000000000        0x0 socket.o
 .note.GNU-stack
                0x0000000000000000        0x0 signal.o
 .note.GNU-stack
                0x0000000000000000        0x0 unistd.o
 .note.GNU-stack
                0x0000000000000000        0x0 api.o
 .note.GNU-stack
                0x0000000000000000        0x0 shellui.o
 .note.GNU-stack
                0x0000000000000000        0x0 builtins.o
 .note.GNU-stack
                0x0000000000000000        0x0 desktop.o
 .note.GNU-stack
                0x0000000000000000        0x0 login.o
 .note.GNU-stack
                0x0000000000000000        0x0 tests.o
 .note.GNU-stack
                0x0000000000000000        0x0 pixel.o
 .note.GNU-stack
                0x0000000000000000        0x0 line.o
 .note.GNU-stack
                0x0000000000000000        0x0 rect.o
 .note.GNU-stack
                0x0000000000000000        0x0 char.o
 .note.GNU-stack
                0x0000000000000000        0x0 gws.o
