
Allocating common symbols
Common symbol       size              file

framepoolBackBuffer3
                    0x10              x86main.o
guiMenu             0x10              x86main.o
usessionList        0x80              x86main.o
terminalOffsetMax   0x10              x86main.o
g_backbuffer_va     0x10              x86main.o
g_module_volume_initialized
                    0x10              x86main.o
server_stdio        0x10              x86main.o
menuList            0x400             x86main.o
Graphics            0x10              x86main.o
framepoolList       0x1000            x86main.o
dispatcherType      0x10              x86main.o
pci_handler_address
                    0x10              x86main.o
timerTicks          0x10              timer.o
_write_offset       0x10              keyboard.o
mainButton3         0x10              x86main.o
zicaaaaadasf        0x10              x86main.o
IdleThread          0x10              x86main.o
contextESP          0x10              context.o
Irq9                0x10              x86main.o
ld_keyboard_queue   0x10              x86main.o
g_frontbuffer_va    0x10              x86main.o
clientCW            0x10              x86main.o
userconfig_Status   0x10              x86main.o
prompt              0x100             x86main.o
contextEDX          0x10              context.o
MenuBar             0x10              x86main.o
semaforo_color      0x10              x86main.o
g_module_debug_initialized
                    0x10              x86main.o
threadList          0x400             x86main.o
pci_device          0x10              x86main.o
g_module_disk_initialized
                    0x10              x86main.o
terminalOffset      0x10              x86main.o
kernel_heap_end     0x10              x86main.o
scrolllock_status   0x10              ldisc.o
screenGrid          0x200             x86main.o
windowzoneStart     0x10              x86main.o
partition           0x10              x86main.o
input_line          0x10              x86main.o
gsrcDir             0x10              x86main.o
cwArg1              0x10              services.o
save_client_rect_top
                    0x10              window.o
dma_addr            0x10              disk.o
fatbits             0x10              x86main.o
g9x14fontAddress    0x10              x86main.o
framepoolBackBuffer2
                    0x10              x86main.o
CurrentChannel      0x10              x86main.o
task_switch_status  0x10              x86main.o
ata_record_dev      0x10              x86main.o
systemzoneEnd       0x10              x86main.o
CurrentConsole      0x10              x86main.o
lineOffsetMax       0x10              x86main.o
delta_x             0x10              ldisc.o
serverSP            0x10              x86main.o
wsDefault           0x10              x86main.o
LocalHostHTTPSocket
                    0x10              x86main.o
ioControl_mouse     0x10              x86main.o
GRID                0x10              x86main.o
ip_address          0x10              x86main.o
preempted_task      0x10              x86main.o
ActiveWindow        0x10              x86main.o
mouse_buttom_3      0x10              ldisc.o
screen_height       0x10              screen.o
capslock_status     0x10              ldisc.o
KernelArgs          0x10              x86main.o
contextFS           0x10              context.o
Irq5                0x10              x86main.o
contextDS           0x10              context.o
Irq13               0x10              x86main.o
cwArg2              0x10              services.o
terminalWindowWithFocus
                    0x10              x86main.o
Irq2                0x10              x86main.o
pcideviceList       0x80              x86main.o
IpcProcedure        0x10              x86main.o
fullscreen_window   0x10              x86main.o
contextESI          0x10              context.o
g_navigationbar_height
                    0x10              x86main.o
keyboard_message_head
                    0x10              x86main.o
windowstations_count
                    0x10              x86main.o
pmiMemoryInfo       0x10              x86main.o
usersDir            0x10              x86main.o
TaskManThread       0x10              x86main.o
current_volume_string
                    0x10              x86main.o
mouse_button_action
                    0x10              ldisc.o
Irq15               0x10              x86main.o
g_module_fs_initialized
                    0x10              x86main.o
bmp_change_color_flag
                    0x10              x86main.o
framepoolBackBuffer4
                    0x10              x86main.o
g_driver_hdd_initialized
                    0x10              x86main.o
g9x16fontAddress    0x10              x86main.o
systemzoneStart     0x10              x86main.o
waiting_procs       0x10              x86main.o
running_tasks       0x10              x86main.o
desktop_Conductor2  0x10              x86main.o
g_device_screen_width
                    0x10              x86main.o
desktop_rootConductor
                    0x10              x86main.o
cwArg11             0x10              services.o
fsbFrames           0x1000            x86main.o
g_user_space_framepool_index
                    0x10              x86main.o
Initialization      0x20              x86main.o
Console             0x10              x86main.o
GUI_CONFIG          0x40              x86main.o
systemzoneSize      0x10              x86main.o
rtcError            0x10              rtc.o
zorderCounter       0x10              x86main.o
mmFramesSuperBlockTotalUsed
                    0x10              x86main.o
quantum             0x10              x86main.o
stderr              0x10              x86main.o
g_mainwindow_width  0x10              x86main.o
cur_process         0x10              x86main.o
CurrentWindowStation
                    0x10              x86main.o
waiting_list_head   0x10              x86main.o
FileAccess          0x10              x86main.o
tmpDir              0x10              x86main.o
rtcTicks            0x10              rtc.o
g_logged            0x10              x86main.o
file_TaskMan        0x10              x86main.o
RGBA                0x10              x86main.o
desktop0            0x10              x86main.o
processNewPID       0x10              process.o
cwArg8              0x10              services.o
blocked_list_head   0x10              x86main.o
current_dev         0x10              disk.o
gui                 0x10              x86main.o
CurrentUserSession  0x10              x86main.o
g_device_screen_height
                    0x10              x86main.o
g_mousepointer_height
                    0x10              x86main.o
g_module_uem_initialized
                    0x10              x86main.o
current_tab         0x10              x86main.o
processor           0x10              x86main.o
userList            0x40              x86main.o
prompt_pos          0x10              x86main.o
cwArg3              0x10              services.o
Irq10               0x10              x86main.o
dummyzzzfontstuff   0x10              font.o
Conductor           0x10              x86main.o
ide_handler_address
                    0x10              x86main.o
Process             0x10              x86main.o
mbr                 0x10              x86main.o
CurrentTerminal     0x10              x86main.o
current_mmblock     0x10              x86main.o
deviceList          0x400             x86main.o
ASpace              0x10              x86main.o
objects_um          0xc0c0            x86main.o
BootLoader          0x10              x86main.o
downloadDir         0x10              x86main.o
localsstuff1        0x10              mk.o
mmFramesSuperBlockSize
                    0x10              x86main.o
kernel_stack_start  0x10              x86main.o
Rtc                 0x10              x86main.o
caller_process_id   0x10              process.o
start_new_task_address
                    0x10              x86main.o
g_module_gui_initialized
                    0x10              x86main.o
file_Init           0x10              x86main.o
KeInitPhase         0x10              x86main.o
BROWSERWINDOW       0x10              x86main.o
windows_count       0x10              x86main.o
timerColor          0x10              timer.o
pagetableList       0x1000            x86main.o
combobox_window     0x10              x86main.o
framepoolBackBuffer1
                    0x10              x86main.o
g_driver_video_initialized
                    0x10              x86main.o
active_window       0x10              x86main.o
objects_km          0xc0c0            x86main.o
vfs                 0x10              x86main.o
current_pci_device  0x10              x86main.o
file_InitTXT        0x10              x86main.o
Hardware            0x10              x86main.o
DefaultUserSession  0x10              x86main.o
mm_prev_pointer     0x10              memory.o
cwArg9              0x10              services.o
current_process     0x10              x86main.o
mmglobalInitialingVAR
                    0x10              x86main.o
appIconBuffer       0x10              x86main.o
current_desktop     0x10              x86main.o
picError            0x10              pic.o
gsdkDir             0x10              x86main.o
Cursor              0x10              x86main.o
numlock_status      0x10              ldisc.o
requestList         0x80              x86main.o
usession0           0x10              x86main.o
videoError          0x10              video.o
CurrentSocket       0x10              x86main.o
TaskBar             0x10              x86main.o
g_module_logoff_initialized
                    0x10              x86main.o
pagetableCurrent    0x10              x86main.o
current_idle_thread
                    0x10              x86main.o
terminalList        0x20              x86main.o
ws2                 0x10              x86main.o
usession_Conductor  0x10              x86main.o
g8x14fontAddress    0x10              x86main.o
Irq12               0x10              x86main.o
timerStatus         0x10              timer.o
mainButton1         0x10              x86main.o
scStatus            0x10              x86main.o
stdin               0x10              x86main.o
buffer_dir_entry    0x200             x86main.o
g_frontbuffer_pa    0x10              x86main.o
old_mouse_buttom_1  0x10              ldisc.o
gStreams            0x10              x86main.o
mmFramesSuperBlockTotalFree
                    0x10              x86main.o
gcharWidth          0x10              x86main.o
logonMenu           0x10              x86main.o
file_BootLoader     0x10              x86main.o
socketList          0x80              x86main.o
g_module_logon_initialized
                    0x10              x86main.o
client_stderr       0x10              x86main.o
next_address        0x10              x86main.o
destroy_window      0x10              x86main.o
dispatcherQueueIndex
                    0x10              x86main.o
fileIconBuffer      0x10              x86main.o
kernel_heap_start   0x10              x86main.o
g8x16fontAddress    0x10              x86main.o
g_current_object    0x10              x86main.o
PrideColorScheme    0x10              x86main.o
mac_address         0x10              x86main.o
SystemDiskInfo      0x10              x86main.o
queue               0x10              x86main.o
DispatchCountBlock  0x10              x86main.o
cwArg10             0x10              services.o
shift_status        0x10              ldisc.o
ide_dma_prdt        0x20              disk.o
current_directory   0x10              x86main.o
currentDir          0x10              x86main.o
gdocsDir            0x10              x86main.o
vfs_handle_list     0x800             x86main.o
kernel_stack_start_pa
                    0x10              x86main.o
rect                0x10              x86main.o
partition_chars     0x10              x86main.o
logonStatus         0x10              x86main.o
framepoolFrontBuffer3
                    0x10              x86main.o
current_window      0x10              x86main.o
terminalIconBuffer  0x10              x86main.o
BootManager         0x10              x86main.o
g_available_heap    0x10              x86main.o
start_new_task_id   0x10              x86main.o
process_Conductor2  0x10              x86main.o
alt_status          0x10              ldisc.o
schedulerType       0x10              x86main.o
g_cursor_width      0x10              x86main.o
current_disk        0x10              x86main.o
volume1_rootdir     0x10              x86main.o
g_new_message       0x10              x86main.o
pwd_initialized     0x10              x86main.o
KernelInfo          0x10              x86main.o
Firmware            0x10              x86main.o
volume_bootpartition
                    0x10              x86main.o
file_BootManager    0x10              x86main.o
current_keyboard_responder
                    0x10              x86main.o
system_message_write
                    0x10              x86main.o
semaforo_priority   0x10              x86main.o
mouseover_window    0x10              x86main.o
kbMsgStatus         0x10              ldisc.o
VFS_INFO            0x20              x86main.o
g_module_objectmanager_initialized
                    0x10              x86main.o
terminalActiveWindow
                    0x10              x86main.o
ata_record_channel  0x10              x86main.o
windowstationList   0x80              x86main.o
zorderTopWindow     0x10              x86main.o
list                0x2000            write.o
current_taskman_server
                    0x10              x86main.o
g_current_framepool
                    0x10              x86main.o
picStatus           0x10              pic.o
DefaultUser         0x10              x86main.o
task_color          0x10              x86main.o
framepoolFrontBuffer1
                    0x10              x86main.o
contextEIP          0x10              context.o
heapCount           0x10              x86main.o
windowzoneEnd       0x10              x86main.o
Thread              0x10              x86main.o
g_pagedpool_va      0x10              x86main.o
ProcessorBlock      0x30              x86main.o
current_mouse_responder
                    0x10              x86main.o
pagedirectoryIdleProcess
                    0x10              x86main.o
TABWINDOW           0x10              x86main.o
client_stdio        0x10              x86main.o
KernelRequests      0x10              x86main.o
volume_vfs          0x10              x86main.o
g_mousepointer_x    0x10              x86main.o
usersession_start   0x10              x86main.o
g_cursor_top        0x10              x86main.o
CurrentProcedure    0x10              x86main.o
mmFramesSuperBlockTotal
                    0x10              x86main.o
periodic_procs      0x10              x86main.o
g_inputmode         0x10              x86main.o
UserHeap            0x10              x86main.o
keyboard_handler_address
                    0x10              x86main.o
kernel_stack_end    0x10              x86main.o
file_Kernel         0x10              x86main.o
g_object_manager_status
                    0x10              x86main.o
g_cursor_right      0x10              x86main.o
desktop_Conductor   0x10              x86main.o
cwFlag              0x10              services.o
ring0_exported      0x10              x86main.o
InitProcess         0x10              x86main.o
microkernelStatus   0x10              x86main.o
zones               0x10              x86main.o
volume2RootDir      0x10              x86main.o
lineBuffer          0x10              x86main.o
miMemoryInfo        0x10              x86main.o
desktopDefault      0x10              x86main.o
g_module_runtime_initialized
                    0x10              x86main.o
screen_width        0x10              screen.o
ioControl_keyboard  0x10              x86main.o
process_info_t      0x10              x86main.o
file_LA             0x10              x86main.o
VersionInfo         0x10              x86main.o
inode_list          0x800             x86main.o
file_CFE            0x10              x86main.o
system_procs        0x10              x86main.o
window_with_focus   0x10              x86main.o
g_proc_status       0x10              x86main.o
framepoolCurrent    0x10              x86main.o
desktopList         0x80              x86main.o
gbuildDir           0x10              x86main.o
gNextKeyboardMessage
                    0x10              x86main.o
pagedirectoryShared
                    0x10              x86main.o
g_spc               0x10              x86main.o
cwArg12             0x10              services.o
KernelHeap          0x10              x86main.o
Signal              0x10              signal.o
pagedirectoryCurrent
                    0x10              x86main.o
gLogonPID           0x10              x86main.o
CurrentWindow       0x10              x86main.o
g_product_type      0x10              x86main.o
vbr                 0x10              x86main.o
Irq14               0x10              x86main.o
g_nstream           0x10              x86main.o
g_heap_pointer      0x10              x86main.o
LineShell           0x10              x86main.o
mouse_pos_x         0x10              ldisc.o
ipcStatus           0x10              x86main.o
WindowWithFocus     0x10              x86main.o
task_count          0x10              x86main.o
Screen              0x10              x86main.o
current_windowstation
                    0x10              x86main.o
pipe_gramadocore_init_execve
                    0x10              x86main.o
channelList         0x80              x86main.o
g_kernel_nonpaged_memory
                    0x10              x86main.o
timer_handler_address
                    0x10              x86main.o
kernel_switch       0x10              x86main.o
old_mouse_buttom_3  0x10              ldisc.o
guiStatus           0x10              x86main.o
window_rootConductor
                    0x10              x86main.o
terminalLineMax     0x10              x86main.o
heapList            0x20              x86main.o
cwArg5              0x10              services.o
ttyCurrentX         0x10              x86main.o
volume2_rootdir     0x10              x86main.o
_read_offset        0x10              keyboard.o
CurrentDesktop      0x10              x86main.o
DriveContext        0x10              x86main.o
prompt_err          0x100             x86main.o
abnt2               0x10              x86main.o
gFocusBlocked       0x10              x86main.o
sata_handler_address
                    0x10              x86main.o
desktops_count      0x10              x86main.o
KernelPages         0x10              x86main.o
directory_entry_list
                    0x800             x86main.o
g_driver_apic_initialized
                    0x10              x86main.o
_lockfocus          0x10              x86main.o
file_download       0x10              x86main.o
contextGS           0x10              context.o
current_usersession
                    0x10              x86main.o
g_video_mode        0x10              x86main.o
fat                 0x10              x86main.o
ttyCurrentY         0x10              x86main.o
stdio_verbosemode_flag
                    0x10              x86main.o
file_bin            0x10              x86main.o
mmFramesSuperBlockEnd
                    0x10              x86main.o
processList         0x400             x86main.o
Mind                0x10              debug.o
memorysizeExtendedMemory
                    0x10              x86main.o
Irq8                0x10              x86main.o
lineLine            0x10              x86main.o
gPagedPollStart     0x10              x86main.o
g_backbuffer_pa     0x10              x86main.o
systemzone          0x10              x86main.o
volumeinfo_bootpartition
                    0x10              x86main.o
KernelLogBuffer     0x200             x86main.o
keyboard_message_tail
                    0x10              x86main.o
ata_pci             0x40              x86main.o
ATAFlag             0x10              x86main.o
diskinfo_conductor  0x10              x86main.o
networkTesting      0x10              network.o
gLogoffPID          0x10              x86main.o
rootDir             0x10              x86main.o
gfontSize           0x10              x86main.o
pageframeList       0x1000            x86main.o
start_new_task_status
                    0x10              x86main.o
CurrentProcess      0x10              x86main.o
framepoolFrontBuffer4
                    0x10              x86main.o
current_semaphore   0x10              x86main.o
kernel_tick_total   0x10              x86main.o
realtimeprocessorList
                    0x80              x86main.o
CurrentDiskInfo     0x10              x86main.o
timer_cursor_used   0x10              x86main.o
clientCP            0x10              x86main.o
cwArg7              0x10              services.o
g_total_physical_memory
                    0x10              x86main.o
ready_list_head     0x10              x86main.o
browsertabList      0x30              x86main.o
g_mousepointer_width
                    0x10              x86main.o
usession_rootConductor
                    0x10              x86main.o
current_terminal    0x10              x86main.o
line_stderr         0x10              x86main.o
lineOffset          0x10              x86main.o
window_Conductor2   0x10              x86main.o
g_machine_type      0x10              x86main.o
contextEFLAGS       0x10              context.o
client_stdout       0x10              x86main.o
eventStatus         0x10              x86main.o
Irq11               0x10              x86main.o
pageframeCurrent    0x10              x86main.o
ipcBuffer           0x10              x86main.o
newtask_EIP         0x10              x86main.o
top_window          0x10              x86main.o
menuitemDefault     0x10              x86main.o
hddError            0x10              hdd.o
g_scheduler_status  0x10              x86main.o
FULLSCREEN_TABWINDOW
                    0x10              x86main.o
quit_message        0x10              x86main.o
diskinfo            0x10              x86main.o
TaskManProcess      0x10              x86main.o
LineHead            0x10              x86main.o
SystemUser          0x10              x86main.o
current_quantum     0x10              x86main.o
__ipc_kernel_spinlock
                    0x10              x86main.o
stdout              0x10              x86main.o
windowzoneSize      0x10              x86main.o
g_driver_rtc_initialized
                    0x10              x86main.o
SystemClasses       0x10              x86main.o
objects_gui         0xc0c0            x86main.o
g_navigationbar_width
                    0x10              x86main.o
timerIdleState      0x10              timer.o
gws_currentfont_address
                    0x10              x86main.o
windowList          0x1000            x86main.o
wstation_Conductor2
                    0x10              x86main.o
gPagedPollEnd       0x10              x86main.o
windowzone          0x10              x86main.o
ShellThread         0x10              x86main.o
file_CS             0x10              x86main.o
contextECX          0x10              context.o
Streams             0x80              x86main.o
Irq6                0x10              x86main.o
timerError          0x10              timer.o
g_cursor_left       0x10              x86main.o
g_system_color      0x10              x86main.o
defaultChannel      0x10              x86main.o
g_cursor_bottom     0x10              x86main.o
Irq3                0x10              x86main.o
realtimeStatus      0x10              x86main.o
editbox_window      0x10              x86main.o
disk_conductor      0x10              x86main.o
kernel_request      0x10              x86main.o
idle_thread         0x10              x86main.o
g_pageable_framepool_index_max
                    0x10              x86main.o
current_thread      0x10              x86main.o
Pipes               0x20              x86main.o
fsStatus            0x10              window.o
Bank                0x10              x86main.o
fileBuffer          0x10              x86main.o
timer_cursor_status
                    0x10              x86main.o
g_current_vm        0x10              x86main.o
rectClientArea      0x10              x86main.o
file_Shell          0x10              x86main.o
xxxxsavemessage     0x10              window.o
contextEBP          0x10              context.o
schedulerQueue      0x10              x86main.o
systemSize          0x10              x86main.o
object              0x10              x86main.o
gDeveloperOptions   0x10              x86main.o
keybuffer           0x80              x86main.o
_keyboard_queue     0x20              keyboard.o
zorder              0x10              x86main.o
keyboard_queue      0x120             x86main.o
last_size           0x10              memory.o
forkid              0x10              x86main.o
menus_count         0x10              x86main.o
current_volume      0x10              x86main.o
shutdown_address    0x10              x86main.o
ioControl           0x80              x86main.o
devices             0x10              x86main.o
terminalLine        0x10              x86main.o
serialportError     0x10              x86main.o
desktop1            0x10              x86main.o
gcharHeight         0x10              x86main.o
g_use_default_user  0x10              x86main.o
mouse_buttom_1      0x10              ldisc.o
RING0IDLEThread     0x10              x86main.o
lock_taskswitch     0x10              ts.o
mouse_status        0x10              ldisc.o
CurrentDisk         0x10              x86main.o
framepoolFrontBuffer2
                    0x10              x86main.o
pipe_execve         0x10              x86main.o
diskList            0x20              x86main.o
server_stderr       0x10              x86main.o
ready_queue_dev     0x10              disk.o
Conductor2          0x10              x86main.o
KernelClasses       0x10              x86main.o
last_valid          0x10              memory.o
fsbFreeFrames       0x1000            x86main.o
old_mouse_buttom_2  0x10              ldisc.o
screenBuffers       0x10              x86main.o
current_process_pagedirectory_address
                    0x10              x86main.o
rr_procs            0x10              x86main.o
KernelProcess       0x10              x86main.o
delta_y             0x10              ldisc.o
framepoolPageableSpace
                    0x10              x86main.o
save_client_rect_left
                    0x10              window.o
lineLineMax         0x10              x86main.o
KernelHeapSize      0x10              x86main.o
HostDeviceInfo      0x10              x86main.o
prompt_out          0x100             x86main.o
bmp_selected_color  0x10              x86main.o
g_driver_pci_initialized
                    0x10              x86main.o
gramadoDir          0x10              x86main.o
file_cluster_list   0x800             x86main.o
volumeinfo_systempartition
                    0x10              x86main.o
escape_status       0x10              ldisc.o
memorysizeOtherMemory
                    0x10              x86main.o
IpcProcedureEx      0x10              x86main.o
mmblockList         0x8000            x86main.o
g_driver_timer_initialized
                    0x10              x86main.o
cwArg4              0x10              services.o
HostInfo            0x10              x86main.o
ata_identify_dev_buf
                    0x10              x86main.o
Irq0                0x10              x86main.o
file_dd             0x10              x86main.o
DSpace              0x10              x86main.o
g_next_app          0x10              x86main.o
gws_status          0x10              gws.o
cmdDir              0x10              x86main.o
pageframeAllocList  0x1000            x86main.o
file_libs           0x10              x86main.o
idle_proc           0x10              x86main.o
clientCR            0x10              x86main.o
g_useGUI            0x10              x86main.o
g_filesystem_type   0x10              x86main.o
Irq4                0x10              x86main.o
dirCount            0x10              x86main.o
ShellProcess        0x10              x86main.o
keybuffer_head      0x10              x86main.o
contextCS           0x10              context.o
CurrentBuffer       0x10              x86main.o
CurrentColorScheme  0x10              x86main.o
next_quantum        0x10              x86main.o
process_rootConductor
                    0x10              x86main.o
dev_nport           0x20              x86main.o
stdio_terminalmode_flag
                    0x10              x86main.o
menuDefault         0x10              x86main.o
framepoolSmallSystemUserSpace
                    0x10              x86main.o
ata                 0x20              x86main.o
rtcStatus           0x10              rtc.o
zicaaa              0x10              x86main.o
rootConductor       0x10              x86main.o
mouse_pos_y         0x10              ldisc.o
gSystemStatus       0x10              x86main.o
DeveloperWindowCursor
                    0x10              x86main.o
tab_status          0x10              ldisc.o
videoStatus         0x10              video.o
Version             0x10              x86main.o
file_pwd            0x10              x86main.o
userenvironmentStatus
                    0x10              x86main.o
g_guiMinimal        0x10              x86main.o
volume1RootDir      0x10              x86main.o
time_out            0x10              x86main.o
current_file        0x10              x86main.o
pagedirectoryKernelProcess
                    0x10              x86main.o
g_mainwindow_height
                    0x10              x86main.o
VideoBlock          0x20              x86main.o
System              0x10              x86main.o
KernelSize          0x10              x86main.o
Line                0x10              x86main.o
dispatcherReadyList
                    0x30              x86main.o
ScreenInfo          0x10              x86main.o
CurrentCursor       0x10              x86main.o
g8x8fontAddress     0x10              x86main.o
KernelStackSize     0x10              x86main.o
zica                0x10              x86main.o
save_client_rect_height
                    0x10              window.o
keybuffer_index     0x10              x86main.o
g_cursor_color      0x10              x86main.o
memorysizeTotal     0x10              x86main.o
g_system_mode       0x10              x86main.o
Irq1                0x10              x86main.o
g_current_video_mode
                    0x10              x86main.o
ws0                 0x10              x86main.o
cur_thread          0x10              x86main.o
current_group       0x10              x86main.o
process_Conductor   0x10              x86main.o
BackBufferInfo      0x10              x86main.o
file_users          0x10              x86main.o
conductorIndex      0x10              x86main.o
cwArg6              0x10              services.o
g_mousepointer_y    0x10              x86main.o
g_framepool_max     0x10              x86main.o
task_waiting        0x10              x86main.o
keybuffer_tail      0x10              x86main.o
g_cursor_y          0x10              x86main.o
volume_systempartition
                    0x10              x86main.o
Irq7                0x10              x86main.o
banksCount          0x10              x86main.o
Pic                 0x10              x86main.o
Platform            0x10              x86main.o
system_message_read
                    0x10              x86main.o
wstation_Conductor  0x10              x86main.o
contextEAX          0x10              context.o
errno               0x10              x86main.o
old                 0x10              x86main.o
zorderList          0x200             x86main.o
contextEBX          0x10              context.o
gSystemEdition      0x10              x86main.o
pagedirectoryList   0x1000            x86main.o
framepoolMediumSystemUserSpace
                    0x10              x86main.o
menubarDefault      0x10              x86main.o
filesystem          0x10              x86main.o
logoffStatus        0x10              x86main.o
current_user        0x10              x86main.o
WindowProcedure     0x10              x86main.o
kernel_tick         0x10              x86main.o
framepoolKernelSpace
                    0x10              x86main.o
memorysizeBaseMemory
                    0x10              x86main.o
key_status          0x10              ldisc.o
server_stdout       0x10              x86main.o
contextEDI          0x10              context.o
timerLock           0x10              timer.o
g_file_system_type  0x10              x86main.o
mmblockCount        0x10              x86main.o
prompt_status       0x10              x86main.o
pagedirectoryTaskmanProcess
                    0x10              x86main.o
ambiente            0x10              x86main.o
framepoolLargeSystemUserSpace
                    0x10              x86main.o
g_platform_type     0x10              x86main.o
folderIconBuffer    0x10              x86main.o
volume0RootDir      0x10              x86main.o
line_stdin          0x10              x86main.o
g_kernel_paged_memory
                    0x10              x86main.o
mmFramesSuperBlockStart
                    0x10              x86main.o
mouseBMPBuffer      0x10              x86main.o
contextES           0x10              context.o
g_driver_keyboard_initialized
                    0x10              x86main.o
wstation_rootConductor
                    0x10              x86main.o
rtc                 0x10              x86main.o
gws_wm_PID          0x10              gws.o
bmp_substitute_color
                    0x10              x86main.o
window_Conductor    0x10              x86main.o
lastBank            0x10              x86main.o
gws_wm_status       0x10              gws.o
hddStatus           0x10              hdd.o
g_mm_system_type    0x10              x86main.o
g_kernel_lfb        0x10              x86main.o
ws1                 0x10              x86main.o
PciDrivers          0x10              x86main.o
system_message_queue
                    0x80              x86main.o
usession_Conductor2
                    0x10              x86main.o
terminal_window     0x10              x86main.o
mainButton2         0x10              x86main.o
CurrentScreen       0x10              x86main.o
queueList           0x20              x86main.o
save_client_rect_width
                    0x10              window.o
ttyLineCounter      0x10              x86main.o
g_char_attrib       0x10              x86main.o
HumilityColorScheme
                    0x10              x86main.o
window_mouse_over   0x10              x86main.o
file_tmp            0x10              x86main.o
ctrl_status         0x10              ldisc.o
g_module_shell_initialized
                    0x10              x86main.o
g_next_proc         0x10              x86main.o
semaphoreList       0x90              x86main.o
file_CWE            0x10              x86main.o
winkey_status       0x10              ldisc.o
FrontBufferInfo     0x10              x86main.o
g_current_list      0x10              x86main.o
volumeinfo_vfs      0x10              x86main.o
line_stdout         0x10              x86main.o
g_module_mm_initialized
                    0x10              x86main.o
contextSS           0x10              context.o
g_cursor_height     0x10              x86main.o
current_workingdiretory_string
                    0x20              x86main.o
volumeList          0x40              x86main.o
g_nova_mensagem     0x10              x86main.o
current_menu        0x10              x86main.o
pmiCurrent          0x10              x86main.o
Pci                 0x10              x86main.o
timerLine           0x10              timer.o
g_cursor_x          0x10              x86main.o
mouse_buttom_2      0x10              ldisc.o
CurrentUser         0x10              x86main.o

Memory Configuration

Name             Origin             Length             Attributes
*default*        0x00000000         0xffffffff

Linker script and memory map

                0x00400000                __image_base__ = 0x400000
                0x00000000                __dll__ = 0x0
                0x00400000                ___ImageBase = 0x400000
                0x00001000                __section_alignment__ = 0x1000
                0x00000200                __file_alignment__ = 0x200
                0x00000004                __major_os_version__ = 0x4
                0x00000000                __minor_os_version__ = 0x0
                0x00000001                __major_image_version__ = 0x1
                0x00000000                __minor_image_version__ = 0x0
                0x00000004                __major_subsystem_version__ = 0x4
                0x00000000                __minor_subsystem_version__ = 0x0
                0x00000003                __subsystem__ = 0x3
                0x00200000                __size_of_stack_reserve__ = 0x200000
                0x00001000                __size_of_stack_commit__ = 0x1000
                0x00100000                __size_of_heap_reserve__ = 0x100000
                0x00001000                __size_of_heap_commit__ = 0x1000
                0x00000000                __loader_flags__ = 0x0

.text           0xc0001000    0x24000
                0xc0001000                _code_begin = .
 *(.head_x86)
 .head_x86      0xc0001000      0x219 head.o
                0xc0001000                kernel_begin
                0xc0001201                SavedBPP
                0xc0001205                SavedBootMode
                0xc0001211                kArg3
                0xc0001215                kArg4
                0xc00011f9                SavedX
                0xc0001209                kArg1
                0xc00011eb                _die
                0xc00011fd                SavedY
                0xc00011f5                SavedLFB
                0xc000120d                kArg2
                0xc00011f1                SavedBootBlock
 *(.text)
 *fill*         0xc0001219        0x7 00
 .text          0xc0001220     0x5eba head.o
                0xc0005f56                asm_reboot
                0xc00069d6                fault_N1
                0xc0006a3f                fault_DOUBLE
                0xc0006c7e                ide_channel1_master_writesector
                0xc0006c3b                hd_buffer
                0xc0006e3e                mouse_y
                0xc0005f4c                asm_shut_down
                0xc0006df4                minute
                0xc0006e45                mouse_packet_scroll
                0xc0001262                idt
                0xc0006b98                fault_N31
                0xc00070b8                asm_refresh_screen
                0xc00060eb                exec_new_task
                0xc0001220                gdt
                0xc0005eb9                get_page_dir
                0xc0006df5                second
                0xc0006b6b                fault_N28
                0xc0006b02                fault_N21
                0xc000693d                irq7
                0xc0006a99                fault_N14
                0xc0001a66                IDT_register
                0xc0006efc                int201
                0xc0006a6c                fault_N11
                0xc0005f66                irq0
                0xc0006ece                int54
                0xc00069f4                fault_N3
                0xc0006eb9                int51
                0xc0006996                irq14
                0xc0006ed5                int100
                0xc0006948                irq8
                0xc0006e42                mouse_packet_data
                0xc0006c80                ide_channel1_slave_writesector
                0xc0006b2f                fault_N24
                0xc0006b4d                fault_N26
                0xc00069c7                fault_N0
                0xc0005ebd                set_page_dir
                0xc0005f3e                enable_pse
                0xc0006df3                hour
                0xc0006c81                os_read_sector
                0xc0001a70                task_switch_salva_esp
                0xc0006e3a                mouse_x
                0xc0006b89                fault_N30
                0xc0005efb                setup_idt_vector
                0xc0006a7b                fault_STACK
                0xc0006b5c                fault_N27
                0xc0006eab                int49
                0xc0006df6                CMOS_GET_DATE
                0xc000696e                irq11
                0xc0006ec7                int53
                0xc0006ab7                fault_N16
                0xc0006932                irq4
                0xc0006a8a                fault_GP
                0xc0006c7d                ide_channel1_master_readsector
                0xc00060df                timer_test
                0xc0006ea4                int48
                0xc0006ae4                fault_N19
                0xc0006a30                fault_N7
                0xc0006eb2                int50
                0xc0006989                irq13
                0xc0006c7c                ide_channel0_slave_writesector
                0xc0006b7a                fault_N29
                0xc0006c7b                ide_channel0_slave_readsector
                0xc0006f03                int213
                0xc0006b20                fault_N23
                0xc00060e6                enter_user_mode
                0xc0006c5e                turn_task_switch_off
                0xc0001258                end_gdt
                0xc0006edc                int200
                0xc0006c43                turn_task_switch_on
                0xc0005e52                do_executa_new_task
                0xc0006c79                ide_channel0_master_readsector
                0xc0006a21                fault_INTRUCAO_INVALIDA
                0xc0005ec1                get_page_fault_adr
                0xc0006e46                update_mouse
                0xc0006958                irq9
                0xc0006963                irq10
                0xc0006c7a                ide_channel0_master_writesector
                0xc000706e                background
                0xc0006a03                fault_N4
                0xc00069e5                fault_N2
                0xc000125c                GDT_register
                0xc0006c9a                os_write_sector
                0xc0006af3                fault_N20
                0xc0006ec0                int52
                0xc00069a8                irq15
                0xc0006070                dispatch_context
                0xc0001a6c                KernelStatus
                0xc0006b11                fault_N22
                0xc0006a5d                fault_N10
                0xc0006e44                mouse_packet_y
                0xc0006903                irq1
                0xc0006c7f                ide_channel1_slave_readsector
                0xc0006aa8                fault_N15
                0xc0006fda                um_buffer_putpixel
                0xc0006979                irq12
                0xc0006ac6                fault_N17
                0xc0006927                irq3
                0xc0006ad5                fault_N18
                0xc0005e9a                test_cpuid_support
                0xc0005ec5                halt
                0xc0006c3f                hd_lba
                0xc0006b3e                fault_N25
                0xc0005b9e                setup_system_interrupt
                0xc0006f0a                int216
                0xc0006fe4                gui_buffer_putpixel
                0xc0006d87                reset_ide0
                0xc0006e43                mouse_packet_x
                0xc0006a4e                fault_N9
                0xc0006a12                fault_N5
 *fill*         0xc00070da        0x2 00
 .text          0xc00070dc      0x7b0 x86main.o
                0xc00070dc                kMain
                0xc00076f8                startStartIdle
 .text          0xc000788c       0x60 io.o
                0xc000788c                ioServices
                0xc00078cd                ioInit
 .text          0xc00078ec      0x460 hal.o
                0xc0007b1f                hal_set_machine_type
                0xc0007b2c                hal_get_machine_type
                0xc0007b87                hal_probe_cpu
                0xc0007cda                KiShutDown
                0xc000790a                sys_vsync
                0xc0007cec                hal_reboot
                0xc0007991                hal_probe_processor_type
                0xc0007c3b                getGdt
                0xc0007984                hal_showpciinfo
                0xc0007948                hal_hardware_detect
                0xc0007a77                init_cpu
                0xc0007ca3                KiReboot
                0xc0007c6e                shutdown
                0xc0007936                sys_shutdown
                0xc0007b36                hal_init_machine
                0xc00078ec                hal_backbuffer_putpixel
                0xc0007917                sys_showpciinfo
                0xc0007924                sys_reboot
                0xc0007c5c                hal_shutdown
                0xc0007c4f                hal_vsync
                0xc0007cfe                init_hal
                0xc0007c45                getIdt
 .text          0xc0007d4c      0x4c0 mk.o
                0xc0008072                sys_getpid
                0xc0007ef6                microkernelTestLimit
                0xc0007f99                sys_dead_thread_collector
                0xc0007e4b                jobcheck
                0xc0007fd3                sys_create_process
                0xc0007d4c                jobcontrol
                0xc00080f7                init_microkernel
                0xc0007fa6                sys_exit_process
                0xc00080f2                KeReboot
                0xc0008065                sys_fork
                0xc0007fc0                sys_exit_thread
                0xc0008023                sys_create_thread
                0xc000807c                sys_getppid
 .text          0xc000820c      0x300 execve.o
                0xc00084cd                init_executive
                0xc000820c                executive_gramado_core_init_execve
                0xc00084c0                sys_showkernelinfo
 .text          0xc000850c      0x270 video.o
                0xc0008519                videoGetMode
                0xc0008523                videoSetMode
                0xc00085f5                videoInit
                0xc000850c                videoSetupCGAStartAddress
                0xc000875a                videoVideo
 .text          0xc000877c      0x100 screen.o
                0xc000877c                screenGetWidth
                0xc0008786                screenGetHeight
                0xc0008790                screenSetSize
                0xc00087d3                screenInit
                0xc00087b2                screenRefresh
                0xc00087a5                refresh_screen
 .text          0xc000887c       0x30 runtime.o
                0xc000889d                KiInitRuntime
                0xc000887c                init_runtime
 .text          0xc00088ac       0xe0 ports.o
                0xc0008909                inport8
                0xc000895c                outport32
                0xc00088cb                inb
                0xc000897a                outportl
                0xc0008968                inportl
                0xc00088fd                outportb
                0xc000891c                outport8
                0xc000893d                outport16
                0xc00088ac                kinportb
                0xc00088bf                koutportb
                0xc0008928                inport16
                0xc00088ea                inportb
                0xc000894a                inport32
                0xc00088de                outb
 .text          0xc000898c       0xd0 x86.o
                0xc0008a31                pushFlags
                0xc0008a25                pushRegs
                0xc0008a1c                Pop
                0xc00089af                farReturn
                0xc00089b5                getFlags
                0xc0008a37                popFlags
                0xc00089a2                stopCpu
                0xc0008a47                setStackPointer
                0xc0008a2b                popRegs
                0xc00089ee                kernelProcessorOutPort16
                0xc00089c9                kernelProcessorInPort8
                0xc0008a13                Push
                0xc00089d5                kernelProcessorOutPort8
                0xc00089bf                setFlags
                0xc0008a3d                getStackPointer
                0xc0008997                disable
                0xc00089fb                kernelProcessorInPort32
                0xc00089a9                intReturn
                0xc00089e1                kernelProcessorInPort16
                0xc0008a07                kernelProcessorOutPort32
                0xc000898c                enable
 .text          0xc0008a5c      0xf90 stdio.o
                0xc00093e6                putchar
                0xc0009364                sprintf
                0xc00092ef                panic
                0xc000964c                input
                0xc0008b58                scroll
                0xc00093fc                outbyte
                0xc0008d8d                kprint
                0xc000937e                fprintf
                0xc0008a73                fopen
                0xc0008cb4                kclear
                0xc00097ca                stdioInitialize
                0xc0008a5c                fclose
                0xc000956d                _outbyte
                0xc0008d32                kclearClientArea
                0xc00092d4                printf
 .text          0xc00099ec      0x110 stdlib.o
                0xc0009a4a                free
                0xc00099ec                rand
                0xc0009a09                malloc
 .text          0xc0009afc      0x480 string.o
                0xc0009d3a                strcspn
                0xc0009c9d                strcat
                0xc0009afc                strcmp
                0xc0009cf4                bzero
                0xc0009e7a                strtok_r
                0xc0009c30                memcpy
                0xc0009ccd                bcopy
                0xc0009c6d                strcpy
                0xc0009dda                strspn
                0xc0009f4f                strtok
                0xc0009bb5                str_cmp
                0xc0009b57                strncmp
                0xc0009d0f                strlen
 .text          0xc0009f7c       0xe0 tty.o
                0xc000a01a                ttyInit
                0xc0009f7c                createTTYLine
 .text          0xc000a05c      0x470 init.o
                0xc000a061                boot
                0xc000a31f                init
                0xc000a10e                init_arquitecture_independent
                0xc000a05c                save_kernel_args
                0xc000a1e6                init_globals
                0xc000a075                init_arquitecture_dependent
 .text          0xc000a4cc      0x820 logon.o
                0xc000a7c2                ExitLogon
                0xc000ac21                init_logon
                0xc000aba5                logon_create_infobox
                0xc000a7fd                SetLogonParameters
                0xc000aba0                logon_create_controlmenu
                0xc000a989                logon_create_background
                0xc000abbe                logon_create_developer_screen
                0xc000abc3                LogonProcedure
                0xc000abaa                logon_create_messagebox
                0xc000ab9b                logon_create_taskbar
                0xc000aa72                logon_create_mainwindow
                0xc000abaf                logon_create_debug
                0xc000a8af                logon_create_screen
                0xc000abb9                logon_create_grid
                0xc000abb4                logon_create_navigationbar
                0xc000ab96                logon_create_logo
                0xc000a4cc                create_logon
 .text          0xc000acec       0xe0 logoff.o
                0xc000acec                StartLogoff
                0xc000ad05                init_logoff
 .text          0xc000adcc      0x530 cpux86.o
                0xc000b2bb                cpux86_enable_caches
                0xc000b166                KeTestCPU
                0xc000adcc                get_cpu_intel_parameters
                0xc000b159                cpu_get_parameters
                0xc000b178                show_cpu_intel_parameters
                0xc000b2e1                init_intel
 .text          0xc000b2fc       0x20 cpuamd.o
                0xc000b2fc                get_cpu_amd_parameters
                0xc000b301                init_amd
 .text          0xc000b31c      0xa60 memory.o
                0xc000b604                FreeHeap
                0xc000bbd5                gcEXECUTIVE
                0xc000bab4                init_mm
                0xc000b6b3                init_heap
                0xc000b31c                get_process_heap_pointer
                0xc000bbcb                gcGRAMADO
                0xc000b621                show_memory_structs
                0xc000bcc4                gcMICROKERNEL
                0xc000bcce                gcHAL
                0xc000b60e                AllocateHeapEx
                0xc000bcd8                gc
                0xc000b3b8                SetKernelHeap
                0xc000b449                AllocateHeap
                0xc000b84a                memoryShowMemoryInfo
                0xc000b7db                init_stack
 .text          0xc000bd7c      0xc80 pages.o
                0xc000c51f                allocPageFrames
                0xc000be94                SetCR3
                0xc000c82d                firstSlotForAList
                0xc000c7bc                newPage
                0xc000c8a1                testingFrameAlloc
                0xc000c708                newPageFrame
                0xc000bd7c                CreatePageDirectory
                0xc000beac                SetUpPaging
                0xc000c6dc                notfreePageframe
                0xc000c6b0                freePageframe
                0xc000bdcd                CreatePageTable
                0xc000c495                initializeFramesAlloc
                0xc000c6a1                pfEmpty
 .text          0xc000c9fc        0x0 apic.o
 .text          0xc000c9fc        0x0 pic.o
 .text          0xc000c9fc      0x1d0 timer.o
                0xc000cb3a                set_timeout
                0xc000cb1c                sleep
                0xc000cafb                get_next_quantum
                0xc000caee                set_next_quantum
                0xc000cacd                get_quantum
                0xc000cac0                set_quantum
                0xc000cb51                timerTimer
                0xc000cb05                now
                0xc000cb12                get_tick_count
                0xc000ca6b                timerInit8253
                0xc000cb79                timerInit
                0xc000cae4                get_current_quantum
                0xc000ca09                KiTimer
                0xc000cb47                get_timeout
                0xc000cad7                set_current_quantum
                0xc000c9fc                KeTimer
                0xc000ca16                timer
 .text          0xc000cbcc      0x3e0 rtc.o
                0xc000cf7c                init_clock
                0xc000cda4                rtcGetBaseMemory
                0xc000ce08                get_cmos_info
                0xc000cc31                read_cmos_bcd
                0xc000cbcc                KiRtcIrq
                0xc000cd40                rtcGetExtendedMemory
                0xc000cca1                get_time
                0xc000cbd9                rtc_irq
                0xc000ccf3                get_date
 .text          0xc000cfac       0xc0 keyboard.o
                0xc000cfac                abnt2_keyboard_handler
                0xc000d03c                KiKeyboard
                0xc000d001                get_scancode
 .text          0xc000d06c       0x10 mouse.o
                0xc000d06c                mouse_handler
 .text          0xc000d07c     0x1590 ldisc.o
                0xc000d196                keyboardDisable
                0xc000e34d                get_current_mouse_responder
                0xc000e340                set_current_mouse_responder
                0xc000d07c                keyboardGetKeyState
                0xc000d24e                LINE_DISCIPLINE
                0xc000d6f1                KbGetLongParam1
                0xc000e5e4                ldisc_init_lock_keys
                0xc000e329                set_current_keyboard_responder
                0xc000e312                ps2
                0xc000daa6                kbdc_wait
                0xc000d6b2                KbGetMessage
                0xc000e290                load_mouse_bmp
                0xc000e357                initialize_system_message_queue
                0xc000e17a                kernelPS2MouseDriverReadData
                0xc000e17f                P8042_install
                0xc000e4f8                xenqueue
                0xc000d787                init_keyboard
                0xc000d773                get_ctrl_status
                0xc000e5b7                ldisc_init_modifier_keys
                0xc000d77d                get_shift_status
                0xc000e3fa                xinit_queue
                0xc000da83                mouse_read
                0xc000d8b9                init_mouse
                0xc000d724                KbGetLongParam2
                0xc000daea                mouseHandler
                0xc000e435                xdestroy_queue
                0xc000e57f                xdequeue
                0xc000d67f                KdGetWindowPointer
                0xc000d769                get_alt_status
                0xc000d1cc                keyboard_set_leds
                0xc000d757                reboot
                0xc000d160                keyboardEnable
                0xc000da35                mouse_write
                0xc000e336                get_current_keyboard_responder
 .text          0xc000e60c       0x50 hdd.o
                0xc000e60c                my_read_hd_sector
                0xc000e629                my_write_hd_sector
                0xc000e646                init_hdd
 .text          0xc000e65c      0x7f0 pci.o
                0xc000e94a                pciGetBAR
                0xc000e670                KiPciHandler3
                0xc000e85e                pciCheckVendor
                0xc000e666                KiPciHandler2
                0xc000e727                pciConfigReadWord
                0xc000eb17                pciInfo
                0xc000e90f                pciGetClassCode
                0xc000ee37                pciInit
                0xc000e67a                KiPciHandler4
                0xc000e684                pciConfigReadByte
                0xc000e8d4                pciGetSubClass
                0xc000eaa1                pciGetInterruptLine
                0xc000e899                pciCheckDevice
                0xc000edc5                init_pci
                0xc000e7cd                pciConfigReadDWord
                0xc000eadc                pciGetInterruptPin
                0xc000ebd0                pci_setup_devices
                0xc000e65c                KiPciHandler1
 .text          0xc000ee4c       0x10 usb.o
                0xc000ee4c                usbInit
 .text          0xc000ee5c       0x10 device.o
                0xc000ee5c                init_device_manager
 .text          0xc000ee6c      0x1a0 spawn.o
                0xc000ee9a                spawn_task
                0xc000ee6c                KiSpawnTask
 .text          0xc000f00c       0x10 callout.o
                0xc000f00c                KiCalloutTest
 .text          0xc000f01c       0x10 callfar.o
                0xc000f01c                KiCallfarTest
 .text          0xc000f02c      0xcf0 process.o
                0xc000fa79                SetProcessDirectory
                0xc000f7bb                KeSelectNextThread
                0xc000f84d                KeSetPriority
                0xc000fa90                GetProcessDirectory
                0xc000f8c5                show_process_information
                0xc000f1df                processCopyProcess
                0xc000f4d5                create_process
                0xc000f81b                KeDoProcessReady
                0xc000f820                KeDoProcessRunning
                0xc000f72a                CloseAllProcesses
                0xc000f8b6                KeMostraSlot
                0xc000fb2f                dead_task_collector
                0xc000f816                KeDispatchProcess
                0xc000f02c                do_fork_process
                0xc000f8c0                KeShowPreemptedTask
                0xc000f82f                KeDoProcessDead
                0xc000fc2d                set_caller_process_id
                0xc000f7e1                KeInitTasks
                0xc000f889                KeSetNextQuantum
                0xc000f825                KeDoProcessSleeping
                0xc000f87f                KeGetCurrentQuantum
                0xc000facd                init_tasks
                0xc000f843                KeKillProcess
                0xc000f82a                KeDoProcessZombie
                0xc000fcb7                GetProcessPageDirectoryAddress
                0xc000f80c                KeExecProcess
                0xc000f848                KeNewProcessScheduler
                0xc000fb34                exit_process
                0xc000f87a                KeSetCurrentQuantum
                0xc000f866                KeReloadCurrentTask
                0xc000f8bb                KeMostraReg
                0xc000f839                KeWakeupProcess
                0xc000fc23                get_caller_process_id
                0xc000f7ce                KeCheckTaskContext
                0xc000f78b                KeSaveCurrentContext
                0xc000f8ac                KeShowTasksParameters
                0xc000f8b1                KeMostraSlots
                0xc000fab6                GetPageDirValue
                0xc000f10d                getNewPID
                0xc000fc3a                init_process_manager
                0xc000f898                KeSetFocus
                0xc000f861                KeSaveContextOfNewTask
                0xc000fac3                init_task
                0xc000f151                processTesting
                0xc000f857                KeIncreasePriority
                0xc000f88e                KeGetNextQuantum
                0xc000f8a7                KeDebugBreakpoint
                0xc000f1a3                processSendSignal
                0xc000fada                init_processes
                0xc000f790                KeRestoreCurrentContext
                0xc000f870                KeGetQuantum
                0xc000f7ee                KeCreateTask
                0xc000f834                KeStartProcess
                0xc000f83e                KeProcessExit
                0xc000fc58                GetProcessHeapStart
                0xc000f89d                KeGetFocus
                0xc000f7a8                KeSpawnTask
                0xc000f7f8                KeInitTask
                0xc000f795                KeCpuFaults
                0xc000f802                KeFork
                0xc000f86b                KeSetQuantum
                0xc000f0dc                processObject
 .text          0xc000fd1c        0x0 pheap.o
 .text          0xc000fd1c      0x5c0 thread.o
                0xc001019b                GetThreadState
                0xc0010258                init_threads
                0xc000fd1c                create_thread
                0xc0010103                FindReadyThread
                0xc00101be                GetThreadType
                0xc00101e1                show_thread_information
                0xc00100b4                GetCurrentThread
                0xc0010165                SelectForExecution
                0xc00100aa                GetCurrentThreadId
 .text          0xc00102dc      0x560 threadi.o
                0xc00102f4                KiGetTaskStatus
                0xc00106ad                show_tasks_parameters
                0xc001033d                KiGetFocus
                0xc0010683                GetThreadDirectory
                0xc001034c                KiShowTasksParameters
                0xc001031a                KiSetCurrentQuantum
                0xc0010306                KiReloadCurrentTask
                0xc00106f6                exit_thread
                0xc0010351                KiMostraSlots
                0xc0010383                mostra_slots
                0xc0010376                KiShowThreadList
                0xc00102e1                KiSetTaskStatus
                0xc0010509                mostra_reg
                0xc001074b                kill_thread
                0xc00102dc                KiShowPreemptedTask
                0xc0010310                KiGetQuantum
                0xc0010338                KiSetFocus
                0xc001061e                set_thread_priority
                0xc0010329                KiSetNextQuantum
                0xc00106b2                release
                0xc001030b                KiSetQuantum
                0xc0010347                KiDebugBreakpoint
                0xc0010371                KiMostraReg
                0xc00106a8                show_preempted_task
                0xc001066d                SetThreadDirectory
                0xc001043e                mostra_slot
                0xc0010301                KiSaveContextOfNewTask
                0xc001032e                KiGetNextQuantum
                0xc001031f                KiGetCurrentQuantum
                0xc001035e                KiMostraSlot
                0xc00107a6                dead_thread_collector
 .text          0xc001083c       0x30 theap.o
                0xc001083c                GetThreadHeapStart
 .text          0xc001086c       0x30 tstack.o
                0xc001086c                GetThreadStackStart
 .text          0xc001089c      0xd20 create.o
                0xc001127d                xxxRing0Idle
                0xc00108b0                KiCreateIdle
                0xc001128d                KiCreateRing0Idle
                0xc0010f63                KiCreateTaskManager
                0xc001089c                fork
                0xc00108a6                KiFork
                0xc0010c49                KiCreateShell
 .text          0xc00115bc      0x1b0 start.o
                0xc0011756                KiInitTasks
                0xc001162b                executa_tarefa
                0xc00115ee                start_task
                0xc00115bc                KeStartShell
                0xc0011612                switch_to_user_mode
                0xc0011724                KiExecutaTarefa
                0xc001160d                reload_current_task
                0xc00115d5                KeStartTaskManager
                0xc001172e                KiInitTask
                0xc0011717                KiSwitchToUserMode
 .text          0xc001176c      0x420 context.o
                0xc0011b79                KiRestoreCurrentContext
                0xc0011b86                save_context_of_new_task
                0xc0011a56                contextCheckThreadRing0Context
                0xc001176c                save_current_context
                0xc0011a60                contextCheckThreadRing3Context
                0xc0011b59                KiCheckTaskContext
                0xc0011b6c                KiSaveCurrentContext
                0xc00118d6                restore_current_context
 .text          0xc0011b8c       0x20 tasks.o
                0xc0011b9b                task3
                0xc0011b8c                task0
                0xc0011b91                task1
                0xc0011b96                task2
 .text          0xc0011bac      0x550 ts.o
                0xc0011c1b                task_switch
                0xc00120c3                set_task_status
                0xc0011f8c                taskswitchRR
                0xc00120da                taskswitch_lock
                0xc00120d0                get_task_status
                0xc0011bac                KiTaskSwitch
                0xc00120e9                taskswitch_unlock
 .text          0xc00120fc      0xe90 queue.o
                0xc0012573                queue_insert_data
                0xc00120fc                init_queue
                0xc001299c                queue_insert_head
                0xc0012df9                feed_ready_queue
                0xc0012b2d                queue_get_data
                0xc0012d4a                ScanReadyQueue
                0xc0012cbc                show_queue_information
 .text          0xc0012f8c      0x110 sched.o
                0xc0012f8c                scheduler
                0xc001307e                scheduler_get_status
                0xc001306f                scheduler_unlock
                0xc0013060                scheduler_lock
                0xc0013088                new_task_scheduler
                0xc0013047                scheduler_start
                0xc001308d                init_scheduler
 .text          0xc001309c      0x720 schedi.o
                0xc00134dc                do_thread_running
                0xc00136cf                check_for_standby
                0xc0013580                do_thread_dead
                0xc001317b                KiIncreasePriority
                0xc0013256                KiDispatchTask
                0xc00134a8                do_thread_ready
                0xc0013251                KiNewTaskScheduler
                0xc001323e                KiDoThreadDead
                0xc001322b                KiDoThreadZombie
                0xc00131d2                KiSelectNextThread
                0xc0013544                do_thread_zombie
                0xc0013205                KiDoThreadRunning
                0xc001325b                KiSetPriority
                0xc0013428                get_current
                0xc0013295                find_higher_priority
                0xc001312b                wakeup_scan_thread_reason
                0xc0013604                SelectNextThread
                0xc0013185                KiScheduler
                0xc0013465                set_priority
                0xc0013396                preempt
                0xc0013218                KiDoThreadSleeping
                0xc0013432                get_current_task
                0xc001327b                KiGetCurrent
                0xc001343c                set_current
                0xc00131f2                KiDoThreadReady
                0xc001309c                wakeup_thread_reason
                0xc0013510                do_thread_sleeping
                0xc0013749                check_quantum
                0xc0013288                KiGetCurrentTask
                0xc00131c5                KiFindHigherPriority
                0xc0013268                KiSetCurrent
                0xc00135b4                wakeup_thread
 .text          0xc00137bc      0x810 dispatch.o
                0xc0013a5c                sysconcDispatcher
                0xc0013c26                dispatch_Default
                0xc0013bae                rrDispatcher
                0xc0013b9a                idleDispatcher
                0xc0013af6                userconcDispatcher
                0xc0013def                dispatch_thread2
                0xc0013b90                systemDispatcher
                0xc0013ea8                init_dispatcher
                0xc0013f4f                IncrementDispatcherCount
                0xc00137bc                dispatcher
                0xc0013928                syscoopDispatcher
                0xc0013bb8                realtimeDispatcher
                0xc00139c2                usercoopDispatcher
                0xc00138b9                readyDispatcher
                0xc0013ba4                periodicDispatcher
                0xc0013e34                dispatch_thread
 .text          0xc0013fcc      0x110 sem.o
                0xc0013ff6                Down
                0xc00140aa                semaphore_up
                0xc0013fcc                init_semaphore
                0xc00140d1                close_semaphore
                0xc00140c7                delete_semaphore
                0xc00140cc                open_semaphore
                0xc00140bd                create_semaphore
                0xc0014097                semaphore_down
                0xc0014050                Up
 .text          0xc00140dc       0x10 modules.o
                0xc00140dc                modulesModules
 .text          0xc00140ec       0x10 nic.o
                0xc00140ec                init_network
 .text          0xc00140fc       0x30 network.o
                0xc00140fc                networkInit
 .text          0xc001412c       0x50 socket.o
                0xc001412c                create_socket
 .text          0xc001417c       0x10 sm.o
                0xc001417c                init_systemserver
 .text          0xc001418c       0xd0 channel.o
                0xc0014201                OpenChannel
                0xc001422c                CloseChannel
                0xc001418c                CreateChannel
                0xc00141e0                DestroyChannel
 .text          0xc001425c       0x70 ipc.o
                0xc00142b9                init_ipc
                0xc0014266                ipcProcedureEx
                0xc001425c                ipcProcedure
                0xc0014270                ipc_dispatch_message
 .text          0xc00142cc      0x540 read.o
                0xc0014698                fs_load_rootdirEx
                0xc00146f9                fs_load_fatEx
                0xc0014453                fsLoadFile
                0xc00142cc                read_fntos
                0xc001441d                read_lba
                0xc001476c                fs_load_dir
                0xc0014649                KiLoadRootDir
                0xc00143e1                fatLoadCluster
                0xc0014758                fs_load_rootdir
                0xc00143bb                fatClustToSect
 .text          0xc001480c      0x5b0 write.o
                0xc00148fb                fatWriteCluster
                0xc0014da3                fs_save_rootdir
                0xc001480c                write_fntos
                0xc0014dad                fs_save_entry_on_root
                0xc0014db2                fs_save_structure
                0xc00149b4                fsSaveFile
                0xc0014da8                fs_save_dir
                0xc0014937                write_lba
 .text          0xc0014dbc       0xf0 cf.o
                0xc0014e89                fs_create_entry
                0xc0014dbc                fs_create_dir
                0xc0014dc6                fs_create_file
                0xc0014e98                create_system_folders
                0xc0014e8e                fs_create_name
                0xc0014e93                salva_nome
 .text          0xc0014eac      0x2f0 search.o
                0xc0014fb7                fsSearchFile
                0xc0015186                fsSearchFileName
                0xc00150ab                fs_find_empty_entry
                0xc0015113                fs_find_n_empty_entries
                0xc0014eac                KiSearchFile
                0xc00150b5                findEmptyDirectoryEntry
 .text          0xc001519c       0x20 format.o
                0xc00151a9                fs_delete_entry
                0xc001519c                fs_apaga_fat
                0xc00151b3                fsClearFat
                0xc00151ae                limpa_root
 .text          0xc00151bc     0x1bb0 disk.o
                0xc0015634                ata_status_read
                0xc0015fa9                ide_dma_stop
                0xc0015e88                ata_pio_write
                0xc0016c42                diskATAIRQHandler1
                0xc001545e                ata_wait
                0xc0015489                ata_wait_not_busy
                0xc0015567                ata_wait_irq
                0xc0015a54                ide_dev_init
                0xc0015e5e                ata_pio_read
                0xc00152fd                disk_get_disk_handle
                0xc0015f77                ide_dma_start
                0xc00151bc                diskShowCurrentDiskInfo
                0xc0016c60                show_ide_info
                0xc0015336                disk_init
                0xc00154bc                ata_wait_busy
                0xc0015dc4                nport_ajuste
                0xc001564f                ata_cmd_write
                0xc00159bb                ide_mass_storage_initialize
                0xc0015459                init_test_disk
                0xc0016c06                diskATADialog
                0xc001552b                ata_wait_drq
                0xc00160cd                diskATAPCIConfigurationSpace
                0xc00155e5                ata_soft_reset
                0xc001691f                diskATAInitialize
                0xc00154ef                ata_wait_no_drq
                0xc001572c                ide_identify_device
                0xc001682a                diskPCIScanDevice
                0xc0016007                ide_dma_read_status
                0xc001595e                set_ata_addr
                0xc0015eb2                ide_dma_data
                0xc001532c                disk_get_current_disk_info
                0xc0016022                diskReadPCIConfigAddr
                0xc0016074                diskWritePCIConfigAddr
                0xc0016c51                diskATAIRQHandler2
                0xc00151e6                diskShowDiskInfo
                0xc001567f                ata_assert_dever
 .text          0xc0016d6c      0x380 volume.o
                0xc0016f0c                volume_init
                0xc0016ead                volume_get_volume_handle
                0xc0016edc                volume_get_current_volume_info
                0xc0016d96                volumeShowVolumeInfo
                0xc0016d6c                volumeShowCurrentVolumeInfo
 .text          0xc00170ec      0x7f0 fs.o
                0xc00177c7                fsInitializeWorkingDiretoryString
                0xc0017311                fs_get_fat_entry
                0xc001731b                fs_set_fat_entry
                0xc0017352                fs_show_entry
                0xc001732a                fs_set_entry
                0xc001730c                fs_test_fat_vector
                0xc001751b                set_spc
                0xc00171a8                fsCreateVFS
                0xc001767f                fsInit
                0xc00172c3                get_file
                0xc0017348                fs_check_fat
                0xc001723a                KeLoadFile
                0xc0017876                fs_pathname_backup
                0xc00171ad                fsFAT16ListFiles
                0xc0017361                fs_set_entry_status
                0xc0017549                fs_init_fat
                0xc00175b0                fs_init_structures
                0xc0017366                fsCheckMbrFile
                0xc001740c                fs_check_disk
                0xc0017834                fsUpdateWorkingDiretoryString
                0xc001742c                MountShortFileName
                0xc001732f                fs_get_entry
                0xc001713a                fsListFiles
                0xc00170ec                fsCheckPEFile
                0xc0017339                fs_show_dir
                0xc0017357                fs_get_entry_status
                0xc001733e                fs_check_cluster
                0xc0017320                fs_put_list_on_fat
                0xc00172ea                set_file
                0xc001753c                set_filesystem_type
                0xc0017334                fs_show_dir_entry
                0xc0017325                fs_set_structures
                0xc0017532                get_filesystem_type
                0xc0017528                get_spc
                0xc00173b9                fsCheckVbrFile
 .text          0xc00178dc      0x430 vfs.o
                0xc00179a3                vfs_show_handle_list
                0xc00178dc                vfsInit
                0xc0017c9b                vfsListFiles
                0xc00179ef                vfsShowVFSInfo
 .text          0xc0017d0c       0xe0 ctype.o
                0xc0017da6                isspace
                0xc0017dcc                isxdigit
                0xc0017db9                isupper
                0xc0017d1f                isalpha
                0xc0017d6b                islower
                0xc0017d0c                isalnum
                0xc0017d7e                isprint
                0xc0017d58                isgraph
                0xc0017d45                isdigit
                0xc0017d32                iscntrl
                0xc0017d93                ispunct
 .text          0xc0017dec      0x180 request.o
                0xc0017dec                KiRequest
                0xc0017e25                request
 .text          0xc0017f6c      0x420 info.o
                0xc0017f71                KiInformation
                0xc0017f6c                KeInformation
 .text          0xc001838c       0x60 signal.o
                0xc001838c                signalSend
                0xc00183d7                signalInit
 .text          0xc00183ec     0x1c70 system.o
                0xc00193b5                systemCreateSystemMenuBar
                0xc00195ad                SystemMenu
                0xc0019c52                systemInit
                0xc0019ca7                systemSetTerminalWindow
                0xc0019f62                newNode
                0xc0019b4f                systemGetSystemStatus
                0xc0018e76                systemIoDma
                0xc00194ac                systemCheck3TierArchitecture
                0xc001a04b                get_cursor_y
                0xc0019c78                die
                0xc0019310                systemLinkDriver
                0xc0019af5                systemGetSystemMetric
                0xc001a02c                set_up_cursor
                0xc0019f9b                Removing_from_the_beginning
                0xc001957f                system_dispatch_to_procedure
                0xc0019c69                systemSystem
                0xc0019adc                systemShutdownViaAPM
                0xc0019770                systemReboot
                0xc0019735                SystemMenuProcedure
                0xc0018b82                systemIoCpu
                0xc00192c6                systemThings
                0xc0019fc4                Removing_from_the_middle
                0xc0019ff4                set_up_color
                0xc001919f                systemDevicesBlocked
                0xc0019e9c                systemSetTerminalRectangle
                0xc0019ba0                systemStartUp
                0xc0019306                systemNull
                0xc001a041                get_cursor_x
                0xc001a001                set_up_text_color
                0xc0019f20                newLinkedlist
                0xc0019c9d                systemGetTerminalWindow
                0xc0018eb6                systemDevicesUnblocked
                0xc0019ea1                systemGetSystemMetrics
                0xc00183ec                systemRam
                0xc0019aa7                systemShutdown
                0xc00194b1                systemSetupVersion
                0xc0019fc9                Removing_from_the_end
                0xc001934a                systemShowDevicesInfo
 .text          0xc001a05c      0x110 bg.o
                0xc001a0e3                backgroundSetColor
                0xc001a152                backgroundInit
                0xc001a05c                backgroundDraw
                0xc001a10e                backgroundRedraw
                0xc001a139                backgroundBackground
 .text          0xc001a16c      0x430 grid.o
                0xc001a54c                grid
                0xc001a4ce                CreateGrid
                0xc001a16c                InitializeGrid
 .text          0xc001a59c      0x220 sbar.o
                0xc001a59c                StatusBar
 .text          0xc001a7bc      0x920 menubar.o
                0xc001ad19                redraw_menubar_item
                0xc001aec4                get_menubar_selected_item
                0xc001b013                MenuBarProcedure
                0xc001a962                create_menubar_item
                0xc001aed7                menubarX
                0xc001acd3                unselect_menubar_item
                0xc001a7bc                create_menubar
                0xc001ac8d                select_menubar_item
 .text          0xc001b0dc      0x960 menu.o
                0xc001b358                create_menu_item
                0xc001b770                ControlMenu
                0xc001b65b                initmenuArray
                0xc001b9e8                init_menus
                0xc001b5ad                set_current_menu
                0xc001b783                MainMenu
                0xc001b898                MainMenuProcedure
                0xc001b0dc                create_menu
                0xc001b5c5                get_current_menu
                0xc001b5f1                RegisterMenu
 .text          0xc001ba3c      0x4f0 mbox.o
                0xc001ba3c                MessageBox
                0xc001be93                MessageBoxProcedure
 .text          0xc001bf2c      0x3b0 dbox.o
                0xc001c265                DialogBoxProcedure
                0xc001bf2c                DialogBox
 .text          0xc001c2dc      0x320 button.o
                0xc001c2dc                draw_button
 .text          0xc001c5fc      0x270 char.o
                0xc001c631                set_char_height
                0xc001c5fc                my_buffer_char_blt
                0xc001c648                get_char_height
                0xc001c756                draw_char
                0xc001c652                drawchar_transparent
                0xc001c63e                get_char_width
                0xc001c624                set_char_width
 .text          0xc001c86c      0x130 pixel.o
                0xc001c944                refresh_pixel
                0xc001c86c                pixelPutPixelWindowBuffer
                0xc001c909                get_pixel
                0xc001c8e1                my_buffer_put_pixel
                0xc001c871                pixelPutPixelDedicatedWindowBuffer
 .text          0xc001c99c       0xb0 line.o
                0xc001c9d2                refresh_horizontal_line
                0xc001c99c                my_buffer_horizontal_line
 .text          0xc001ca4c      0x1c0 rect.o
                0xc001cb0a                getClientAreaRect
                0xc001cb53                refresh_rectangle
                0xc001ca4c                drawDataRectangle
                0xc001cb14                setClientAreaRect
 .text          0xc001cc0c       0x90 dtext.o
                0xc001cc0c                draw_text
                0xc001cc48                draw_string
 .text          0xc001cc9c       0x20 font.o
                0xc001cc9c                gwsSetCurrentFontAddress
                0xc001cca9                gwsGetCurrentFontAddress
 .text          0xc001ccbc       0x60 vsync.o
                0xc001ccfa                vsync_inb
                0xc001ccbc                vsync
 .text          0xc001cd1c      0x4e0 bmp.o
                0xc001d1a8                bmpDisplayMousePointerBMP
                0xc001cd1c                bmpDisplayBMP
 .text          0xc001d1fc     0x1040 createw.o
                0xc001d1fc                CreateWindow
 .text          0xc001e23c     0x24b0 window.o
                0xc001ea7c                windowSendMessage
                0xc001f03b                redraw_window
                0xc002019a                windowLoadGramadoIcons
                0xc001e27b                windowSetTimer
                0xc001f7e1                set_active_window
                0xc001eaf9                windowGetHandleWindow
                0xc001f5eb                resize_window
                0xc00200a8                get_zorder
                0xc001ebba                windowGetLong2
                0xc001fd43                MinimizeWindow
                0xc001fd96                MaximizeWindow
                0xc0020400                windowUpdateWindow
                0xc002042b                windowSwitchFullScreen
                0xc001e6e3                GetWindowDesktop
                0xc00200ce                getTopWindow
                0xc001e32c                windowInitializeBrowserSupport
                0xc001e939                windowSelectColorScheme
                0xc001f7d7                get_active_window
                0xc001f6bd                is_window_minimized
                0xc001f6f3                CloseWindow
                0xc001fb7e                windowGetForegroundWindow
                0xc001ed17                windowUnlock
                0xc001ed31                set_current_window
                0xc001f904                SetFocus
                0xc001fe98                init_windows
                0xc001f872                CloseActiveWindow
                0xc001ea34                windowShowWWFMessageBuffers
                0xc001e23c                windowKillTimer
                0xc001ed51                get_current_window
                0xc00200f7                get_top_window
                0xc002010e                closeActiveWindow
                0xc001ed5b                RegisterWindow
                0xc001eb06                windowGetMessage
                0xc001fcaf                KillFocus
                0xc001f8f5                windowUnblockFocus
                0xc001f7c4                DestroyWindow
                0xc001fbd4                windowSwitchFocus
                0xc001e6bd                GetParentWindow
                0xc001ebc7                window_getch
                0xc001f8e6                windowBlockfocus
                0xc001fb6d                GetFocus
                0xc001f4e6                redraw_screen
                0xc001eb85                windowGetLong1
                0xc001e2f2                windowGetMainWindowDescriptor
                0xc001fe46                init_window_manager
                0xc001f651                is_window_full
                0xc001ecfd                windowLock
                0xc001f855                show_window_with_focus
                0xc002030f                windowScan
                0xc001fb8f                windowSetForegroundWindow
                0xc001f838                show_active_window
                0xc001f61e                replace_window
                0xc001ec88                windowCreateDedicatedBuffer
                0xc001e2ba                windowGetWindowID
                0xc001e709                windowSetUpColorScheme
                0xc001f687                is_window_maximized
                0xc001ede6                windowShowWindowList
                0xc0020136                z_order_get_free_slot
                0xc0020101                set_top_window
                0xc001f823                change_active_window
 .text          0xc00206ec      0x3e0 desktop.o
                0xc002079f                init_desktop_list
                0xc00208b9                set_current_traywindow
                0xc00208d5                set_current_tooltipwindow
                0xc0020746                set_current_desktop
                0xc00209a8                init_desktop
                0xc002089d                set_current_messagewindow
                0xc0020970                set_current_menuHScroll
                0xc00207c9                CreateDesktop
                0xc0020881                set_current_foreground
                0xc00208f1                change_foreground
                0xc0020954                set_current_dialogsysMenu
                0xc002075e                get_current_desktop
                0xc00206ec                RegisterDesktop
                0xc0020938                set_current_sysMenu
                0xc0020795                get_current_desktop_id
                0xc0020865                set_current_menuwindow
                0xc002098c                set_current_menuVScroll
 .text          0xc0020acc      0x1d0 wstation.o
                0xc0020acc                get_current_windowstation
                0xc0020c30                init_window_station
                0xc0020c06                init_windowstation_list
                0xc0020bac                RegisterWindowStation
                0xc0020b10                CreateWindowStation
                0xc0020af8                set_current_windowstation
 .text          0xc0020c9c      0x230 usession.o
                0xc0020e37                init_user_session
                0xc0020c9c                get_current_user_session
                0xc0020e00                open_user_session
                0xc0020d99                close_user_session
                0xc0020cd3                CreateUserSession
 .text          0xc0020ecc      0xd00 gws.o
                0xc00219c2                guiGetDebugWindow
                0xc0021a6e                guiGetShellWindowWindow
                0xc0020ecc                gwsOpen
                0xc002175c                gui_create_navigationbar
                0xc0021941                guiGetTooltipWindow
                0xc0020ef4                gwsRegisterWindowManager
                0xc00218eb                guiGetMenuWindow
                0xc00215a9                gui_create_mainwindow
                0xc002171e                gui_create_messagebox
                0xc0021b5e                init_gui
                0xc002196c                guiGetMessageboxWindow
                0xc0021898                guiGetStatusbarWindow
                0xc0021820                guiGetDesktopWindow
                0xc00216ff                gui_create_infobox
                0xc0021916                guiGetInfoboxWindow
                0xc00219ed                guiGetMbhWindowWindow
                0xc00217d0                guiGetBackgroundWindow
                0xc0021ac4                guiSetUpMainWindow
                0xc00216fa                gui_create_controlmenu
                0xc00217a8                guiGetDeveloperScreenWindow
                0xc0021a99                guiGetShellClientWindowWindow
                0xc0021bb9                init_gramado
                0xc0021870                guiGetMainWindow
                0xc0020ee0                gwsClose
                0xc0021761                gui_create_grid
                0xc0021237                SetGuiParameters
                0xc00214b5                gui_create_taskbar
                0xc0021848                guiGetTaskbarWindow
                0xc0021bb4                gramado
                0xc0021a18                guiGetTopbarWindow
                0xc0020f3a                create_gui
                0xc002173d                gui_create_debug
                0xc0021a43                guiGetNavigationbarWindow
                0xc0021997                guiGetDialogboxWindow
                0xc0021780                guiGetScreenWindow
                0xc00212da                gui_create_screen
                0xc00218c0                guiGetGridWindow
                0xc00217f8                guiGetLogoWindow
                0xc00216f5                gui_create_logo
                0xc00213c0                gui_create_background
 .text          0xc0021bcc       0x60 object.o
                0xc0021bcc                init_object_manager
 .text          0xc0021c2c      0x2f0 userenv.o
                0xc0021dcd                SetCurrentGroupId
                0xc0021df9                GetCurrentGroupId
                0xc0021f02                init_user_environment_manager
                0xc0021d97                SetCurrentUserId
                0xc0021c2c                startUserEnvironment
                0xc0021ccc                CreateUser
                0xc0021e4f                init_user_info
                0xc0021dc3                GetCurrentUserId
                0xc0021cbd                config_user
                0xc0021c5e                ShowUserInfo
                0xc0021e03                UpdateUserInfo
 .text          0xc0021f1c      0xa50 proc.o
                0xc00227d3                procedureMakeTests
                0xc0022059                terminal_dialog
                0xc0022390                SendMessage
                0xc0021f1c                ldisc_dialog
                0xc002237b                SetProcedure
                0xc0022063                system_procedure
                0xc00223b8                procedureHelp
                0xc0022929                procedureGrid
                0xc0022363                registra_procedimento
                0xc0022892                procedureWindowWithFocusTest
                0xc0022798                procedureLinkDriverTest
 .text          0xc002296c       0x80 syscall.o
                0xc002296c                systemcall
                0xc00229c8                jmp_address
 .text          0xc00229ec       0x20 install.o
                0xc00229f6                install_bootmanager_stage1
                0xc00229fb                install_bootmanager_stage2
                0xc00229ec                install_os
                0xc0022a00                install_bootmanager_metafile
                0xc00229f1                install_boot_manager
 .text          0xc0022a0c      0x150 debug.o
                0xc0022a0c                debug_check_inicialization
                0xc0022b04                debug
                0xc0022aac                debug_check_drivers
                0xc0022ad7                debug_compute_checksum
                0xc0022abe                debug_breakpoint
 .text          0xc0022b5c      0x140 abort.o
                0xc0022b82                KiAbort
                0xc0022b8d                abort
                0xc0022b75                systemAbort
                0xc0022b5c                KeAbort
 .text          0xc0022c9c      0x200 faults.o
                0xc0022e37                KiCpuFaults
                0xc0022e4f                do_pagefault
                0xc0022c9c                faults
 .text          0xc0022e9c     0x12e0 services.o
                0xc0022e9c                services
                0xc0024168                servicesChangeProcedure
                0xc002417c                _code_end = .
                0xc0025000                . = ALIGN (0x1000)
 *fill*         0xc002417c      0xe84 00

.data           0xc0025000    0x14000
                0xc0025000                _data_begin = .
 *(.data)
 .data          0xc0025000        0x2 head.o
                0xc0025000                data_start
 *fill*         0xc0025002        0x2 00
 .data          0xc0025004      0x240 x86main.o
                0xc0025204                copyright
 .data          0xc0025244      0x200 io.o
 .data          0xc0025444      0x200 hal.o
 .data          0xc0025644      0x200 mk.o
 .data          0xc0025844      0x200 execve.o
 .data          0xc0025a44      0x200 video.o
 .data          0xc0025c44      0x200 screen.o
 .data          0xc0025e44      0x200 runtime.o
 .data          0xc0026044      0x200 ports.o
 .data          0xc0026244      0x200 x86.o
 .data          0xc0026444      0x200 stdio.o
 .data          0xc0026644      0x200 stdlib.o
 .data          0xc0026844      0x200 string.o
 .data          0xc0026a44      0x200 tty.o
 .data          0xc0026c44      0x200 init.o
 .data          0xc0026e44      0x200 logon.o
 .data          0xc0027044      0x200 logoff.o
 .data          0xc0027244      0x200 cpux86.o
 .data          0xc0027444      0x200 cpuamd.o
 .data          0xc0027644      0x200 memory.o
 .data          0xc0027844      0x200 pages.o
 .data          0xc0027a44      0x200 apic.o
 .data          0xc0027c44      0x200 pic.o
 .data          0xc0027e44      0x200 timer.o
 .data          0xc0028044      0x200 rtc.o
 .data          0xc0028244      0x200 keyboard.o
 .data          0xc0028444      0x200 mouse.o
 .data          0xc0028644      0x200 ldisc.o
 .data          0xc0028844      0x200 hdd.o
 .data          0xc0028a44      0x2e0 pci.o
 .data          0xc0028d24        0x0 usb.o
 .data          0xc0028d24      0x200 device.o
 .data          0xc0028f24      0x200 spawn.o
 .data          0xc0029124      0x200 callout.o
 .data          0xc0029324        0x0 callfar.o
 .data          0xc0029324      0x200 process.o
 .data          0xc0029524      0x200 pheap.o
 .data          0xc0029724      0x200 thread.o
 .data          0xc0029924      0x200 threadi.o
 .data          0xc0029b24      0x200 theap.o
 .data          0xc0029d24      0x200 tstack.o
 .data          0xc0029f24      0x200 create.o
 .data          0xc002a124      0x200 start.o
 .data          0xc002a324      0x200 context.o
 .data          0xc002a524      0x200 tasks.o
 .data          0xc002a724      0x200 ts.o
 .data          0xc002a924      0x200 queue.o
 .data          0xc002ab24      0x200 sched.o
 .data          0xc002ad24      0x200 schedi.o
 .data          0xc002af24      0x200 dispatch.o
 .data          0xc002b124      0x200 sem.o
 .data          0xc002b324      0x200 modules.o
 .data          0xc002b524      0x200 nic.o
 .data          0xc002b724      0x200 network.o
 .data          0xc002b924      0x200 socket.o
 .data          0xc002bb24      0x200 sm.o
 .data          0xc002bd24      0x200 channel.o
 .data          0xc002bf24      0x200 ipc.o
 .data          0xc002c124      0x200 read.o
 .data          0xc002c324      0x200 write.o
 .data          0xc002c524      0x200 cf.o
 .data          0xc002c724      0x200 search.o
 .data          0xc002c924      0x200 format.o
 .data          0xc002cb24      0x620 disk.o
                0xc002cd44                pci_classes
                0xc002cd34                dev_type
 .data          0xc002d144      0x200 volume.o
 .data          0xc002d344      0x200 fs.o
 .data          0xc002d544      0x200 vfs.o
 .data          0xc002d744      0x320 ctype.o
                0xc002d944                _ctype_
 .data          0xc002da64      0x200 request.o
 .data          0xc002dc64      0x200 info.o
 .data          0xc002de64      0x200 signal.o
 .data          0xc002e064      0x260 system.o
 .data          0xc002e2c4      0x200 bg.o
 .data          0xc002e4c4      0x200 grid.o
 .data          0xc002e6c4      0x200 sbar.o
 .data          0xc002e8c4      0x200 menubar.o
 .data          0xc002eac4      0x200 menu.o
 .data          0xc002ecc4      0x200 mbox.o
 .data          0xc002eec4      0x200 dbox.o
 .data          0xc002f0c4      0x200 button.o
 .data          0xc002f2c4      0x200 char.o
 .data          0xc002f4c4      0x200 pixel.o
 .data          0xc002f6c4      0x200 line.o
 .data          0xc002f8c4      0x200 rect.o
 .data          0xc002fac4      0x200 dtext.o
 .data          0xc002fcc4      0x200 font.o
 .data          0xc002fec4      0x200 vsync.o
 .data          0xc00300c4      0x200 bmp.o
 .data          0xc00302c4      0x200 createw.o
 .data          0xc00304c4      0x200 window.o
 .data          0xc00306c4      0x200 desktop.o
 .data          0xc00308c4      0x200 wstation.o
 .data          0xc0030ac4      0x200 usession.o
 .data          0xc0030cc4      0x200 gws.o
 .data          0xc0030ec4      0x200 object.o
 .data          0xc00310c4      0x200 userenv.o
 .data          0xc00312c4      0x200 proc.o
 .data          0xc00314c4      0x200 syscall.o
 .data          0xc00316c4      0x200 install.o
 .data          0xc00318c4      0x200 debug.o
 .data          0xc0031ac4      0x200 abort.o
 .data          0xc0031cc4      0x200 faults.o
 .data          0xc0031ec4      0x200 services.o
 *(.rdata)
 .rdata         0xc00320c4      0x2a0 x86main.o
 .rdata         0xc0032364       0x10 io.o
 .rdata         0xc0032374       0xc0 hal.o
 .rdata         0xc0032434       0xc0 mk.o
 .rdata         0xc00324f4      0x1b0 execve.o
 .rdata         0xc00326a4       0x30 video.o
 .rdata         0xc00326d4       0x20 screen.o
 .rdata         0xc00326f4       0x10 runtime.o
 .rdata         0xc0032704       0x10 ports.o
 .rdata         0xc0032714       0x10 x86.o
 .rdata         0xc0032724      0x120 stdio.o
 .rdata         0xc0032844       0x90 stdlib.o
 .rdata         0xc00328d4       0x10 string.o
 .rdata         0xc00328e4       0x40 tty.o
 .rdata         0xc0032924      0x250 init.o
 .rdata         0xc0032b74      0x130 logon.o
 .rdata         0xc0032ca4       0x30 logoff.o
 .rdata         0xc0032cd4      0x250 cpux86.o
 .rdata         0xc0032f24       0x10 cpuamd.o
 .rdata         0xc0032f34      0x5c0 memory.o
 .rdata         0xc00334f4      0x1d0 pages.o
 .rdata         0xc00336c4       0x10 apic.o
 .rdata         0xc00336d4       0x10 pic.o
 .rdata         0xc00336e4       0x20 timer.o
 .rdata         0xc0033704       0x80 rtc.o
 .rdata         0xc0033784       0x40 keyboard.o
 .rdata         0xc00337c4       0x10 mouse.o
 .rdata         0xc00337d4      0x370 ldisc.o
 .rdata         0xc0033b44       0x10 hdd.o
 .rdata         0xc0033b54      0x370 pci.o
 .rdata         0xc0033ec4       0x10 device.o
 .rdata         0xc0033ed4       0xe0 spawn.o
 .rdata         0xc0033fb4       0x10 callout.o
 .rdata         0xc0033fc4      0x250 process.o
 .rdata         0xc0034214       0x10 pheap.o
 .rdata         0xc0034224       0xc0 thread.o
 .rdata         0xc00342e4      0x200 threadi.o
 .rdata         0xc00344e4       0x10 theap.o
 .rdata         0xc00344f4       0x10 tstack.o
 .rdata         0xc0034504      0x230 create.o
 .rdata         0xc0034734       0xd0 start.o
 .rdata         0xc0034804       0xf0 context.o
 .rdata         0xc00348f4       0x10 tasks.o
 .rdata         0xc0034904      0x1e0 ts.o
 .rdata         0xc0034ae4      0x190 queue.o
 .rdata         0xc0034c74       0x10 sched.o
 .rdata         0xc0034c84       0x30 schedi.o
 .rdata         0xc0034cb4      0x160 dispatch.o
 .rdata         0xc0034e14       0x10 sem.o
 .rdata         0xc0034e24       0x10 modules.o
 .rdata         0xc0034e34       0x10 nic.o
 .rdata         0xc0034e44       0x10 network.o
 .rdata         0xc0034e54       0x10 socket.o
 .rdata         0xc0034e64       0x10 sm.o
 .rdata         0xc0034e74       0x10 channel.o
 .rdata         0xc0034e84       0x10 ipc.o
 .rdata         0xc0034e94      0x160 read.o
 .rdata         0xc0034ff4      0x170 write.o
 .rdata         0xc0035164      0x130 cf.o
 .rdata         0xc0035294       0x70 search.o
 .rdata         0xc0035304       0x10 format.o
 .rdata         0xc0035314      0x510 disk.o
 .rdata         0xc0035824      0x110 volume.o
 .rdata         0xc0035934      0x180 fs.o
 .rdata         0xc0035ab4      0x1d0 vfs.o
 .rdata         0xc0035c84       0x10 ctype.o
 .rdata         0xc0035c94       0xa0 request.o
 .rdata         0xc0035d34      0x2a0 info.o
 .rdata         0xc0035fd4       0x10 signal.o
 .rdata         0xc0035fe4      0x820 system.o
 .rdata         0xc0036804       0x10 bg.o
 .rdata         0xc0036814       0xb0 grid.o
 .rdata         0xc00368c4       0xc0 sbar.o
 .rdata         0xc0036984      0x120 menubar.o
 .rdata         0xc0036aa4      0x240 menu.o
 .rdata         0xc0036ce4       0xb0 mbox.o
 .rdata         0xc0036d94       0x70 dbox.o
 .rdata         0xc0036e04       0x10 button.o
 .rdata         0xc0036e14       0x50 char.o
 .rdata         0xc0036e64       0x40 pixel.o
 .rdata         0xc0036ea4       0x10 line.o
 .rdata         0xc0036eb4       0x10 rect.o
 .rdata         0xc0036ec4       0x10 dtext.o
 .rdata         0xc0036ed4       0x10 font.o
 .rdata         0xc0036ee4       0x10 vsync.o
 .rdata         0xc0036ef4       0x10 bmp.o
 .rdata         0xc0036f04       0xd0 createw.o
 .rdata         0xc0036fd4      0x7a0 window.o
 .rdata         0xc0037774       0x40 desktop.o
 .rdata         0xc00377b4       0x50 wstation.o
 .rdata         0xc0037804       0x90 usession.o
 .rdata         0xc0037894      0x1b0 gws.o
 .rdata         0xc0037a44       0x40 object.o
 .rdata         0xc0037a84       0xb0 userenv.o
 .rdata         0xc0037b34      0x390 proc.o
 .rdata         0xc0037ec4       0x10 syscall.o
 .rdata         0xc0037ed4       0x10 install.o
 .rdata         0xc0037ee4      0x150 debug.o
 .rdata         0xc0038034       0xa0 abort.o
 .rdata         0xc00380d4      0x1b0 faults.o
 .rdata         0xc0038284      0x520 services.o
                0xc00387a4                _data_end = .
                0xc0039000                . = ALIGN (0x1000)
 *fill*         0xc00387a4      0x85c 00

.bss            0xc0039000    0x3f000
                0xc0039000                _bss_begin = .
 *(.bss)
 .bss           0xc0039000        0x0 head.o
                0xc0039000                bss_start
 .bss           0xc0039000       0x40 x86main.o
 .bss           0xc0039040       0x40 io.o
 .bss           0xc0039080       0x40 hal.o
 .bss           0xc00390c0       0x40 mk.o
 .bss           0xc0039100       0x40 execve.o
 .bss           0xc0039140       0x40 video.o
 .bss           0xc0039180       0x40 screen.o
 .bss           0xc00391c0       0x40 runtime.o
 .bss           0xc0039200       0x40 ports.o
 .bss           0xc0039240       0x40 x86.o
 .bss           0xc0039280       0x50 stdio.o
 .bss           0xc00392d0       0x40 stdlib.o
 .bss           0xc0039310       0x50 string.o
 .bss           0xc0039360       0x40 tty.o
 .bss           0xc00393a0       0x40 init.o
 .bss           0xc00393e0       0x40 logon.o
 .bss           0xc0039420       0x40 logoff.o
 .bss           0xc0039460       0x40 cpux86.o
 .bss           0xc00394a0       0x40 cpuamd.o
 .bss           0xc00394e0       0x40 memory.o
 .bss           0xc0039520       0x40 pages.o
 .bss           0xc0039560       0x40 apic.o
 .bss           0xc00395a0       0x40 pic.o
 .bss           0xc00395e0       0x40 timer.o
 .bss           0xc0039620       0x40 rtc.o
 .bss           0xc0039660       0x40 keyboard.o
 .bss           0xc00396a0       0x40 mouse.o
 .bss           0xc00396e0       0x60 ldisc.o
 .bss           0xc0039740       0x40 hdd.o
 .bss           0xc0039780       0x40 pci.o
 .bss           0xc00397c0        0x0 usb.o
 .bss           0xc00397c0       0x40 device.o
 .bss           0xc0039800       0x40 spawn.o
 .bss           0xc0039840       0x40 callout.o
 .bss           0xc0039880        0x0 callfar.o
 .bss           0xc0039880       0x40 process.o
 .bss           0xc00398c0       0x40 pheap.o
 .bss           0xc0039900       0x40 thread.o
 .bss           0xc0039940       0x40 threadi.o
 .bss           0xc0039980       0x40 theap.o
 .bss           0xc00399c0       0x40 tstack.o
 .bss           0xc0039a00       0x40 create.o
 .bss           0xc0039a40       0x40 start.o
 .bss           0xc0039a80       0x40 context.o
 .bss           0xc0039ac0       0x40 tasks.o
 .bss           0xc0039b00       0x40 ts.o
 .bss           0xc0039b40       0x40 queue.o
 .bss           0xc0039b80       0x40 sched.o
 .bss           0xc0039bc0       0x40 schedi.o
 .bss           0xc0039c00       0x40 dispatch.o
 .bss           0xc0039c40       0x40 sem.o
 .bss           0xc0039c80       0x40 modules.o
 .bss           0xc0039cc0       0x40 nic.o
 .bss           0xc0039d00       0x40 network.o
 .bss           0xc0039d40       0x40 socket.o
 .bss           0xc0039d80       0x40 sm.o
 .bss           0xc0039dc0       0x40 channel.o
 .bss           0xc0039e00       0x40 ipc.o
 .bss           0xc0039e40       0x40 read.o
 .bss           0xc0039e80       0x40 write.o
 .bss           0xc0039ec0       0x40 cf.o
 .bss           0xc0039f00       0x40 search.o
 .bss           0xc0039f40       0x40 format.o
 .bss           0xc0039f80       0xb0 disk.o
                0xc0039f80                dev_next_pid
 .bss           0xc003a030       0x40 volume.o
 .bss           0xc003a070       0x40 fs.o
 .bss           0xc003a0b0       0x40 vfs.o
 .bss           0xc003a0f0       0x40 ctype.o
 .bss           0xc003a130       0x40 request.o
 .bss           0xc003a170       0x40 info.o
 .bss           0xc003a1b0       0x40 signal.o
 .bss           0xc003a1f0       0x40 system.o
 .bss           0xc003a230       0x40 bg.o
 .bss           0xc003a270       0x40 grid.o
 .bss           0xc003a2b0       0x40 sbar.o
 .bss           0xc003a2f0       0x40 menubar.o
 .bss           0xc003a330       0x40 menu.o
 .bss           0xc003a370       0x40 mbox.o
 .bss           0xc003a3b0       0x40 dbox.o
 .bss           0xc003a3f0       0x40 button.o
 .bss           0xc003a430       0x40 char.o
 .bss           0xc003a470       0x40 pixel.o
 .bss           0xc003a4b0       0x40 line.o
 .bss           0xc003a4f0       0x40 rect.o
 .bss           0xc003a530       0x40 dtext.o
 .bss           0xc003a570       0x40 font.o
 .bss           0xc003a5b0       0x40 vsync.o
 .bss           0xc003a5f0       0x50 bmp.o
 .bss           0xc003a640       0x40 createw.o
 .bss           0xc003a680       0x40 window.o
 .bss           0xc003a6c0       0x40 desktop.o
 .bss           0xc003a700       0x40 wstation.o
 .bss           0xc003a740       0x40 usession.o
 .bss           0xc003a780       0x40 gws.o
 .bss           0xc003a7c0       0x40 object.o
 .bss           0xc003a800       0x40 userenv.o
 .bss           0xc003a840       0x40 proc.o
 .bss           0xc003a880       0x40 syscall.o
 .bss           0xc003a8c0       0x40 install.o
 .bss           0xc003a900       0x40 debug.o
 .bss           0xc003a940       0x40 abort.o
 .bss           0xc003a980       0x40 faults.o
 .bss           0xc003a9c0       0x40 services.o
 *(COMMON)
 COMMON         0xc003aa00    0x3a910 x86main.o
                0xc003aa00                framepoolBackBuffer3
                0xc003aa10                guiMenu
                0xc003aa20                usessionList
                0xc003aaa0                terminalOffsetMax
                0xc003aab0                g_backbuffer_va
                0xc003aac0                g_module_volume_initialized
                0xc003aad0                server_stdio
                0xc003aae0                menuList
                0xc003aee0                Graphics
                0xc003aef0                framepoolList
                0xc003bef0                dispatcherType
                0xc003bf00                pci_handler_address
                0xc003bf10                mainButton3
                0xc003bf20                zicaaaaadasf
                0xc003bf30                IdleThread
                0xc003bf40                Irq9
                0xc003bf50                ld_keyboard_queue
                0xc003bf60                g_frontbuffer_va
                0xc003bf70                clientCW
                0xc003bf80                userconfig_Status
                0xc003bf90                prompt
                0xc003c090                MenuBar
                0xc003c0a0                semaforo_color
                0xc003c0b0                g_module_debug_initialized
                0xc003c0c0                threadList
                0xc003c4c0                pci_device
                0xc003c4d0                g_module_disk_initialized
                0xc003c4e0                terminalOffset
                0xc003c4f0                kernel_heap_end
                0xc003c500                screenGrid
                0xc003c700                windowzoneStart
                0xc003c710                partition
                0xc003c720                input_line
                0xc003c730                gsrcDir
                0xc003c740                fatbits
                0xc003c750                g9x14fontAddress
                0xc003c760                framepoolBackBuffer2
                0xc003c770                CurrentChannel
                0xc003c780                task_switch_status
                0xc003c790                ata_record_dev
                0xc003c7a0                systemzoneEnd
                0xc003c7b0                CurrentConsole
                0xc003c7c0                lineOffsetMax
                0xc003c7d0                serverSP
                0xc003c7e0                wsDefault
                0xc003c7f0                LocalHostHTTPSocket
                0xc003c800                ioControl_mouse
                0xc003c810                GRID
                0xc003c820                ip_address
                0xc003c830                preempted_task
                0xc003c840                ActiveWindow
                0xc003c850                KernelArgs
                0xc003c860                Irq5
                0xc003c870                Irq13
                0xc003c880                terminalWindowWithFocus
                0xc003c890                Irq2
                0xc003c8a0                pcideviceList
                0xc003c920                IpcProcedure
                0xc003c930                fullscreen_window
                0xc003c940                g_navigationbar_height
                0xc003c950                keyboard_message_head
                0xc003c960                windowstations_count
                0xc003c970                pmiMemoryInfo
                0xc003c980                usersDir
                0xc003c990                TaskManThread
                0xc003c9a0                current_volume_string
                0xc003c9b0                Irq15
                0xc003c9c0                g_module_fs_initialized
                0xc003c9d0                bmp_change_color_flag
                0xc003c9e0                framepoolBackBuffer4
                0xc003c9f0                g_driver_hdd_initialized
                0xc003ca00                g9x16fontAddress
                0xc003ca10                systemzoneStart
                0xc003ca20                waiting_procs
                0xc003ca30                running_tasks
                0xc003ca40                desktop_Conductor2
                0xc003ca50                g_device_screen_width
                0xc003ca60                desktop_rootConductor
                0xc003ca70                fsbFrames
                0xc003da70                g_user_space_framepool_index
                0xc003da80                Initialization
                0xc003daa0                Console
                0xc003dab0                GUI_CONFIG
                0xc003daf0                systemzoneSize
                0xc003db00                zorderCounter
                0xc003db10                mmFramesSuperBlockTotalUsed
                0xc003db20                quantum
                0xc003db30                stderr
                0xc003db40                g_mainwindow_width
                0xc003db50                cur_process
                0xc003db60                CurrentWindowStation
                0xc003db70                waiting_list_head
                0xc003db80                FileAccess
                0xc003db90                tmpDir
                0xc003dba0                g_logged
                0xc003dbb0                file_TaskMan
                0xc003dbc0                RGBA
                0xc003dbd0                desktop0
                0xc003dbe0                blocked_list_head
                0xc003dbf0                gui
                0xc003dc00                CurrentUserSession
                0xc003dc10                g_device_screen_height
                0xc003dc20                g_mousepointer_height
                0xc003dc30                g_module_uem_initialized
                0xc003dc40                current_tab
                0xc003dc50                processor
                0xc003dc60                userList
                0xc003dca0                prompt_pos
                0xc003dcb0                Irq10
                0xc003dcc0                Conductor
                0xc003dcd0                ide_handler_address
                0xc003dce0                Process
                0xc003dcf0                mbr
                0xc003dd00                CurrentTerminal
                0xc003dd10                current_mmblock
                0xc003dd20                deviceList
                0xc003e120                ASpace
                0xc003e130                objects_um
                0xc004a1f0                BootLoader
                0xc004a200                downloadDir
                0xc004a210                mmFramesSuperBlockSize
                0xc004a220                kernel_stack_start
                0xc004a230                Rtc
                0xc004a240                start_new_task_address
                0xc004a250                g_module_gui_initialized
                0xc004a260                file_Init
                0xc004a270                KeInitPhase
                0xc004a280                BROWSERWINDOW
                0xc004a290                windows_count
                0xc004a2a0                pagetableList
                0xc004b2a0                combobox_window
                0xc004b2b0                framepoolBackBuffer1
                0xc004b2c0                g_driver_video_initialized
                0xc004b2d0                active_window
                0xc004b2e0                objects_km
                0xc00573a0                vfs
                0xc00573b0                current_pci_device
                0xc00573c0                file_InitTXT
                0xc00573d0                Hardware
                0xc00573e0                DefaultUserSession
                0xc00573f0                current_process
                0xc0057400                mmglobalInitialingVAR
                0xc0057410                appIconBuffer
                0xc0057420                current_desktop
                0xc0057430                gsdkDir
                0xc0057440                Cursor
                0xc0057450                requestList
                0xc00574d0                usession0
                0xc00574e0                CurrentSocket
                0xc00574f0                TaskBar
                0xc0057500                g_module_logoff_initialized
                0xc0057510                pagetableCurrent
                0xc0057520                current_idle_thread
                0xc0057530                terminalList
                0xc0057550                ws2
                0xc0057560                usession_Conductor
                0xc0057570                g8x14fontAddress
                0xc0057580                Irq12
                0xc0057590                mainButton1
                0xc00575a0                scStatus
                0xc00575b0                stdin
                0xc00575c0                buffer_dir_entry
                0xc00577c0                g_frontbuffer_pa
                0xc00577d0                gStreams
                0xc00577e0                mmFramesSuperBlockTotalFree
                0xc00577f0                gcharWidth
                0xc0057800                logonMenu
                0xc0057810                file_BootLoader
                0xc0057820                socketList
                0xc00578a0                g_module_logon_initialized
                0xc00578b0                client_stderr
                0xc00578c0                next_address
                0xc00578d0                destroy_window
                0xc00578e0                dispatcherQueueIndex
                0xc00578f0                fileIconBuffer
                0xc0057900                kernel_heap_start
                0xc0057910                g8x16fontAddress
                0xc0057920                g_current_object
                0xc0057930                PrideColorScheme
                0xc0057940                mac_address
                0xc0057950                SystemDiskInfo
                0xc0057960                queue
                0xc0057970                DispatchCountBlock
                0xc0057980                current_directory
                0xc0057990                currentDir
                0xc00579a0                gdocsDir
                0xc00579b0                vfs_handle_list
                0xc00581b0                kernel_stack_start_pa
                0xc00581c0                rect
                0xc00581d0                partition_chars
                0xc00581e0                logonStatus
                0xc00581f0                framepoolFrontBuffer3
                0xc0058200                current_window
                0xc0058210                terminalIconBuffer
                0xc0058220                BootManager
                0xc0058230                g_available_heap
                0xc0058240                start_new_task_id
                0xc0058250                process_Conductor2
                0xc0058260                schedulerType
                0xc0058270                g_cursor_width
                0xc0058280                current_disk
                0xc0058290                volume1_rootdir
                0xc00582a0                g_new_message
                0xc00582b0                pwd_initialized
                0xc00582c0                KernelInfo
                0xc00582d0                Firmware
                0xc00582e0                volume_bootpartition
                0xc00582f0                file_BootManager
                0xc0058300                current_keyboard_responder
                0xc0058310                system_message_write
                0xc0058320                semaforo_priority
                0xc0058330                mouseover_window
                0xc0058340                VFS_INFO
                0xc0058360                g_module_objectmanager_initialized
                0xc0058370                terminalActiveWindow
                0xc0058380                ata_record_channel
                0xc0058390                windowstationList
                0xc0058410                zorderTopWindow
                0xc0058420                current_taskman_server
                0xc0058430                g_current_framepool
                0xc0058440                DefaultUser
                0xc0058450                task_color
                0xc0058460                framepoolFrontBuffer1
                0xc0058470                heapCount
                0xc0058480                windowzoneEnd
                0xc0058490                Thread
                0xc00584a0                g_pagedpool_va
                0xc00584b0                ProcessorBlock
                0xc00584e0                current_mouse_responder
                0xc00584f0                pagedirectoryIdleProcess
                0xc0058500                TABWINDOW
                0xc0058510                client_stdio
                0xc0058520                KernelRequests
                0xc0058530                volume_vfs
                0xc0058540                g_mousepointer_x
                0xc0058550                usersession_start
                0xc0058560                g_cursor_top
                0xc0058570                CurrentProcedure
                0xc0058580                mmFramesSuperBlockTotal
                0xc0058590                periodic_procs
                0xc00585a0                g_inputmode
                0xc00585b0                UserHeap
                0xc00585c0                keyboard_handler_address
                0xc00585d0                kernel_stack_end
                0xc00585e0                file_Kernel
                0xc00585f0                g_object_manager_status
                0xc0058600                g_cursor_right
                0xc0058610                desktop_Conductor
                0xc0058620                ring0_exported
                0xc0058630                InitProcess
                0xc0058640                microkernelStatus
                0xc0058650                zones
                0xc0058660                volume2RootDir
                0xc0058670                lineBuffer
                0xc0058680                miMemoryInfo
                0xc0058690                desktopDefault
                0xc00586a0                g_module_runtime_initialized
                0xc00586b0                ioControl_keyboard
                0xc00586c0                process_info_t
                0xc00586d0                file_LA
                0xc00586e0                VersionInfo
                0xc00586f0                inode_list
                0xc0058ef0                file_CFE
                0xc0058f00                system_procs
                0xc0058f10                window_with_focus
                0xc0058f20                g_proc_status
                0xc0058f30                framepoolCurrent
                0xc0058f40                desktopList
                0xc0058fc0                gbuildDir
                0xc0058fd0                gNextKeyboardMessage
                0xc0058fe0                pagedirectoryShared
                0xc0058ff0                g_spc
                0xc0059000                KernelHeap
                0xc0059010                pagedirectoryCurrent
                0xc0059020                gLogonPID
                0xc0059030                CurrentWindow
                0xc0059040                g_product_type
                0xc0059050                vbr
                0xc0059060                Irq14
                0xc0059070                g_nstream
                0xc0059080                g_heap_pointer
                0xc0059090                LineShell
                0xc00590a0                ipcStatus
                0xc00590b0                WindowWithFocus
                0xc00590c0                task_count
                0xc00590d0                Screen
                0xc00590e0                current_windowstation
                0xc00590f0                pipe_gramadocore_init_execve
                0xc0059100                channelList
                0xc0059180                g_kernel_nonpaged_memory
                0xc0059190                timer_handler_address
                0xc00591a0                kernel_switch
                0xc00591b0                guiStatus
                0xc00591c0                window_rootConductor
                0xc00591d0                terminalLineMax
                0xc00591e0                heapList
                0xc0059200                ttyCurrentX
                0xc0059210                volume2_rootdir
                0xc0059220                CurrentDesktop
                0xc0059230                DriveContext
                0xc0059240                prompt_err
                0xc0059340                abnt2
                0xc0059350                gFocusBlocked
                0xc0059360                sata_handler_address
                0xc0059370                desktops_count
                0xc0059380                KernelPages
                0xc0059390                directory_entry_list
                0xc0059b90                g_driver_apic_initialized
                0xc0059ba0                _lockfocus
                0xc0059bb0                file_download
                0xc0059bc0                current_usersession
                0xc0059bd0                g_video_mode
                0xc0059be0                fat
                0xc0059bf0                ttyCurrentY
                0xc0059c00                stdio_verbosemode_flag
                0xc0059c10                file_bin
                0xc0059c20                mmFramesSuperBlockEnd
                0xc0059c30                processList
                0xc005a030                memorysizeExtendedMemory
                0xc005a040                Irq8
                0xc005a050                lineLine
                0xc005a060                gPagedPollStart
                0xc005a070                g_backbuffer_pa
                0xc005a080                systemzone
                0xc005a090                volumeinfo_bootpartition
                0xc005a0a0                KernelLogBuffer
                0xc005a2a0                keyboard_message_tail
                0xc005a2b0                ata_pci
                0xc005a2f0                ATAFlag
                0xc005a300                diskinfo_conductor
                0xc005a310                gLogoffPID
                0xc005a320                rootDir
                0xc005a330                gfontSize
                0xc005a340                pageframeList
                0xc005b340                start_new_task_status
                0xc005b350                CurrentProcess
                0xc005b360                framepoolFrontBuffer4
                0xc005b370                current_semaphore
                0xc005b380                kernel_tick_total
                0xc005b390                realtimeprocessorList
                0xc005b410                CurrentDiskInfo
                0xc005b420                timer_cursor_used
                0xc005b430                clientCP
                0xc005b440                g_total_physical_memory
                0xc005b450                ready_list_head
                0xc005b460                browsertabList
                0xc005b490                g_mousepointer_width
                0xc005b4a0                usession_rootConductor
                0xc005b4b0                current_terminal
                0xc005b4c0                line_stderr
                0xc005b4d0                lineOffset
                0xc005b4e0                window_Conductor2
                0xc005b4f0                g_machine_type
                0xc005b500                client_stdout
                0xc005b510                eventStatus
                0xc005b520                Irq11
                0xc005b530                pageframeCurrent
                0xc005b540                ipcBuffer
                0xc005b550                newtask_EIP
                0xc005b560                top_window
                0xc005b570                menuitemDefault
                0xc005b580                g_scheduler_status
                0xc005b590                FULLSCREEN_TABWINDOW
                0xc005b5a0                quit_message
                0xc005b5b0                diskinfo
                0xc005b5c0                TaskManProcess
                0xc005b5d0                LineHead
                0xc005b5e0                SystemUser
                0xc005b5f0                current_quantum
                0xc005b600                __ipc_kernel_spinlock
                0xc005b610                stdout
                0xc005b620                windowzoneSize
                0xc005b630                g_driver_rtc_initialized
                0xc005b640                SystemClasses
                0xc005b650                objects_gui
                0xc0067710                g_navigationbar_width
                0xc0067720                gws_currentfont_address
                0xc0067730                windowList
                0xc0068730                wstation_Conductor2
                0xc0068740                gPagedPollEnd
                0xc0068750                windowzone
                0xc0068760                ShellThread
                0xc0068770                file_CS
                0xc0068780                Streams
                0xc0068800                Irq6
                0xc0068810                g_cursor_left
                0xc0068820                g_system_color
                0xc0068830                defaultChannel
                0xc0068840                g_cursor_bottom
                0xc0068850                Irq3
                0xc0068860                realtimeStatus
                0xc0068870                editbox_window
                0xc0068880                disk_conductor
                0xc0068890                kernel_request
                0xc00688a0                idle_thread
                0xc00688b0                g_pageable_framepool_index_max
                0xc00688c0                current_thread
                0xc00688d0                Pipes
                0xc00688f0                Bank
                0xc0068900                fileBuffer
                0xc0068910                timer_cursor_status
                0xc0068920                g_current_vm
                0xc0068930                rectClientArea
                0xc0068940                file_Shell
                0xc0068950                schedulerQueue
                0xc0068960                systemSize
                0xc0068970                object
                0xc0068980                gDeveloperOptions
                0xc0068990                keybuffer
                0xc0068a10                zorder
                0xc0068a20                keyboard_queue
                0xc0068b40                forkid
                0xc0068b50                menus_count
                0xc0068b60                current_volume
                0xc0068b70                shutdown_address
                0xc0068b80                ioControl
                0xc0068c00                devices
                0xc0068c10                terminalLine
                0xc0068c20                serialportError
                0xc0068c30                desktop1
                0xc0068c40                gcharHeight
                0xc0068c50                g_use_default_user
                0xc0068c60                RING0IDLEThread
                0xc0068c70                CurrentDisk
                0xc0068c80                framepoolFrontBuffer2
                0xc0068c90                pipe_execve
                0xc0068ca0                diskList
                0xc0068cc0                server_stderr
                0xc0068cd0                Conductor2
                0xc0068ce0                KernelClasses
                0xc0068cf0                fsbFreeFrames
                0xc0069cf0                screenBuffers
                0xc0069d00                current_process_pagedirectory_address
                0xc0069d10                rr_procs
                0xc0069d20                KernelProcess
                0xc0069d30                framepoolPageableSpace
                0xc0069d40                lineLineMax
                0xc0069d50                KernelHeapSize
                0xc0069d60                HostDeviceInfo
                0xc0069d70                prompt_out
                0xc0069e70                bmp_selected_color
                0xc0069e80                g_driver_pci_initialized
                0xc0069e90                gramadoDir
                0xc0069ea0                file_cluster_list
                0xc006a6a0                volumeinfo_systempartition
                0xc006a6b0                memorysizeOtherMemory
                0xc006a6c0                IpcProcedureEx
                0xc006a6d0                mmblockList
                0xc00726d0                g_driver_timer_initialized
                0xc00726e0                HostInfo
                0xc00726f0                ata_identify_dev_buf
                0xc0072700                Irq0
                0xc0072710                file_dd
                0xc0072720                DSpace
                0xc0072730                g_next_app
                0xc0072740                cmdDir
                0xc0072750                pageframeAllocList
                0xc0073750                file_libs
                0xc0073760                idle_proc
                0xc0073770                clientCR
                0xc0073780                g_useGUI
                0xc0073790                g_filesystem_type
                0xc00737a0                Irq4
                0xc00737b0                dirCount
                0xc00737c0                ShellProcess
                0xc00737d0                keybuffer_head
                0xc00737e0                CurrentBuffer
                0xc00737f0                CurrentColorScheme
                0xc0073800                next_quantum
                0xc0073810                process_rootConductor
                0xc0073820                dev_nport
                0xc0073840                stdio_terminalmode_flag
                0xc0073850                menuDefault
                0xc0073860                framepoolSmallSystemUserSpace
                0xc0073870                ata
                0xc0073890                zicaaa
                0xc00738a0                rootConductor
                0xc00738b0                gSystemStatus
                0xc00738c0                DeveloperWindowCursor
                0xc00738d0                Version
                0xc00738e0                file_pwd
                0xc00738f0                userenvironmentStatus
                0xc0073900                g_guiMinimal
                0xc0073910                volume1RootDir
                0xc0073920                time_out
                0xc0073930                current_file
                0xc0073940                pagedirectoryKernelProcess
                0xc0073950                g_mainwindow_height
                0xc0073960                VideoBlock
                0xc0073980                System
                0xc0073990                KernelSize
                0xc00739a0                Line
                0xc00739b0                dispatcherReadyList
                0xc00739e0                ScreenInfo
                0xc00739f0                CurrentCursor
                0xc0073a00                g8x8fontAddress
                0xc0073a10                KernelStackSize
                0xc0073a20                zica
                0xc0073a30                keybuffer_index
                0xc0073a40                g_cursor_color
                0xc0073a50                memorysizeTotal
                0xc0073a60                g_system_mode
                0xc0073a70                Irq1
                0xc0073a80                g_current_video_mode
                0xc0073a90                ws0
                0xc0073aa0                cur_thread
                0xc0073ab0                current_group
                0xc0073ac0                process_Conductor
                0xc0073ad0                BackBufferInfo
                0xc0073ae0                file_users
                0xc0073af0                conductorIndex
                0xc0073b00                g_mousepointer_y
                0xc0073b10                g_framepool_max
                0xc0073b20                task_waiting
                0xc0073b30                keybuffer_tail
                0xc0073b40                g_cursor_y
                0xc0073b50                volume_systempartition
                0xc0073b60                Irq7
                0xc0073b70                banksCount
                0xc0073b80                Pic
                0xc0073b90                Platform
                0xc0073ba0                system_message_read
                0xc0073bb0                wstation_Conductor
                0xc0073bc0                errno
                0xc0073bd0                old
                0xc0073be0                zorderList
                0xc0073de0                gSystemEdition
                0xc0073df0                pagedirectoryList
                0xc0074df0                framepoolMediumSystemUserSpace
                0xc0074e00                menubarDefault
                0xc0074e10                filesystem
                0xc0074e20                logoffStatus
                0xc0074e30                current_user
                0xc0074e40                WindowProcedure
                0xc0074e50                kernel_tick
                0xc0074e60                framepoolKernelSpace
                0xc0074e70                memorysizeBaseMemory
                0xc0074e80                server_stdout
                0xc0074e90                g_file_system_type
                0xc0074ea0                mmblockCount
                0xc0074eb0                prompt_status
                0xc0074ec0                pagedirectoryTaskmanProcess
                0xc0074ed0                ambiente
                0xc0074ee0                framepoolLargeSystemUserSpace
                0xc0074ef0                g_platform_type
                0xc0074f00                folderIconBuffer
                0xc0074f10                volume0RootDir
                0xc0074f20                line_stdin
                0xc0074f30                g_kernel_paged_memory
                0xc0074f40                mmFramesSuperBlockStart
                0xc0074f50                mouseBMPBuffer
                0xc0074f60                g_driver_keyboard_initialized
                0xc0074f70                wstation_rootConductor
                0xc0074f80                rtc
                0xc0074f90                bmp_substitute_color
                0xc0074fa0                window_Conductor
                0xc0074fb0                lastBank
                0xc0074fc0                g_mm_system_type
                0xc0074fd0                g_kernel_lfb
                0xc0074fe0                ws1
                0xc0074ff0                PciDrivers
                0xc0075000                system_message_queue
                0xc0075080                usession_Conductor2
                0xc0075090                terminal_window
                0xc00750a0                mainButton2
                0xc00750b0                CurrentScreen
                0xc00750c0                queueList
                0xc00750e0                ttyLineCounter
                0xc00750f0                g_char_attrib
                0xc0075100                HumilityColorScheme
                0xc0075110                window_mouse_over
                0xc0075120                file_tmp
                0xc0075130                g_module_shell_initialized
                0xc0075140                g_next_proc
                0xc0075150                semaphoreList
                0xc00751e0                file_CWE
                0xc00751f0                FrontBufferInfo
                0xc0075200                g_current_list
                0xc0075210                volumeinfo_vfs
                0xc0075220                line_stdout
                0xc0075230                g_module_mm_initialized
                0xc0075240                g_cursor_height
                0xc0075250                current_workingdiretory_string
                0xc0075270                volumeList
                0xc00752b0                g_nova_mensagem
                0xc00752c0                current_menu
                0xc00752d0                pmiCurrent
                0xc00752e0                Pci
                0xc00752f0                g_cursor_x
                0xc0075300                CurrentUser
 COMMON         0xc0075310       0x10 mk.o
                0xc0075310                localsstuff1
 COMMON         0xc0075320       0x20 video.o
                0xc0075320                videoError
                0xc0075330                videoStatus
 COMMON         0xc0075340       0x20 screen.o
                0xc0075340                screen_height
                0xc0075350                screen_width
 COMMON         0xc0075360       0x30 memory.o
                0xc0075360                mm_prev_pointer
                0xc0075370                last_size
                0xc0075380                last_valid
 COMMON         0xc0075390       0x20 pic.o
                0xc0075390                picError
                0xc00753a0                picStatus
 COMMON         0xc00753b0       0x70 timer.o
                0xc00753b0                timerTicks
                0xc00753c0                timerColor
                0xc00753d0                timerStatus
                0xc00753e0                timerIdleState
                0xc00753f0                timerError
                0xc0075400                timerLock
                0xc0075410                timerLine
 COMMON         0xc0075420       0x30 rtc.o
                0xc0075420                rtcError
                0xc0075430                rtcTicks
                0xc0075440                rtcStatus
 COMMON         0xc0075450       0x40 keyboard.o
                0xc0075450                _write_offset
                0xc0075460                _read_offset
                0xc0075470                _keyboard_queue
 COMMON         0xc0075490      0x170 ldisc.o
                0xc0075490                scrolllock_status
                0xc00754a0                delta_x
                0xc00754b0                mouse_buttom_3
                0xc00754c0                capslock_status
                0xc00754d0                mouse_button_action
                0xc00754e0                numlock_status
                0xc00754f0                old_mouse_buttom_1
                0xc0075500                shift_status
                0xc0075510                alt_status
                0xc0075520                kbMsgStatus
                0xc0075530                mouse_pos_x
                0xc0075540                old_mouse_buttom_3
                0xc0075550                mouse_buttom_1
                0xc0075560                mouse_status
                0xc0075570                old_mouse_buttom_2
                0xc0075580                delta_y
                0xc0075590                escape_status
                0xc00755a0                mouse_pos_y
                0xc00755b0                tab_status
                0xc00755c0                key_status
                0xc00755d0                ctrl_status
                0xc00755e0                winkey_status
                0xc00755f0                mouse_buttom_2
 COMMON         0xc0075600       0x20 hdd.o
                0xc0075600                hddError
                0xc0075610                hddStatus
 COMMON         0xc0075620       0x20 process.o
                0xc0075620                processNewPID
                0xc0075630                caller_process_id
 COMMON         0xc0075640      0x100 context.o
                0xc0075640                contextESP
                0xc0075650                contextEDX
                0xc0075660                contextFS
                0xc0075670                contextDS
                0xc0075680                contextESI
                0xc0075690                contextEIP
                0xc00756a0                contextGS
                0xc00756b0                contextEFLAGS
                0xc00756c0                contextECX
                0xc00756d0                contextEBP
                0xc00756e0                contextCS
                0xc00756f0                contextEAX
                0xc0075700                contextEBX
                0xc0075710                contextEDI
                0xc0075720                contextES
                0xc0075730                contextSS
 COMMON         0xc0075740       0x10 ts.o
                0xc0075740                lock_taskswitch
 COMMON         0xc0075750       0x10 network.o
                0xc0075750                networkTesting
 COMMON         0xc0075760     0x2000 write.o
                0xc0075760                list
 COMMON         0xc0077760       0x50 disk.o
                0xc0077760                dma_addr
                0xc0077770                current_dev
                0xc0077780                ide_dma_prdt
                0xc00777a0                ready_queue_dev
 COMMON         0xc00777b0       0x10 signal.o
                0xc00777b0                Signal
 COMMON         0xc00777c0       0x10 font.o
                0xc00777c0                dummyzzzfontstuff
 COMMON         0xc00777d0       0x60 window.o
                0xc00777d0                save_client_rect_top
                0xc00777e0                fsStatus
                0xc00777f0                xxxxsavemessage
                0xc0077800                save_client_rect_left
                0xc0077810                save_client_rect_height
                0xc0077820                save_client_rect_width
 COMMON         0xc0077830       0x30 gws.o
                0xc0077830                gws_status
                0xc0077840                gws_wm_PID
                0xc0077850                gws_wm_status
 COMMON         0xc0077860       0x10 debug.o
                0xc0077860                Mind
 COMMON         0xc0077870       0xd0 services.o
                0xc0077870                cwArg1
                0xc0077880                cwArg2
                0xc0077890                cwArg11
                0xc00778a0                cwArg8
                0xc00778b0                cwArg3
                0xc00778c0                cwArg9
                0xc00778d0                cwArg10
                0xc00778e0                cwFlag
                0xc00778f0                cwArg12
                0xc0077900                cwArg5
                0xc0077910                cwArg7
                0xc0077920                cwArg4
                0xc0077930                cwArg6
                0xc0077940                _bss_end = .
                0xc0078000                . = ALIGN (0x1000)
 *fill*         0xc0077940      0x6c0 00
                0xc0078000                _kernel_end = .
LOAD head.o
LOAD x86main.o
LOAD io.o
LOAD hal.o
LOAD mk.o
LOAD execve.o
LOAD video.o
LOAD screen.o
LOAD runtime.o
LOAD ports.o
LOAD x86.o
LOAD stdio.o
LOAD stdlib.o
LOAD string.o
LOAD tty.o
LOAD init.o
LOAD logon.o
LOAD logoff.o
LOAD cpux86.o
LOAD cpuamd.o
LOAD memory.o
LOAD pages.o
LOAD apic.o
LOAD pic.o
LOAD timer.o
LOAD rtc.o
LOAD keyboard.o
LOAD mouse.o
LOAD ldisc.o
LOAD hdd.o
LOAD pci.o
LOAD usb.o
LOAD device.o
LOAD spawn.o
LOAD callout.o
LOAD callfar.o
LOAD process.o
LOAD pheap.o
LOAD thread.o
LOAD threadi.o
LOAD theap.o
LOAD tstack.o
LOAD create.o
LOAD start.o
LOAD context.o
LOAD tasks.o
LOAD ts.o
LOAD queue.o
LOAD sched.o
LOAD schedi.o
LOAD dispatch.o
LOAD sem.o
LOAD modules.o
LOAD nic.o
LOAD network.o
LOAD socket.o
LOAD sm.o
LOAD channel.o
LOAD ipc.o
LOAD read.o
LOAD write.o
LOAD cf.o
LOAD search.o
LOAD format.o
LOAD disk.o
LOAD volume.o
LOAD fs.o
LOAD vfs.o
LOAD ctype.o
LOAD request.o
LOAD info.o
LOAD signal.o
LOAD system.o
LOAD bg.o
LOAD grid.o
LOAD sbar.o
LOAD menubar.o
LOAD menu.o
LOAD mbox.o
LOAD dbox.o
LOAD button.o
LOAD char.o
LOAD pixel.o
LOAD line.o
LOAD rect.o
LOAD dtext.o
LOAD font.o
LOAD vsync.o
LOAD bmp.o
LOAD createw.o
LOAD window.o
LOAD desktop.o
LOAD wstation.o
LOAD usession.o
LOAD gws.o
LOAD object.o
LOAD userenv.o
LOAD proc.o
LOAD syscall.o
LOAD install.o
LOAD debug.o
LOAD abort.o
LOAD faults.o
LOAD services.o
OUTPUT(KERNEL.BIN pe-i386)

.comment        0x00000000       0x20
 .comment       0x00000000       0x1f head.o
