
Allocating common symbols
Common symbol       size              file

__barheight         0x4               crt0.o
g_cursor_x          0x4               crt0.o
line_buffer_tail    0x4               main.o
password            0xb               main.o
__bartop            0x4               crt0.o
objectY             0x4               tests.o
CurrentWindow       0x4               crt0.o
backgroung_color    0x4               crt0.o
wsWindowHeight      0x4               crt0.o
taskbar_window      0x4               crt0.o
stdout              0x4               crt0.o
screen_buffer_y     0x4               crt0.o
__barwidth          0x4               crt0.o
wlFullScreenLeft    0x4               crt0.o
mm_prev_pointer     0x4               stdlib.o
mmblockList         0x400             stdlib.o
__libc_tty_id       0x4               crt0.o
client_background_window
                    0x4               main.o
username            0xb               main.o
__barleft           0x4               crt0.o
last_valid          0x4               stdlib.o
heapList            0x400             stdlib.o
__bgheight          0x4               crt0.o
close_button        0x4               crt0.o
libcHeap            0x4               stdlib.o
smCursorHeight      0x4               crt0.o
pathname_buffer     0x40              crt0.o
deltaY              0x4               tests.o
errno               0x4               unistd.o
textCurrentRow      0x4               crt0.o
g_char_attrib       0x4               crt0.o
g_rows              0x4               crt0.o
app4_button         0x4               crt0.o
dialogbox_button2   0x4               api.o
smMousePointerWidth
                    0x4               crt0.o
smMousePointerHeight
                    0x4               crt0.o
bar_button_1        0x4               main.o
filename_buffer     0xb               crt0.o
Streams             0x80              crt0.o
line_buffer_head    0x4               main.o
optarg              0x4               unistd.o
messagebox_button1  0x4               api.o
textWheelDelta      0x4               crt0.o
app1_button         0x4               crt0.o
g_using_gui         0x4               crt0.o
opterr              0x4               unistd.o
wlMinRows           0x4               crt0.o
current_volume_string
                    0x4               crt0.o
ShellMetrics        0x4               crt0.o
main_window         0x4               main.o
smCharHeight        0x4               crt0.o
ApplicationInfo     0x4               crt0.o
randseed            0x4               stdlib.o
heap_start          0x4               stdlib.o
foregroung_color    0x4               crt0.o
prompt_out          0x400             crt0.o
shell_info          0x18              crt0.o
BufferInfo          0x4               crt0.o
ShellHook           0x4               crt0.o
lineList            0x2000            crt0.o
wlMaxWindowHeight   0x4               crt0.o
textCurrentCol      0x4               crt0.o
shell_environment   0x4               main.o
textSavedCol        0x4               crt0.o
current_volume_id   0x4               crt0.o
smCharWidth         0x4               crt0.o
g_current_workingdirectory_id
                    0x4               crt0.o
g_available_heap    0x4               stdlib.o
wlFullScreenHeight  0x4               crt0.o
textTopRow          0x4               crt0.o
g_heap_pointer      0x4               stdlib.o
textMinWheelDelta   0x4               crt0.o
g_columns           0x4               crt0.o
my__p               0x4               unistd.o
HEAP_SIZE           0x4               stdlib.o
optind              0x4               unistd.o
dialogbox_button1   0x4               api.o
mmblockCount        0x4               stdlib.o
prompt_pos          0x4               crt0.o
stdin               0x4               crt0.o
script_name         0x4               main.o
pathname_lenght     0x4               crt0.o
__wlMaxColumns      0x4               crt0.o
last_size           0x4               stdlib.o
wlMinWindowHeight   0x4               crt0.o
textBottomRow       0x4               crt0.o
wlMinColumns        0x4               crt0.o
__Hostname_buffer   0x40              unistd.o
prompt_status       0x4               crt0.o
first_responder     0x4               api.o
__ptsname_buffer    0x40              stdlib.o
objectX             0x4               tests.o
pwd_initialized     0x4               crt0.o
root                0x4               crt0.o
CurrentCommand      0x4               crt0.o
shell_name          0x4               main.o
__Login_buffer      0x40              unistd.o
screen_buffer_x     0x4               crt0.o
wlMinWindowWidth    0x4               crt0.o
CommandHistory      0x4               crt0.o
app3_button         0x4               crt0.o
bar_button_2        0x4               main.o
prompt_err          0x400             crt0.o
__bgwidth           0x4               crt0.o
pwd                 0x4               crt0.o
screen_buffer       0x1401            crt0.o
reboot_button       0x4               crt0.o
dummycompiler       0x4               crt0.o
smScreenWidth       0x4               crt0.o
textMaxWheelDelta   0x4               crt0.o
CursorInfo          0x4               crt0.o
__bgleft            0x4               crt0.o
app2_button         0x4               crt0.o
smScreenHeight      0x4               crt0.o
wlMaxWindowWidth    0x4               crt0.o
heap_end            0x4               stdlib.o
screen_buffer_pos   0x4               crt0.o
build_version       0x4               main.o
smCursorWidth       0x4               crt0.o
__bgtop             0x4               crt0.o
wpWindowLeft        0x4               crt0.o
xxxpassword         0xb               login.o
terminal_rect       0x10              crt0.o
taskbar_button1     0x4               crt0.o
stderr              0x4               crt0.o
__mb_current_button
                    0x4               api.o
wlFullScreenTop     0x4               crt0.o
wsWindowWidth       0x4               crt0.o
g_current_disk_id   0x4               crt0.o
editboxWindow       0x4               crt0.o
optopt              0x4               unistd.o
client_window       0x4               main.o
deltaX              0x4               tests.o
prompt              0x400             crt0.o
HEAP_END            0x4               stdlib.o
EOF_Reached         0x4               crt0.o
g_cursor_y          0x4               crt0.o
screenbufferList    0x20              crt0.o
client_bar_Window   0x4               main.o
headless            0x4               main.o
ClientAreaInfo      0x4               crt0.o
messagebox_button2  0x4               api.o
Heap                0x4               stdlib.o
pathname_initilized
                    0x4               crt0.o
wpWindowTop         0x4               crt0.o
filename_lenght     0x4               crt0.o
current_semaphore   0x4               crt0.o
wlFullScreenWidth   0x4               crt0.o
dist_version        0x4               main.o
xxxusername         0xb               login.o
prompt_max          0x4               crt0.o
current_mmblock     0x4               stdlib.o
line_buffer_buffersize
                    0x4               main.o
__wlMaxRows         0x4               crt0.o
LINE_BUFFER         0x400             main.o
textSavedRow        0x4               crt0.o
heapCount           0x4               stdlib.o
CSI_BUFFER          0x80              main.o
filename_initilized
                    0x4               crt0.o
LINES               0x1580            crt0.o
HEAP_START          0x4               stdlib.o
g_current_volume_id
                    0x4               crt0.o
bar_button_3        0x4               main.o
current_workingdiretory_string
                    0x20              crt0.o

Memory Configuration

Name             Origin             Length             Attributes
*default*        0x0000000000000000 0xffffffffffffffff

Linker script and memory map


.text           0x0000000000401000     0xf000
                0x0000000000401000                code = .
                0x0000000000401000                _code = .
                0x0000000000401000                __code = .
 *(.head_x86)
 *(.text)
 .text          0x0000000000401000       0x75 crt0.o
                0x0000000000401000                crt0
 .text          0x0000000000401075     0x4741 main.o
                0x0000000000401075                handle_notification
                0x0000000000401116                terminal_test_write
                0x000000000040111c                __PostMessageToProcess
                0x000000000040115f                quit
                0x000000000040117f                process_input
                0x00000000004011f0                csidump
                0x00000000004012cf                csireset
                0x00000000004012ec                strdump
                0x00000000004013e5                strreset
                0x0000000000401402                techo
                0x00000000004014c0                tputc
                0x00000000004017c5                print_buffer
                0x0000000000401850                initialize_buffer
                0x0000000000401898                noratermProcedure
                0x0000000000402423                shellWaitCmd
                0x000000000040243c                shellCompare
                0x0000000000403f27                terminalInitSystemMetrics
                0x0000000000403fc0                terminalInitWindowLimits
                0x0000000000404064                terminalInitWindowSizes
                0x00000000004040b0                terminalInitWindowPosition
                0x00000000004040ca                terminalTerminal
                0x00000000004041e7                terminalInit
                0x00000000004042e7                shellTestLoadFile
                0x0000000000404353                shellTestThreads
                0x0000000000404401                shellScroll
                0x0000000000404414                shellTestMBR
                0x000000000040441a                shellShowInfo
                0x00000000004044c7                shellShowMetrics
                0x0000000000404579                shellShowSystemInfo
                0x00000000004045f4                terminalShowWindowInfo
                0x00000000004046a5                shellSendMessage
                0x00000000004046c1                shell_memcpy_bytes
                0x00000000004046ee                shellExit
                0x0000000000404705                shellUpdateWorkingDiretoryString
                0x0000000000404764                shellInitializeWorkingDiretoryString
                0x00000000004047ee                shellUpdateCurrentDirectoryID
                0x00000000004047fc                shellTaskList
                0x000000000040491f                shell_fntos
                0x0000000000404a39                shell_gramado_core_init_execve
                0x0000000000404aa4                feedterminalDialog
                0x0000000000404b30                die
                0x0000000000404b83                concat
                0x0000000000404c39                error
                0x0000000000404c8d                fatal
                0x0000000000404cb7                save_string
                0x0000000000404cf3                shell_save_file
                0x0000000000404e68                save_string2
                0x0000000000404f79                show_shell_version
                0x0000000000404fa3                terminal_write_char
                0x0000000000404fe4                main
 .text          0x00000000004057b6       0x28 stubs.o
                0x00000000004057b6                gramado_system_call
 .text          0x00000000004057de        0x0 ctype.o
 .text          0x00000000004057de     0x3231 stdio.o
                0x0000000000405826                stdio_atoi
                0x00000000004058ed                stdio_fntos
                0x0000000000405a17                debug_print
                0x0000000000405a39                remove
                0x0000000000405a43                fclose
                0x0000000000405a71                fopen
                0x0000000000405b89                creat
                0x0000000000405bb0                scroll
                0x0000000000405c7d                fread
                0x0000000000405c9e                fwrite
                0x0000000000405cbf                prompt_putchar
                0x0000000000405d0f                prompt_put_string
                0x0000000000405d3c                prompt_strcat
                0x0000000000405d69                prompt_flush
                0x0000000000405dcd                prompt_clean
                0x00000000004061dd                printf3
                0x00000000004061fa                printf_atoi
                0x00000000004062eb                printf_i2hex
                0x000000000040634d                printf2
                0x00000000004064d2                stdio_nextline
                0x0000000000406510                nlsprintf
                0x000000000040654e                sprintf
                0x00000000004065a3                libc_set_output_mode
                0x00000000004065e7                outbyte
                0x00000000004067db                _outbyte
                0x000000000040680a                input
                0x000000000040696a                stdioInitialize
                0x0000000000406ab0                fflush
                0x0000000000406ac6                __fflush
                0x0000000000406b88                __getc
                0x0000000000406c33                __putc
                0x0000000000406cd8                getc
                0x0000000000406cee                putc
                0x0000000000406d07                fgetc
                0x0000000000406d1d                fputc
                0x0000000000406d36                getchar
                0x0000000000406d4f                putchar
                0x0000000000406d6b                gets
                0x0000000000406dad                puts
                0x0000000000406de7                fgets
                0x0000000000406e42                fputs
                0x0000000000406e76                getw
                0x0000000000406eb7                putw
                0x0000000000406ee6                fprintf
                0x0000000000406f84                nputs
                0x0000000000406fbf                ungetc
                0x0000000000406fed                ftell
                0x000000000040701b                fileno
                0x0000000000407049                __gramado__getc
                0x00000000004070f4                feof
                0x0000000000407122                ferror
                0x0000000000407150                fseek
                0x000000000040717e                __serenity_fflush
                0x000000000040721f                __serenity_fputc
                0x00000000004072c4                __serenity_putc
                0x00000000004072dd                stdioSetCursor
                0x00000000004072f8                stdioGetCursorX
                0x0000000000407313                stdioGetCursorY
                0x000000000040732e                scanf
                0x00000000004074cf                sscanf
                0x000000000040768a                kvprintf
                0x00000000004084f4                printf
                0x0000000000408522                printf_draw
                0x000000000040856a                vfprintf
                0x00000000004085e2                vprintf
                0x0000000000408611                stdout_printf
                0x000000000040864d                stderr_printf
                0x0000000000408689                perror
                0x00000000004086a0                rewind
                0x00000000004086ca                snprintf
                0x00000000004086de                stdio_initialize_standard_streams
                0x0000000000408739                libcStartTerminal
                0x00000000004087ad                setbuf
                0x00000000004087d7                setbuffer
                0x0000000000408801                setlinebuf
                0x000000000040882b                setvbuf
                0x0000000000408859                filesize
                0x00000000004088a2                fileread
                0x00000000004088f0                dprintf
                0x0000000000408907                vdprintf
                0x0000000000408911                vsprintf
                0x000000000040891b                vsnprintf
                0x0000000000408925                vscanf
                0x000000000040892f                vsscanf
                0x0000000000408939                vfscanf
                0x0000000000408950                tmpnam
                0x000000000040895a                tmpnam_r
                0x0000000000408964                tempnam
                0x000000000040896e                tmpfile
                0x0000000000408978                fdopen
                0x0000000000408982                freopen
                0x0000000000408999                open_memstream
                0x00000000004089a3                open_wmemstream
                0x00000000004089ad                fmemopen
                0x00000000004089b7                fgetpos
                0x00000000004089ce                fsetpos
                0x00000000004089e5                fpurge
                0x00000000004089fc                __fpurge
                0x0000000000408a05                ctermid
 .text          0x0000000000408a0f     0x114a stdlib.o
                0x0000000000408a2c                rtGetHeapStart
                0x0000000000408a36                rtGetHeapEnd
                0x0000000000408a40                rtGetHeapPointer
                0x0000000000408a4a                rtGetAvailableHeap
                0x0000000000408a54                heapSetLibcHeap
                0x0000000000408b07                heapAllocateMemory
                0x0000000000408d39                FreeHeap
                0x0000000000408d43                heapInit
                0x0000000000408ed6                stdlibInitMM
                0x0000000000408f39                libcInitRT
                0x0000000000408f5b                mktemp
                0x0000000000408f65                rand
                0x0000000000408f82                srand
                0x0000000000408f90                xmalloc
                0x0000000000408fc2                stdlib_die
                0x0000000000408ff8                malloc
                0x0000000000409034                realloc
                0x0000000000409071                free
                0x0000000000409077                calloc
                0x00000000004090bd                zmalloc
                0x00000000004090f9                system
                0x00000000004094bd                stdlib_strncmp
                0x0000000000409520                __findenv
                0x00000000004095eb                getenv
                0x0000000000409618                setenv
                0x0000000000409622                unsetenv
                0x000000000040962c                atoi
                0x00000000004096f3                reverse
                0x000000000040975b                itoa
                0x0000000000409809                abs
                0x0000000000409819                strtod
                0x0000000000409a4a                strtof
                0x0000000000409a66                strtold
                0x0000000000409a79                atof
                0x0000000000409a8b                labs
                0x0000000000409a9b                mkstemp
                0x0000000000409aa5                mkostemp
                0x0000000000409aaf                mkstemps
                0x0000000000409ab9                mkostemps
                0x0000000000409ac3                ptsname
                0x0000000000409ae9                ptsname_r
                0x0000000000409b10                posix_openpt
                0x0000000000409b2b                grantpt
                0x0000000000409b35                getpt
                0x0000000000409b3f                unlockpt
                0x0000000000409b49                getprogname
                0x0000000000409b53                setprogname
 .text          0x0000000000409b59      0xb2b string.o
                0x0000000000409b59                strcoll
                0x0000000000409b72                memsetw
                0x0000000000409b9e                memcmp
                0x0000000000409c03                strdup
                0x0000000000409c55                strndup
                0x0000000000409cb6                strnchr
                0x0000000000409cef                strrchr
                0x0000000000409d2a                strtoimax
                0x0000000000409d34                strtoumax
                0x0000000000409d3e                strcasecmp
                0x0000000000409da6                strncpy
                0x0000000000409dfc                strcmp
                0x0000000000409e61                strncmp
                0x0000000000409ec4                memset
                0x0000000000409f0b                memoryZeroMemory
                0x0000000000409f32                memcpy
                0x0000000000409f6f                strcpy
                0x0000000000409fa3                strlcpy
                0x000000000040a002                strcat
                0x000000000040a031                strchrnul
                0x000000000040a056                strlcat
                0x000000000040a0e6                strncat
                0x000000000040a148                bcopy
                0x000000000040a175                bzero
                0x000000000040a196                strlen
                0x000000000040a1c4                strnlen
                0x000000000040a1ff                strpbrk
                0x000000000040a24d                strsep
                0x000000000040a2cb                strreplace
                0x000000000040a306                strcspn
                0x000000000040a3a5                strspn
                0x000000000040a444                strtok_r
                0x000000000040a52b                strtok
                0x000000000040a543                strchr
                0x000000000040a56f                memmove
                0x000000000040a5f0                memscan
                0x000000000040a624                strstr
 .text          0x000000000040a684       0x89 conio.o
                0x000000000040a684                putch
                0x000000000040a6a8                cputs
                0x000000000040a6dd                getch
                0x000000000040a6f5                getche
 .text          0x000000000040a70d       0xe0 socket.o
                0x000000000040a70d                listen
                0x000000000040a717                recv
                0x000000000040a721                send
                0x000000000040a72b                shutdown
                0x000000000040a735                socket
                0x000000000040a756                socket_pipe
                0x000000000040a777                socketpair
 .text          0x000000000040a7ed      0x142 signal.o
                0x000000000040a7ed                signal
                0x000000000040a7f5                sigaction
                0x000000000040a7ff                kill
                0x000000000040a809                raise
                0x000000000040a825                sigismember
                0x000000000040a871                killpg
                0x000000000040a87b                sigemptyset
                0x000000000040a88e                sigfillset
                0x000000000040a8a1                sigaddset
                0x000000000040a8e7                sigdelset
 .text          0x000000000040a92f      0x663 unistd.o
                0x000000000040a92f                execv
                0x000000000040a94d                execve
                0x000000000040a9ac                read_ttyList
                0x000000000040a9da                write_ttyList
                0x000000000040aa08                read_VC
                0x000000000040aa36                write_VC
                0x000000000040aa64                read
                0x000000000040aa8f                write
                0x000000000040aaba                exit
                0x000000000040aada                fast_fork
                0x000000000040ab02                fork
                0x000000000040ab38                sys_fork
                0x000000000040ab6e                setuid
                0x000000000040ab89                getuid
                0x000000000040aba4                geteuid
                0x000000000040abae                getpid
                0x000000000040abc6                getppid
                0x000000000040abde                getgid
                0x000000000040abf9                dup
                0x000000000040ac13                dup2
                0x000000000040ac2f                dup3
                0x000000000040ac4d                fcntl
                0x000000000040ac57                getpriority
                0x000000000040ac61                setpriority
                0x000000000040ac6b                nice
                0x000000000040ac75                pause
                0x000000000040ac7f                mkdir
                0x000000000040ac93                rmdir
                0x000000000040ac9d                link
                0x000000000040aca7                unlink
                0x000000000040acb1                mlock
                0x000000000040acbb                munlock
                0x000000000040acc5                mlockall
                0x000000000040accf                munlockall
                0x000000000040acd9                sysconf
                0x000000000040ace3                fsync
                0x000000000040aced                fdatasync
                0x000000000040acf7                open
                0x000000000040ad1d                close
                0x000000000040ad3b                pipe
                0x000000000040ad5c                fpathconf
                0x000000000040ad66                pathconf
                0x000000000040ad70                __gethostname
                0x000000000040ad9c                gethostname
                0x000000000040adc0                sethostname
                0x000000000040adde                getlogin
                0x000000000040ae0a                setlogin
                0x000000000040ae30                getusername
                0x000000000040aeaa                setusername
                0x000000000040af1e                ttyname
                0x000000000040af5b                ttyname_r
                0x000000000040af65                isatty
                0x000000000040af88                getopt
 .text          0x000000000040af92     0x21c6 api.o
                0x000000000040af92                system_call
                0x000000000040afba                gde_system
                0x000000000040b3c2                system1
                0x000000000040b3e3                system2
                0x000000000040b404                system3
                0x000000000040b425                system4
                0x000000000040b446                system5
                0x000000000040b467                system6
                0x000000000040b488                system7
                0x000000000040b4a9                system8
                0x000000000040b4ca                system9
                0x000000000040b4eb                system10
                0x000000000040b50c                system11
                0x000000000040b52d                system12
                0x000000000040b54e                system13
                0x000000000040b56f                system14
                0x000000000040b590                system15
                0x000000000040b5b1                gde_refresh_buffer
                0x000000000040b689                gde_print_string
                0x000000000040b68f                gde_vsync
                0x000000000040b6a7                gws_vsync
                0x000000000040b6b4                gde_system_procedure
                0x000000000040b6f7                __gde_set_cursor
                0x000000000040b711                __gde_put_char
                0x000000000040b717                gde_load_bitmap_16x16
                0x000000000040b730                gde_shutdown
                0x000000000040b737                gde_init_background
                0x000000000040b73d                gde_message_box
                0x000000000040ba42                mbProcedure
                0x000000000040bbfe                gde_dialog_box
                0x000000000040bfb9                dbProcedure
                0x000000000040c02f                call_kernel
                0x000000000040c157                call_gui
                0x000000000040c1ec                gde_create_window
                0x000000000040c265                gde_register_window
                0x000000000040c28d                gde_close_window
                0x000000000040c2b5                gde_set_focus
                0x000000000040c2dd                gde_get_focus
                0x000000000040c2f2                gde_kill_focus
                0x000000000040c31a                gde_set_active_window
                0x000000000040c342                gde_get_active_window
                0x000000000040c357                gde_show_current_process_info
                0x000000000040c36d                gde_resize_window
                0x000000000040c38a                gde_redraw_window
                0x000000000040c3a7                gde_replace_window
                0x000000000040c3c1                gde_maximize_window
                0x000000000040c3e0                gde_minimize_window
                0x000000000040c3ff                gde_update_window
                0x000000000040c421                gde_get_foregroung_window
                0x000000000040c437                gde_set_foregroung_window
                0x000000000040c453                gde_exit
                0x000000000040c470                gde_kill
                0x000000000040c476                gde_dead_thread_collector
                0x000000000040c48c                gde_strncmp
                0x000000000040c4ef                gde_show_backbuffer
                0x000000000040c505                gde_reboot
                0x000000000040c51e                gde_set_cursor
                0x000000000040c536                gde_get_cursor
                0x000000000040c53c                gde_get_cursor_x
                0x000000000040c557                gde_get_cursor_y
                0x000000000040c572                gde_get_client_area_rect
                0x000000000040c58a                gde_set_client_area_rect
                0x000000000040c5a9                gde_create_process
                0x000000000040c5c2                gde_create_thread
                0x000000000040c5db                gde_start_thread
                0x000000000040c5f7                gde_fopen
                0x000000000040c623                gde_save_file
                0x000000000040c676                gde_create_empty_file
                0x000000000040c6a0                gde_create_empty_directory
                0x000000000040c6ca                gde_down
                0x000000000040c71f                gde_up
                0x000000000040c774                gde_enter_critical_section
                0x000000000040c7af                gde_exit_critical_section
                0x000000000040c7c8                gde_p
                0x000000000040c7ce                gde_v
                0x000000000040c7d4                gde_initialize_critical_section
                0x000000000040c7ed                gde_begin_paint
                0x000000000040c7f8                gde_end_paint
                0x000000000040c803                gde_put_char
                0x000000000040c81f                gde_def_dialog
                0x000000000040c829                gde_get_system_metrics
                0x000000000040c847                gde_dialog
                0x000000000040c8e0                gde_getchar
                0x000000000040c8fb                gde_display_bmp
                0x000000000040cd02                gde_send_message_to_process
                0x000000000040cd45                gde_send_message_to_thread
                0x000000000040cd88                gde_send_message
                0x000000000040cdbe                gde_draw_text
                0x000000000040cdfd                gde_get_ws_screen_window
                0x000000000040ce15                gde_get_ws_main_window
                0x000000000040ce2d                gde_create_timer
                0x000000000040ce4d                gde_get_systime_info
                0x000000000040ce6e                gde_show_window
                0x000000000040ce8d                gde_start_terminal
                0x000000000040cf01                gde_update_statusbar
                0x000000000040cf1f                gde_get_pid
                0x000000000040cf4a                gde_get_screen_window
                0x000000000040cf65                gde_get_background_window
                0x000000000040cf80                gde_get_main_window
                0x000000000040cf9b                gde_getprocessname
                0x000000000040d018                gde_getthreadname
                0x000000000040d095                gde_get_process_stats
                0x000000000040d0b3                gde_get_thread_stats
                0x000000000040d0d1                gde_debug_print
                0x000000000040d0f3                gde_clone_and_execute
                0x000000000040d110                gde_setup_net_buffer
                0x000000000040d137                execute_new_process
 .text          0x000000000040d158      0x1cb builtins.o
                0x000000000040d158                cd_buitins
                0x000000000040d171                cls_builtins
                0x000000000040d17f                copy_builtins
                0x000000000040d198                date_builtins
                0x000000000040d1b1                del_builtins
                0x000000000040d1b7                dir_builtins
                0x000000000040d1f3                echo_builtins
                0x000000000040d20f                exec_builtins
                0x000000000040d228                exit_builtins
                0x000000000040d24e                getpid_builtins
                0x000000000040d260                getppid_builtins
                0x000000000040d272                getuid_builtins
                0x000000000040d284                getgid_builtins
                0x000000000040d296                help_builtins
                0x000000000040d307                pwd_builtins
 .text          0x000000000040d323       0x8d desktop.o
                0x000000000040d323                desktopInitialize
                0x000000000040d36c                desktopProcedure
                0x000000000040d389                shellStartDesktopMode
 .text          0x000000000040d3b0      0x44d login.o
                0x000000000040d3b0                loginCheckPassword
 .text          0x000000000040d7fd      0x190 tests.o
                0x000000000040d7fd                testsTimerUpdateObject
                0x000000000040d8d5                testsInitTimer
                0x000000000040d957                testScrollChar
 .text          0x000000000040d98d      0xa00 cmdline.o
                0x000000000040d98d                ShowPID
                0x000000000040d9b7                ShowPPID
                0x000000000040d9e1                ShowUID
                0x000000000040da0e                ShowGID
                0x000000000040da3b                ShowUserSessionID
                0x000000000040da68                ShowWindowStationID
                0x000000000040da95                ShowDesktopID
                0x000000000040dac2                shellShowProcessHeapPointer
                0x000000000040db09                shellShowKernelHeapPointer
                0x000000000040db44                shellShowDiskInfo
                0x000000000040db60                shellShowVolumeInfo
                0x000000000040db7c                shellShowMemoryInfo
                0x000000000040db98                shellShowPCIInfo
                0x000000000040dbb4                shellShowKernelInfo
                0x000000000040dbd0                shellExecuteThisScript
                0x000000000040dc7d                absolute_pathname
                0x000000000040dde3                shellInitPathname
                0x000000000040de33                shellInitFilename
                0x000000000040de83                shell_pathname_backup
                0x000000000040defa                shell_print_tokenList
                0x000000000040df9e                is_bin
                0x000000000040e00f                is_sh1
                0x000000000040e080                shellCheckPassword
                0x000000000040e08a                shellPrompt
                0x000000000040e113                shellShowExperienceMenu
                0x000000000040e12c                shellShowTestsMenu
                0x000000000040e145                shellTree
                0x000000000040e15e                shellThread
                0x000000000040e1dd                shellPipeTest
                0x000000000040e222                shellSocketTest
 .text          0x000000000040e38d       0x43 input.o
                0x000000000040e38d                host_get_message
 .text          0x000000000040e3d0      0xd37 terminal.o
                0x000000000040e3d0                terminalInsertNextChar
                0x000000000040e3fe                terminalInsertNullTerminator
                0x000000000040e40e                terminalInsertLF
                0x000000000040e41e                terminalInsertCR
                0x000000000040e42e                lf
                0x000000000040e452                cr
                0x000000000040e462                ri
                0x000000000040e468                del
                0x000000000040e4a4                terminalGetCharXY
                0x000000000040e4d7                terminalInsertCharXY
                0x000000000040e560                terminalRefreshCurrentChar2
                0x000000000040e609                terminalRefreshCurrentChar
                0x000000000040e6c3                terminalRefreshChar
                0x000000000040e71f                terminalRefreshLine
                0x000000000040e795                terminalRefreshScreen
                0x000000000040e8a0                terminalClearScreen
                0x000000000040e928                terminalSetCursor
                0x000000000040e9b1                terminalClearBuffer
                0x000000000040ea5b                terminalShowScreenBuffer
                0x000000000040ea69                terminalRefreshVisibleArea
                0x000000000040eb24                updateVisibleArea
                0x000000000040ebb0                terminalNewVisibleArea
                0x000000000040ec07                testChangeVisibleArea
                0x000000000040ec31                testShowLines
                0x000000000040ecce                clearLine
                0x000000000040ed3d                textSetTopRow
                0x000000000040ed4b                textGetTopRow
                0x000000000040ed55                textSetBottomRow
                0x000000000040ed63                textGetBottomRow
                0x000000000040ed6d                textSetCurrentRow
                0x000000000040ed7b                textGetCurrentRow
                0x000000000040ed85                textSetCurrentCol
                0x000000000040ed93                textGetCurrentCol
                0x000000000040ed9d                move_to
                0x000000000040edc9                pad_to
                0x000000000040ee1b                terminal_clear_from_startofline
                0x000000000040ee7b                terminal_clear_to_endofline
                0x000000000040eece                terminal_clear_to_endofdisplay
                0x000000000040efe3                terminalCopyToScroll
                0x000000000040f044                terminal_scroll_display
                0x000000000040f0d7                terminal_scroll_down
                0x000000000040f0ef                terminal_scroll_up
 .text          0x000000000040f107      0x74c termui.o
                0x000000000040f107                termui_fntos
                0x000000000040f221                terminalTopbarProcedure
                0x000000000040f372                terminalCreateEditBox
                0x000000000040f3e0                terminalCreateMainWindow
                0x000000000040f4aa                terminalCreateWindow
                0x000000000040f53c                terminalDisplayBMP
                0x000000000040f5b0                terminalDisplayBMPEx
                0x000000000040f63c                terminalTestDisplayBMP
                0x000000000040f69e                bmpDisplayBMP
                0x000000000040f6bb                terminalCreateTaskBar
                0x000000000040f6c5                terminalTestButtons
 .text          0x000000000040f853      0x165 termios.o
                0x000000000040f853                tcgetattr
                0x000000000040f871                tcsetattr
                0x000000000040f8ea                tcsendbreak
                0x000000000040f8f4                tcdrain
                0x000000000040f8fe                tcflush
                0x000000000040f908                tcflow
                0x000000000040f912                cfmakeraw
                0x000000000040f984                cfgetispeed
                0x000000000040f98f                cfgetospeed
                0x000000000040f99a                cfsetispeed
                0x000000000040f9a4                cfsetospeed
                0x000000000040f9ae                cfsetspeed
 .text          0x000000000040f9b8       0x3d ioctl.o
                0x000000000040f9b8                ioctl
                0x0000000000410000                . = ALIGN (0x1000)
 *fill*         0x000000000040f9f5      0x60b 

.iplt           0x0000000000410000        0x0
 .iplt          0x0000000000410000        0x0 crt0.o

.rodata         0x0000000000410000     0x8315
 .rodata        0x0000000000410000      0x875 crt0.o
 *fill*         0x0000000000410875        0xb 
 .rodata        0x0000000000410880     0x2012 main.o
 *fill*         0x0000000000412892        0xe 
 .rodata        0x00000000004128a0      0x100 ctype.o
                0x00000000004128a0                _ctype
 .rodata        0x00000000004129a0      0x489 stdio.o
                0x0000000000412c60                hex2ascii_data
 *fill*         0x0000000000412e29        0x7 
 .rodata        0x0000000000412e30      0x520 stdlib.o
 .rodata        0x0000000000413350        0x6 conio.o
 .rodata        0x0000000000413356       0x12 socket.o
 .rodata        0x0000000000413368      0x1d4 signal.o
 .rodata        0x000000000041353c       0x89 unistd.o
 *fill*         0x00000000004135c5        0x3 
 .rodata        0x00000000004135c8      0x505 api.o
 *fill*         0x0000000000413acd       0x13 
 .rodata        0x0000000000413ae0      0x873 builtins.o
 *fill*         0x0000000000414353        0xd 
 .rodata        0x0000000000414360      0x88a desktop.o
 *fill*         0x0000000000414bea       0x16 
 .rodata        0x0000000000414c00      0x905 login.o
 *fill*         0x0000000000415505       0x1b 
 .rodata        0x0000000000415520      0x818 tests.o
 *fill*         0x0000000000415d38        0x8 
 .rodata        0x0000000000415d40      0xa11 cmdline.o
 *fill*         0x0000000000416751        0xf 
 .rodata        0x0000000000416760      0x7f0 input.o
 *fill*         0x0000000000416f50       0x10 
 .rodata        0x0000000000416f60      0x8ce terminal.o
 *fill*         0x000000000041782e       0x12 
 .rodata        0x0000000000417840      0xad5 termui.o

.eh_frame       0x0000000000418318     0x45f0
 .eh_frame      0x0000000000418318       0x34 crt0.o
 .eh_frame      0x000000000041834c      0x6a8 main.o
                                        0x6c0 (size before relaxing)
 .eh_frame      0x00000000004189f4       0x24 stubs.o
                                         0x3c (size before relaxing)
 .eh_frame      0x0000000000418a18      0xde8 stdio.o
                                        0xe00 (size before relaxing)
 .eh_frame      0x0000000000419800      0x600 stdlib.o
                                        0x618 (size before relaxing)
 .eh_frame      0x0000000000419e00      0x4c0 string.o
                                        0x4d8 (size before relaxing)
 .eh_frame      0x000000000041a2c0       0xa0 conio.o
                                         0xb8 (size before relaxing)
 .eh_frame      0x000000000041a360       0xe0 socket.o
                                         0xf8 (size before relaxing)
 .eh_frame      0x000000000041a440      0x14c signal.o
                                        0x164 (size before relaxing)
 .eh_frame      0x000000000041a58c      0x6a0 unistd.o
                                        0x6b8 (size before relaxing)
 .eh_frame      0x000000000041ac2c      0xdac api.o
                                        0xdc4 (size before relaxing)
 .eh_frame      0x000000000041b9d8      0x1e0 builtins.o
                                        0x1f8 (size before relaxing)
 .eh_frame      0x000000000041bbb8       0x60 desktop.o
                                         0x78 (size before relaxing)
 .eh_frame      0x000000000041bc18       0x20 login.o
                                         0x38 (size before relaxing)
 .eh_frame      0x000000000041bc38       0x68 tests.o
                                         0x80 (size before relaxing)
 .eh_frame      0x000000000041bca0      0x3c4 cmdline.o
                                        0x3dc (size before relaxing)
 .eh_frame      0x000000000041c064       0x20 input.o
                                         0x38 (size before relaxing)
 .eh_frame      0x000000000041c084      0x584 terminal.o
                                        0x59c (size before relaxing)
 .eh_frame      0x000000000041c608      0x160 termui.o
                                        0x178 (size before relaxing)
 .eh_frame      0x000000000041c768      0x180 termios.o
                                        0x198 (size before relaxing)
 .eh_frame      0x000000000041c8e8       0x20 ioctl.o
                                         0x38 (size before relaxing)

.rel.dyn        0x000000000041c908        0x0
 .rel.got       0x000000000041c908        0x0 crt0.o
 .rel.iplt      0x000000000041c908        0x0 crt0.o
 .rel.text      0x000000000041c908        0x0 crt0.o

.data           0x000000000041c920     0x36e0
                0x000000000041c920                data = .
                0x000000000041c920                _data = .
                0x000000000041c920                __data = .
 *(.data)
 .data          0x000000000041c920      0x4c8 crt0.o
 *fill*         0x000000000041cde8       0x18 
 .data          0x000000000041ce00      0x538 main.o
                0x000000000041d294                __embedded_shell
                0x000000000041d298                running
                0x000000000041d29c                primary_prompt
                0x000000000041d2a0                secondary_prompt
                0x000000000041d2a4                mainwindow_used
                0x000000000041d2a8                remember_on_history
                0x000000000041d2ac                current_command_number
                0x000000000041d2b0                bashrc_file
                0x000000000041d2b4                shell_config_file
                0x000000000041d2c0                long_args
 .data          0x000000000041d338        0x0 stubs.o
 .data          0x000000000041d338        0x0 ctype.o
 .data          0x000000000041d338        0x0 stdio.o
 .data          0x000000000041d338        0x8 stdlib.o
                0x000000000041d338                _infinity
 .data          0x000000000041d340        0x0 string.o
 .data          0x000000000041d340        0x0 conio.o
 .data          0x000000000041d340        0x0 socket.o
 .data          0x000000000041d340       0x80 signal.o
                0x000000000041d340                sys_siglist
 .data          0x000000000041d3c0        0x0 unistd.o
 .data          0x000000000041d3c0      0x440 api.o
 .data          0x000000000041d800      0x492 builtins.o
 *fill*         0x000000000041dc92        0xe 
 .data          0x000000000041dca0      0x49c desktop.o
                0x000000000041e134                primary_desktop_folder
                0x000000000041e138                secondary_desktop_folder
 *fill*         0x000000000041e13c        0x4 
 .data          0x000000000041e140      0x492 login.o
 *fill*         0x000000000041e5d2        0xe 
 .data          0x000000000041e5e0      0x498 tests.o
                0x000000000041ea74                deltaValue
 *fill*         0x000000000041ea78        0x8 
 .data          0x000000000041ea80      0x492 cmdline.o
 *fill*         0x000000000041ef12        0xe 
 .data          0x000000000041ef20      0x492 input.o
 *fill*         0x000000000041f3b2        0xe 
 .data          0x000000000041f3c0      0x492 terminal.o
 *fill*         0x000000000041f852        0xe 
 .data          0x000000000041f860      0x492 termui.o
 .data          0x000000000041fcf2        0x0 termios.o
 .data          0x000000000041fcf2        0x0 ioctl.o
                0x0000000000420000                . = ALIGN (0x1000)
 *fill*         0x000000000041fcf2      0x30e 

.got            0x0000000000420000        0x0
 .got           0x0000000000420000        0x0 crt0.o

.got.plt        0x0000000000420000        0x0
 .got.plt       0x0000000000420000        0x0 crt0.o

.igot.plt       0x0000000000420000        0x0
 .igot.plt      0x0000000000420000        0x0 crt0.o

.bss            0x0000000000420000    0x17784
                0x0000000000420000                bss = .
                0x0000000000420000                _bss = .
                0x0000000000420000                __bss = .
 *(.bss)
 .bss           0x0000000000420000        0x8 crt0.o
 *fill*         0x0000000000420008       0x18 
 .bss           0x0000000000420020      0x18c main.o
                0x0000000000420020                __sequence_status
                0x0000000000420024                __csi_buffer_tail
                0x0000000000420028                __csi_buffer_head
                0x000000000042002c                _init_app
                0x0000000000420030                ShellFlag
                0x0000000000420034                shellStatus
                0x0000000000420038                shellError
                0x000000000042003c                executing
                0x0000000000420040                script_shell
                0x0000000000420044                interactive
                0x0000000000420048                login_shell
                0x000000000042004c                taskbar
                0x0000000000420050                gws
                0x0000000000420054                desktop
                0x0000000000420058                login_status
                0x000000000042005c                global_command
                0x0000000000420060                interrupt_state
                0x0000000000420064                current_user_name
                0x0000000000420068                current_host_name
                0x000000000042006c                restricted
                0x0000000000420070                debugging_login_shell
                0x0000000000420074                indirection_level
                0x0000000000420078                shell_level
                0x000000000042007c                act_like_sh
                0x0000000000420080                debugging
                0x0000000000420084                no_rc
                0x0000000000420088                no_profile
                0x000000000042008c                do_version
                0x0000000000420090                quiet
                0x0000000000420094                make_login_shell
                0x0000000000420098                no_line_editing
                0x000000000042009c                no_brace_expansion
 .bss           0x00000000004201ac        0x0 stubs.o
 .bss           0x00000000004201ac        0x0 ctype.o
 .bss           0x00000000004201ac        0x9 stdio.o
 *fill*         0x00000000004201b5        0xb 
 .bss           0x00000000004201c0     0x8020 stdlib.o
                0x00000000004201c0                environ
 .bss           0x00000000004281e0        0x4 string.o
 .bss           0x00000000004281e4        0x0 conio.o
 .bss           0x00000000004281e4        0x0 socket.o
 .bss           0x00000000004281e4        0x0 signal.o
 *fill*         0x00000000004281e4       0x1c 
 .bss           0x0000000000428200      0x11f unistd.o
                0x0000000000428200                __execv_environ
 *fill*         0x000000000042831f        0x1 
 .bss           0x0000000000428320     0x8004 api.o
 .bss           0x0000000000430324        0x8 builtins.o
 .bss           0x000000000043032c        0xc desktop.o
                0x000000000043032c                desktop_running
 .bss           0x0000000000430338        0x8 login.o
 .bss           0x0000000000430340        0x8 tests.o
 .bss           0x0000000000430348        0x8 cmdline.o
 .bss           0x0000000000430350        0x8 input.o
 .bss           0x0000000000430358        0x8 terminal.o
 .bss           0x0000000000430360        0x8 termui.o
 .bss           0x0000000000430368        0x0 termios.o
 .bss           0x0000000000430368        0x0 ioctl.o
                0x0000000000431000                . = ALIGN (0x1000)
 *fill*         0x0000000000430368      0xc98 
 COMMON         0x0000000000431000     0x58e0 crt0.o
                0x0000000000431000                __barheight
                0x0000000000431004                g_cursor_x
                0x0000000000431008                __bartop
                0x000000000043100c                CurrentWindow
                0x0000000000431010                backgroung_color
                0x0000000000431014                wsWindowHeight
                0x0000000000431018                taskbar_window
                0x000000000043101c                stdout
                0x0000000000431020                screen_buffer_y
                0x0000000000431024                __barwidth
                0x0000000000431028                wlFullScreenLeft
                0x000000000043102c                __libc_tty_id
                0x0000000000431030                __barleft
                0x0000000000431034                __bgheight
                0x0000000000431038                close_button
                0x000000000043103c                smCursorHeight
                0x0000000000431040                pathname_buffer
                0x0000000000431080                textCurrentRow
                0x0000000000431084                g_char_attrib
                0x0000000000431088                g_rows
                0x000000000043108c                app4_button
                0x0000000000431090                smMousePointerWidth
                0x0000000000431094                smMousePointerHeight
                0x0000000000431098                filename_buffer
                0x00000000004310c0                Streams
                0x0000000000431140                textWheelDelta
                0x0000000000431144                app1_button
                0x0000000000431148                g_using_gui
                0x000000000043114c                wlMinRows
                0x0000000000431150                current_volume_string
                0x0000000000431154                ShellMetrics
                0x0000000000431158                smCharHeight
                0x000000000043115c                ApplicationInfo
                0x0000000000431160                foregroung_color
                0x0000000000431180                prompt_out
                0x0000000000431580                shell_info
                0x0000000000431598                BufferInfo
                0x000000000043159c                ShellHook
                0x00000000004315a0                lineList
                0x00000000004335a0                wlMaxWindowHeight
                0x00000000004335a4                textCurrentCol
                0x00000000004335a8                textSavedCol
                0x00000000004335ac                current_volume_id
                0x00000000004335b0                smCharWidth
                0x00000000004335b4                g_current_workingdirectory_id
                0x00000000004335b8                wlFullScreenHeight
                0x00000000004335bc                textTopRow
                0x00000000004335c0                textMinWheelDelta
                0x00000000004335c4                g_columns
                0x00000000004335c8                prompt_pos
                0x00000000004335cc                stdin
                0x00000000004335d0                pathname_lenght
                0x00000000004335d4                __wlMaxColumns
                0x00000000004335d8                wlMinWindowHeight
                0x00000000004335dc                textBottomRow
                0x00000000004335e0                wlMinColumns
                0x00000000004335e4                prompt_status
                0x00000000004335e8                pwd_initialized
                0x00000000004335ec                root
                0x00000000004335f0                CurrentCommand
                0x00000000004335f4                screen_buffer_x
                0x00000000004335f8                wlMinWindowWidth
                0x00000000004335fc                CommandHistory
                0x0000000000433600                app3_button
                0x0000000000433620                prompt_err
                0x0000000000433a20                __bgwidth
                0x0000000000433a24                pwd
                0x0000000000433a40                screen_buffer
                0x0000000000434e44                reboot_button
                0x0000000000434e48                dummycompiler
                0x0000000000434e4c                smScreenWidth
                0x0000000000434e50                textMaxWheelDelta
                0x0000000000434e54                CursorInfo
                0x0000000000434e58                __bgleft
                0x0000000000434e5c                app2_button
                0x0000000000434e60                smScreenHeight
                0x0000000000434e64                wlMaxWindowWidth
                0x0000000000434e68                screen_buffer_pos
                0x0000000000434e6c                smCursorWidth
                0x0000000000434e70                __bgtop
                0x0000000000434e74                wpWindowLeft
                0x0000000000434e78                terminal_rect
                0x0000000000434e88                taskbar_button1
                0x0000000000434e8c                stderr
                0x0000000000434e90                wlFullScreenTop
                0x0000000000434e94                wsWindowWidth
                0x0000000000434e98                g_current_disk_id
                0x0000000000434e9c                editboxWindow
                0x0000000000434ea0                prompt
                0x00000000004352a0                EOF_Reached
                0x00000000004352a4                g_cursor_y
                0x00000000004352c0                screenbufferList
                0x00000000004352e0                ClientAreaInfo
                0x00000000004352e4                pathname_initilized
                0x00000000004352e8                wpWindowTop
                0x00000000004352ec                filename_lenght
                0x00000000004352f0                current_semaphore
                0x00000000004352f4                wlFullScreenWidth
                0x00000000004352f8                prompt_max
                0x00000000004352fc                __wlMaxRows
                0x0000000000435300                textSavedRow
                0x0000000000435304                filename_initilized
                0x0000000000435320                LINES
                0x00000000004368a0                g_current_volume_id
                0x00000000004368c0                current_workingdiretory_string
 COMMON         0x00000000004368e0      0x4e4 main.o
                0x00000000004368e0                line_buffer_tail
                0x00000000004368e4                password
                0x00000000004368f0                client_background_window
                0x00000000004368f4                username
                0x0000000000436900                bar_button_1
                0x0000000000436904                line_buffer_head
                0x0000000000436908                main_window
                0x000000000043690c                shell_environment
                0x0000000000436910                script_name
                0x0000000000436914                shell_name
                0x0000000000436918                bar_button_2
                0x000000000043691c                build_version
                0x0000000000436920                client_window
                0x0000000000436924                client_bar_Window
                0x0000000000436928                headless
                0x000000000043692c                dist_version
                0x0000000000436930                line_buffer_buffersize
                0x0000000000436940                LINE_BUFFER
                0x0000000000436d40                CSI_BUFFER
                0x0000000000436dc0                bar_button_3
 COMMON         0x0000000000436dc4        0x0 stdio.o
 *fill*         0x0000000000436dc4       0x1c 
 COMMON         0x0000000000436de0      0x8b8 stdlib.o
                0x0000000000436de0                mm_prev_pointer
                0x0000000000436e00                mmblockList
                0x0000000000437200                last_valid
                0x0000000000437220                heapList
                0x0000000000437620                libcHeap
                0x0000000000437624                randseed
                0x0000000000437628                heap_start
                0x000000000043762c                g_available_heap
                0x0000000000437630                g_heap_pointer
                0x0000000000437634                HEAP_SIZE
                0x0000000000437638                mmblockCount
                0x000000000043763c                last_size
                0x0000000000437640                __ptsname_buffer
                0x0000000000437680                heap_end
                0x0000000000437684                HEAP_END
                0x0000000000437688                Heap
                0x000000000043768c                current_mmblock
                0x0000000000437690                heapCount
                0x0000000000437694                HEAP_START
 *fill*         0x0000000000437698        0x8 
 COMMON         0x00000000004376a0       0xa4 unistd.o
                0x00000000004376a0                errno
                0x00000000004376a4                optarg
                0x00000000004376a8                opterr
                0x00000000004376ac                my__p
                0x00000000004376b0                optind
                0x00000000004376c0                __Hostname_buffer
                0x0000000000437700                __Login_buffer
                0x0000000000437740                optopt
 COMMON         0x0000000000437744       0x18 api.o
                0x0000000000437744                dialogbox_button2
                0x0000000000437748                messagebox_button1
                0x000000000043774c                dialogbox_button1
                0x0000000000437750                first_responder
                0x0000000000437754                __mb_current_button
                0x0000000000437758                messagebox_button2
 COMMON         0x000000000043775c       0x17 login.o
                0x000000000043775c                xxxpassword
                0x0000000000437768                xxxusername
 *fill*         0x0000000000437773        0x1 
 COMMON         0x0000000000437774       0x10 tests.o
                0x0000000000437774                objectY
                0x0000000000437778                deltaY
                0x000000000043777c                objectX
                0x0000000000437780                deltaX
                0x0000000000437784                end = .
                0x0000000000437784                _end = .
                0x0000000000437784                __end = .
LOAD crt0.o
LOAD main.o
LOAD stubs.o
LOAD ctype.o
LOAD stdio.o
LOAD stdlib.o
LOAD string.o
LOAD conio.o
LOAD socket.o
LOAD signal.o
LOAD unistd.o
LOAD api.o
LOAD builtins.o
LOAD desktop.o
LOAD login.o
LOAD tests.o
LOAD cmdline.o
LOAD input.o
LOAD terminal.o
LOAD termui.o
LOAD termios.o
LOAD ioctl.o
OUTPUT(NORATERM.BIN elf32-i386)

.comment        0x0000000000000000       0x11
 .comment       0x0000000000000000       0x11 crt0.o
                                         0x12 (size before relaxing)
 .comment       0x0000000000000011       0x12 main.o
 .comment       0x0000000000000011       0x12 stubs.o
 .comment       0x0000000000000011       0x12 ctype.o
 .comment       0x0000000000000011       0x12 stdio.o
 .comment       0x0000000000000011       0x12 stdlib.o
 .comment       0x0000000000000011       0x12 string.o
 .comment       0x0000000000000011       0x12 conio.o
 .comment       0x0000000000000011       0x12 socket.o
 .comment       0x0000000000000011       0x12 signal.o
 .comment       0x0000000000000011       0x12 unistd.o
 .comment       0x0000000000000011       0x12 api.o
 .comment       0x0000000000000011       0x12 builtins.o
 .comment       0x0000000000000011       0x12 desktop.o
 .comment       0x0000000000000011       0x12 login.o
 .comment       0x0000000000000011       0x12 tests.o
 .comment       0x0000000000000011       0x12 cmdline.o
 .comment       0x0000000000000011       0x12 input.o
 .comment       0x0000000000000011       0x12 terminal.o
 .comment       0x0000000000000011       0x12 termui.o
 .comment       0x0000000000000011       0x12 termios.o
 .comment       0x0000000000000011       0x12 ioctl.o

.note.GNU-stack
                0x0000000000000000        0x0
 .note.GNU-stack
                0x0000000000000000        0x0 crt0.o
 .note.GNU-stack
                0x0000000000000000        0x0 main.o
 .note.GNU-stack
                0x0000000000000000        0x0 stubs.o
 .note.GNU-stack
                0x0000000000000000        0x0 ctype.o
 .note.GNU-stack
                0x0000000000000000        0x0 stdio.o
 .note.GNU-stack
                0x0000000000000000        0x0 stdlib.o
 .note.GNU-stack
                0x0000000000000000        0x0 string.o
 .note.GNU-stack
                0x0000000000000000        0x0 conio.o
 .note.GNU-stack
                0x0000000000000000        0x0 socket.o
 .note.GNU-stack
                0x0000000000000000        0x0 signal.o
 .note.GNU-stack
                0x0000000000000000        0x0 unistd.o
 .note.GNU-stack
                0x0000000000000000        0x0 api.o
 .note.GNU-stack
                0x0000000000000000        0x0 builtins.o
 .note.GNU-stack
                0x0000000000000000        0x0 desktop.o
 .note.GNU-stack
                0x0000000000000000        0x0 login.o
 .note.GNU-stack
                0x0000000000000000        0x0 tests.o
 .note.GNU-stack
                0x0000000000000000        0x0 cmdline.o
 .note.GNU-stack
                0x0000000000000000        0x0 input.o
 .note.GNU-stack
                0x0000000000000000        0x0 terminal.o
 .note.GNU-stack
                0x0000000000000000        0x0 termui.o
 .note.GNU-stack
                0x0000000000000000        0x0 termios.o
 .note.GNU-stack
                0x0000000000000000        0x0 ioctl.o
