
Allocating common symbols
Common symbol       size              file

framepoolBackBuffer3
                    0x10              main.o
guiMenu             0x10              main.o
usessionList        0x40              main.o
terminalOffsetMax   0x10              main.o
g_backbuffer_va     0x10              main.o
g_module_volume_initialized
                    0x10              main.o
server_stdio        0x10              main.o
menuList            0x400             main.o
Graphics            0x10              main.o
framepoolList       0x1000            main.o
dispatcherType      0x10              main.o
pci_handler_address
                    0x10              main.o
timerTicks          0x10              timer.o
_write_offset       0x10              keyboard.o
mainButton3         0x10              main.o
zicaaaaadasf        0x10              main.o
IdleThread          0x10              main.o
contextESP          0x10              context.o
Irq9                0x10              main.o
ld_keyboard_queue   0x10              main.o
g_frontbuffer_va    0x10              main.o
clientCW            0x10              main.o
userconfig_Status   0x10              main.o
prompt              0x100             main.o
contextEDX          0x10              context.o
MenuBar             0x10              main.o
semaforo_color      0x10              main.o
g_module_debug_initialized
                    0x10              main.o
threadList          0x400             main.o
pci_device          0x10              main.o
g_module_disk_initialized
                    0x10              main.o
EDITBOX_LARGURA     0x10              main.o
terminalOffset      0x10              main.o
CurrentVolumeInfo   0x10              main.o
kernel_heap_end     0x10              main.o
scrolllock_status   0x10              ldisc.o
screenGrid          0x200             main.o
windowzoneStart     0x10              main.o
partition           0x10              main.o
input_line          0x10              main.o
gsrcDir             0x10              main.o
cwArg1              0x10              services.o
fatbits             0x10              main.o
g9x14fontAddress    0x10              main.o
framepoolBackBuffer2
                    0x10              main.o
CurrentChannel      0x10              main.o
task_switch_status  0x10              main.o
systemzoneEnd       0x10              main.o
CurrentConsole      0x10              main.o
lineOffsetMax       0x10              main.o
delta_x             0x10              ldisc.o
serverSP            0x10              main.o
wsDefault           0x10              main.o
LocalHostHTTPSocket
                    0x10              main.o
GRID                0x10              main.o
ip_address          0x10              main.o
preempted_task      0x10              main.o
ActiveWindow        0x10              main.o
mouse_buttom_3      0x10              ldisc.o
screen_height       0x10              screen.o
capslock_status     0x10              ldisc.o
KernelArgs          0x10              main.o
contextFS           0x10              context.o
Irq5                0x10              main.o
contextDS           0x10              context.o
Irq13               0x10              main.o
cwArg2              0x10              services.o
terminalWindowWithFocus
                    0x10              main.o
Irq2                0x10              main.o
pcideviceList       0x80              main.o
IpcProcedure        0x10              main.o
contextESI          0x10              context.o
file_root           0x10              main.o
g_navigationbar_height
                    0x10              main.o
keyboard_message_head
                    0x10              main.o
file_Idle           0x10              main.o
windowstations_count
                    0x10              main.o
pmiMemoryInfo       0x10              main.o
usersDir            0x10              main.o
TaskManThread       0x10              main.o
Irq15               0x10              main.o
g_module_fs_initialized
                    0x10              main.o
framepoolBackBuffer4
                    0x10              main.o
g_driver_hdd_initialized
                    0x10              main.o
g9x16fontAddress    0x10              main.o
systemzoneStart     0x10              main.o
waiting_procs       0x10              main.o
EDITBOX_BG_COLOR    0x10              main.o
running_tasks       0x10              main.o
_io_table           0x50              main.o
desktop_Conductor2  0x10              main.o
g_device_screen_width
                    0x10              main.o
desktop_rootConductor
                    0x10              main.o
cwArg11             0x10              services.o
fsbFrames           0x1000            main.o
g_user_space_framepool_index
                    0x10              main.o
Initialization      0x20              main.o
Console             0x10              main.o
systemzoneSize      0x10              main.o
rtcError            0x10              rtc.o
zorderCounter       0x10              main.o
mmFramesSuperBlockTotalUsed
                    0x10              main.o
quantum             0x10              main.o
stderr              0x10              main.o
g_mainwindow_width  0x10              main.o
cur_process         0x10              main.o
CurrentWindowStation
                    0x10              main.o
waiting_list_head   0x10              main.o
FileAccess          0x10              main.o
tmpDir              0x10              main.o
rtcTicks            0x10              rtc.o
g_logged            0x10              main.o
file_TaskMan        0x10              main.o
RGBA                0x10              main.o
desktop0            0x10              main.o
processNewPID       0x10              process.o
cwArg8              0x10              services.o
blocked_list_head   0x10              main.o
gui                 0x10              main.o
CurrentUserSession  0x10              main.o
STATUS_X            0x10              main.o
g_device_screen_height
                    0x10              main.o
g_mousepointer_height
                    0x10              main.o
g_module_uem_initialized
                    0x10              main.o
current_tab         0x10              main.o
processor           0x10              main.o
userList            0x40              main.o
prompt_pos          0x10              main.o
cwArg3              0x10              services.o
Irq10               0x10              main.o
Conductor           0x10              main.o
ide_handler_address
                    0x10              main.o
Process             0x10              main.o
mbr                 0x10              main.o
volumeinfo          0x10              main.o
CurrentTerminal     0x10              main.o
current_mmblock     0x10              main.o
deviceList          0x400             main.o
ASpace              0x10              main.o
objects_um          0x3840            main.o
BootLoader          0x10              main.o
downloadDir         0x10              main.o
localsstuff1        0x10              microkernel.o
mmFramesSuperBlockSize
                    0x10              main.o
kernel_stack_start  0x10              main.o
Rtc                 0x10              main.o
STATUS_Y            0x10              main.o
caller_process_id   0x10              process.o
start_new_task_address
                    0x10              main.o
g_module_gui_initialized
                    0x10              main.o
KeInitPhase         0x10              main.o
BROWSERWINDOW       0x10              main.o
windows_count       0x10              main.o
timerColor          0x10              timer.o
pagetableList       0x1000            main.o
combobox_window     0x10              main.o
framepoolBackBuffer1
                    0x10              main.o
g_driver_video_initialized
                    0x10              main.o
active_window       0x10              main.o
objects_km          0x3840            main.o
vfs                 0x10              main.o
current_pci_device  0x10              main.o
Hardware            0x10              main.o
DefaultUserSession  0x10              main.o
mm_prev_pointer     0x10              memory.o
cwArg9              0x10              services.o
current_process     0x10              main.o
mmglobalInitialingVAR
                    0x10              main.o
current_desktop     0x10              main.o
picError            0x10              pic.o
gsdkDir             0x10              main.o
Cursor              0x10              main.o
numlock_status      0x10              ldisc.o
requestList         0x80              main.o
usession0           0x10              main.o
videoError          0x10              video.o
CurrentSocket       0x10              main.o
TaskBar             0x10              main.o
g_module_logoff_initialized
                    0x10              main.o
pagetableCurrent    0x10              main.o
terminalList        0x20              main.o
ws2                 0x10              main.o
usession_Conductor  0x10              main.o
g8x14fontAddress    0x10              main.o
Irq12               0x10              main.o
timerStatus         0x10              timer.o
mainButton1         0x10              main.o
scStatus            0x10              main.o
stdin               0x10              main.o
buffer_dir_entry    0x200             main.o
g_frontbuffer_pa    0x10              main.o
mmFramesSuperBlockTotalFree
                    0x10              main.o
gcharWidth          0x10              main.o
logonMenu           0x10              main.o
file_BootLoader     0x10              main.o
socketList          0x80              main.o
g_module_logon_initialized
                    0x10              main.o
client_stderr       0x10              main.o
next_address        0x10              main.o
destroy_window      0x10              main.o
dispatcherQueueIndex
                    0x10              main.o
kernel_heap_start   0x10              main.o
g8x16fontAddress    0x10              main.o
g_current_object    0x10              main.o
PrideColorScheme    0x10              main.o
mac_address         0x10              main.o
SystemDiskInfo      0x10              main.o
queue               0x10              main.o
DispatchCountBlock  0x10              main.o
cwArg10             0x10              services.o
shift_status        0x10              ldisc.o
gfontAddress        0x10              main.o
currentDir          0x10              main.o
gdocsDir            0x10              main.o
kernel_stack_start_pa
                    0x10              main.o
rect                0x10              main.o
partition_chars     0x10              main.o
logonStatus         0x10              main.o
current_window      0x10              main.o
framepoolFrontBuffer3
                    0x10              main.o
BootManager         0x10              main.o
g_available_heap    0x10              main.o
start_new_task_id   0x10              main.o
process_Conductor2  0x10              main.o
alt_status          0x10              ldisc.o
schedulerType       0x10              main.o
g_cursor_width      0x10              main.o
g_new_message       0x10              main.o
KernelInfo          0x10              main.o
Firmware            0x10              main.o
file_BootManager    0x10              main.o
current_keyboard_responder
                    0x10              main.o
system_message_write
                    0x10              main.o
semaforo_priority   0x10              main.o
kbMsgStatus         0x10              ldisc.o
g_module_objectmanager_initialized
                    0x10              main.o
terminalActiveWindow
                    0x10              main.o
windowstationList   0x40              main.o
zorderTopWindow     0x10              main.o
g_current_framepool
                    0x10              main.o
picStatus           0x10              pic.o
DefaultUser         0x10              main.o
task_color          0x10              main.o
framepoolFrontBuffer1
                    0x10              main.o
contextEIP          0x10              context.o
heapCount           0x10              main.o
windowzoneEnd       0x10              main.o
Thread              0x10              main.o
g_pagedpool_va      0x10              main.o
ProcessorBlock      0x30              main.o
current_mouse_responder
                    0x10              main.o
pagedirectoryIdleProcess
                    0x10              main.o
TABWINDOW           0x10              main.o
client_stdio        0x10              main.o
KernelRequests      0x10              main.o
EDITBOX_ALTURA      0x10              main.o
usersession_start   0x10              main.o
g_cursor_top        0x10              main.o
CurrentProcedure    0x10              main.o
mmFramesSuperBlockTotal
                    0x10              main.o
periodic_procs      0x10              main.o
g_inputmode         0x10              main.o
UserHeap            0x10              main.o
keyboard_handler_address
                    0x10              main.o
SystemVolume        0x10              main.o
kernel_stack_end    0x10              main.o
file_Kernel         0x10              main.o
g_object_manager_status
                    0x10              main.o
g_cursor_right      0x10              main.o
desktop_Conductor   0x10              main.o
cwFlag              0x10              services.o
ring0_exported      0x10              main.o
InitProcess         0x10              main.o
microkernelStatus   0x10              main.o
zones               0x10              main.o
lineBuffer          0x10              main.o
miMemoryInfo        0x10              main.o
desktopDefault      0x10              main.o
g_module_runtime_initialized
                    0x10              main.o
screen_width        0x10              screen.o
process_info_t      0x10              main.o
VersionInfo         0x10              main.o
system_procs        0x10              main.o
window_with_focus   0x10              main.o
g_proc_status       0x10              main.o
framepoolCurrent    0x10              main.o
desktopList         0x40              main.o
gbuildDir           0x10              main.o
gNextKeyboardMessage
                    0x10              main.o
pagedirectoryShared
                    0x10              main.o
g_spc               0x10              main.o
cwArg12             0x10              services.o
KernelHeap          0x10              main.o
Signal              0x10              signal.o
pagedirectoryCurrent
                    0x10              main.o
CurrentWindow       0x10              main.o
g_product_type      0x10              main.o
vbr                 0x10              main.o
Irq14               0x10              main.o
g_heap_pointer      0x10              main.o
LineShell           0x10              main.o
mouse_pos_x         0x10              ldisc.o
ipcStatus           0x10              main.o
WindowWithFocus     0x10              main.o
task_count          0x10              main.o
Screen              0x10              main.o
current_windowstation
                    0x10              main.o
channelList         0x80              main.o
g_kernel_nonpaged_memory
                    0x10              main.o
timer_handler_address
                    0x10              main.o
kernel_switch       0x10              main.o
guiStatus           0x10              main.o
window_rootConductor
                    0x10              main.o
terminalLineMax     0x10              main.o
heapList            0x20              main.o
cwArg5              0x10              services.o
ttyCurrentX         0x10              main.o
_read_offset        0x10              keyboard.o
CurrentDesktop      0x10              main.o
DriveContext        0x10              main.o
prompt_err          0x100             main.o
abnt2               0x10              main.o
gFocusBlocked       0x10              main.o
sata_handler_address
                    0x10              main.o
desktops_count      0x10              main.o
KernelPages         0x10              main.o
g_driver_apic_initialized
                    0x10              main.o
_lockfocus          0x10              main.o
contextGS           0x10              context.o
current_usersession
                    0x10              main.o
g_video_mode        0x10              main.o
fat                 0x10              main.o
ttyCurrentY         0x10              main.o
stdio_verbosemode_flag
                    0x10              main.o
mmFramesSuperBlockEnd
                    0x10              main.o
processList         0x400             main.o
Mind                0x10              debug.o
memorysizeExtendedMemory
                    0x10              main.o
Irq8                0x10              main.o
lineLine            0x10              main.o
gPagedPollStart     0x10              main.o
g_backbuffer_pa     0x10              main.o
CurrentVolume       0x10              main.o
systemzone          0x10              main.o
KernelLogBuffer     0x200             main.o
keyboard_message_tail
                    0x10              main.o
networkTesting      0x10              network.o
rootDir             0x10              main.o
pageframeList       0x1000            main.o
start_new_task_status
                    0x10              main.o
CurrentProcess      0x10              main.o
framepoolFrontBuffer4
                    0x10              main.o
current_semaphore   0x10              main.o
kernel_tick_total   0x10              main.o
realtimeprocessorList
                    0x80              main.o
CurrentDiskInfo     0x10              main.o
timer_cursor_used   0x10              main.o
file_Current        0x10              main.o
clientCP            0x10              main.o
cwArg7              0x10              services.o
EDITBOX_TEXT_COLOR  0x10              main.o
g_total_physical_memory
                    0x10              main.o
ready_list_head     0x10              main.o
browsertabList      0x30              main.o
g_mousepointer_width
                    0x10              main.o
usession_rootConductor
                    0x10              main.o
line_stderr         0x10              main.o
lineOffset          0x10              main.o
window_Conductor2   0x10              main.o
g_machine_type      0x10              main.o
contextEFLAGS       0x10              context.o
client_stdout       0x10              main.o
eventStatus         0x10              main.o
Irq11               0x10              main.o
pageframeCurrent    0x10              main.o
ipcBuffer           0x10              main.o
newtask_EIP         0x10              main.o
top_window          0x10              main.o
menuitemDefault     0x10              main.o
hddError            0x10              hdd.o
g_scheduler_status  0x10              main.o
FULLSCREEN_TABWINDOW
                    0x10              main.o
quit_message        0x10              main.o
diskinfo            0x10              main.o
TaskManProcess      0x10              main.o
LineHead            0x10              main.o
SystemUser          0x10              main.o
current_quantum     0x10              main.o
__ipc_kernel_spinlock
                    0x10              main.o
stdout              0x10              main.o
windowzoneSize      0x10              main.o
g_driver_rtc_initialized
                    0x10              main.o
SystemClasses       0x10              main.o
objects_gui         0x3840            main.o
g_navigationbar_width
                    0x10              main.o
timerIdleState      0x10              timer.o
windowList          0x400             main.o
EDITBOX_Y           0x10              main.o
wstation_Conductor2
                    0x10              main.o
gPagedPollEnd       0x10              main.o
windowzone          0x10              main.o
ShellThread         0x10              main.o
contextECX          0x10              context.o
Irq6                0x10              main.o
timerError          0x10              timer.o
g_cursor_left       0x10              main.o
g_system_color      0x10              main.o
g_cursor_bottom     0x10              main.o
defaultChannel      0x10              main.o
Irq3                0x10              main.o
realtimeStatus      0x10              main.o
editbox_window      0x10              main.o
kernel_request      0x10              main.o
idle_thread         0x10              main.o
g_pageable_framepool_index_max
                    0x10              main.o
current_thread      0x10              main.o
Bank                0x10              main.o
fileBuffer          0x10              main.o
timer_cursor_status
                    0x10              main.o
g_current_vm        0x10              main.o
rectClientArea      0x10              main.o
file_Shell          0x10              main.o
xxxxsavemessage     0x10              window.o
contextEBP          0x10              context.o
schedulerQueue      0x10              main.o
systemSize          0x10              main.o
object              0x10              main.o
gDeveloperOptions   0x10              main.o
keybuffer           0x80              main.o
_keyboard_queue     0x20              keyboard.o
keyboard_queue      0x120             main.o
last_size           0x10              memory.o
forkid              0x10              main.o
menus_count         0x10              main.o
current_volume      0x10              main.o
shutdown_address    0x10              main.o
devices             0x10              main.o
terminalLine        0x10              main.o
serialportError     0x10              main.o
desktop1            0x10              main.o
gcharHeight         0x10              main.o
g_use_default_user  0x10              main.o
mouse_buttom_1      0x10              ldisc.o
lock_taskswitch     0x10              taskswitch.o
mouse_status        0x10              ldisc.o
CurrentDisk         0x10              main.o
framepoolFrontBuffer2
                    0x10              main.o
diskList            0x20              main.o
server_stderr       0x10              main.o
Conductor2          0x10              main.o
KernelClasses       0x10              main.o
last_valid          0x10              memory.o
fsbFreeFrames       0x1000            main.o
screenBuffers       0x10              main.o
current_process_pagedirectory_address
                    0x10              main.o
rr_procs            0x10              main.o
KernelProcess       0x10              main.o
delta_y             0x10              ldisc.o
framepoolPageableSpace
                    0x10              main.o
lineLineMax         0x10              main.o
KernelHeapSize      0x10              main.o
HostDeviceInfo      0x10              main.o
prompt_out          0x100             main.o
g_driver_pci_initialized
                    0x10              main.o
gramadoDir          0x10              main.o
file_cluster_list   0x1000            main.o
escape_status       0x10              ldisc.o
memorysizeOtherMemory
                    0x10              main.o
IpcProcedureEx      0x10              main.o
mmblockList         0x8000            main.o
g_driver_timer_initialized
                    0x10              main.o
cwArg4              0x10              services.o
HostInfo            0x10              main.o
Irq0                0x10              main.o
DSpace              0x10              main.o
g_next_app          0x10              main.o
cmdDir              0x10              main.o
pageframeAllocList  0x1000            main.o
idle_proc           0x10              main.o
clientCR            0x10              main.o
g_useGUI            0x10              main.o
g_filesystem_type   0x10              main.o
Irq4                0x10              main.o
dirCount            0x10              main.o
ShellProcess        0x10              main.o
keybuffer_head      0x10              main.o
contextCS           0x10              context.o
CurrentBuffer       0x10              main.o
CurrentColorScheme  0x10              main.o
next_quantum        0x10              main.o
process_rootConductor
                    0x10              main.o
stdio_terminalmode_flag
                    0x10              main.o
menuDefault         0x10              main.o
framepoolSmallSystemUserSpace
                    0x10              main.o
rtcStatus           0x10              rtc.o
zicaaa              0x10              main.o
rootConductor       0x10              main.o
mouse_pos_y         0x10              ldisc.o
gSystemStatus       0x10              main.o
DeveloperWindowCursor
                    0x10              main.o
tab_status          0x10              ldisc.o
videoStatus         0x10              video.o
Version             0x10              main.o
file_pwd            0x10              main.o
userenvironmentStatus
                    0x10              main.o
g_guiMinimal        0x10              main.o
time_out            0x10              main.o
pagedirectoryKernelProcess
                    0x10              main.o
g_mainwindow_height
                    0x10              main.o
VideoBlock          0x20              main.o
System              0x10              main.o
KernelSize          0x10              main.o
Line                0x10              main.o
dispatcherReadyList
                    0x30              main.o
ScreenInfo          0x10              main.o
CurrentCursor       0x10              main.o
g8x8fontAddress     0x10              main.o
KernelStackSize     0x10              main.o
zica                0x10              main.o
keybuffer_index     0x10              main.o
g_cursor_color      0x10              main.o
memorysizeTotal     0x10              main.o
g_system_mode       0x10              main.o
Irq1                0x10              main.o
g_current_video_mode
                    0x10              main.o
ws0                 0x10              main.o
cur_thread          0x10              main.o
current_group       0x10              main.o
process_Conductor   0x10              main.o
BackBufferInfo      0x10              main.o
conductorIndex      0x10              main.o
cwArg6              0x10              services.o
g_framepool_max     0x10              main.o
task_waiting        0x10              main.o
keybuffer_tail      0x10              main.o
g_cursor_y          0x10              main.o
Irq7                0x10              main.o
banksCount          0x10              main.o
Pic                 0x10              main.o
Platform            0x10              main.o
system_message_read
                    0x10              main.o
fileList            0x80              main.o
wstation_Conductor  0x10              main.o
contextEAX          0x10              context.o
errno               0x10              main.o
old                 0x10              main.o
zorderList          0x200             main.o
contextEBX          0x10              context.o
gSystemEdition      0x10              main.o
pagedirectoryList   0x1000            main.o
framepoolMediumSystemUserSpace
                    0x10              main.o
menubarDefault      0x10              main.o
filesystem          0x10              main.o
logoffStatus        0x10              main.o
current_user        0x10              main.o
WindowProcedure     0x10              main.o
kernel_tick         0x10              main.o
framepoolKernelSpace
                    0x10              main.o
memorysizeBaseMemory
                    0x10              main.o
key_status          0x10              ldisc.o
server_stdout       0x10              main.o
contextEDI          0x10              context.o
timerLock           0x10              timer.o
g_file_system_type  0x10              main.o
mmblockCount        0x10              main.o
prompt_status       0x10              main.o
pagedirectoryTaskmanProcess
                    0x10              main.o
ambiente            0x10              main.o
framepoolLargeSystemUserSpace
                    0x10              main.o
g_platform_type     0x10              main.o
line_stdin          0x10              main.o
g_kernel_paged_memory
                    0x10              main.o
mmFramesSuperBlockStart
                    0x10              main.o
mouseBMPBuffer      0x10              main.o
contextES           0x10              context.o
g_driver_keyboard_initialized
                    0x10              main.o
wstation_rootConductor
                    0x10              main.o
rtc                 0x10              main.o
window_Conductor    0x10              main.o
lastBank            0x10              main.o
hddStatus           0x10              hdd.o
g_mm_system_type    0x10              main.o
g_kernel_lfb        0x10              main.o
ws1                 0x10              main.o
PciDrivers          0x10              main.o
system_message_queue
                    0x80              main.o
usession_Conductor2
                    0x10              main.o
terminal_window     0x10              main.o
mainButton2         0x10              main.o
CurrentScreen       0x10              main.o
queueList           0x20              main.o
ttyLineCounter      0x10              main.o
g_char_attrib       0x10              main.o
HumilityColorScheme
                    0x10              main.o
ctrl_status         0x10              ldisc.o
g_module_shell_initialized
                    0x10              main.o
g_next_proc         0x10              main.o
semaphoreList       0x90              main.o
winkey_status       0x10              ldisc.o
FrontBufferInfo     0x10              main.o
g_current_list      0x10              main.o
line_stdout         0x10              main.o
g_module_mm_initialized
                    0x10              main.o
contextSS           0x10              context.o
g_cursor_height     0x10              main.o
volumeList          0x40              main.o
g_nova_mensagem     0x10              main.o
current_menu        0x10              main.o
pmiCurrent          0x10              main.o
Pci                 0x10              main.o
EDITBOX_X           0x10              main.o
timerLine           0x10              timer.o
g_cursor_x          0x10              main.o
mouse_buttom_2      0x10              ldisc.o
CurrentUser         0x10              main.o

Memory Configuration

Name             Origin             Length             Attributes
*default*        0x00000000         0xffffffff

Linker script and memory map

                0x00400000                __image_base__ = 0x400000
                0x00000000                __dll__ = 0x0
                0x00400000                ___ImageBase = 0x400000
                0x00001000                __section_alignment__ = 0x1000
                0x00000200                __file_alignment__ = 0x200
                0x00000004                __major_os_version__ = 0x4
                0x00000000                __minor_os_version__ = 0x0
                0x00000001                __major_image_version__ = 0x1
                0x00000000                __minor_image_version__ = 0x0
                0x00000004                __major_subsystem_version__ = 0x4
                0x00000000                __minor_subsystem_version__ = 0x0
                0x00000003                __subsystem__ = 0x3
                0x00200000                __size_of_stack_reserve__ = 0x200000
                0x00001000                __size_of_stack_commit__ = 0x1000
                0x00100000                __size_of_heap_reserve__ = 0x100000
                0x00001000                __size_of_heap_commit__ = 0x1000
                0x00000000                __loader_flags__ = 0x0

.text           0xc0001000    0x1f000
                0xc0001000                _code_begin = .
 *(.head_x86)
 .head_x86      0xc0001000      0x1d1 head.o
                0xc0001000                kernel_begin
                0xc00011b9                SavedBPP
                0xc00011bd                SavedBootMode
                0xc00011c9                kArg3
                0xc00011cd                kArg4
                0xc00011b1                SavedX
                0xc00011c1                kArg1
                0xc00011a3                _die
                0xc00011b5                SavedY
                0xc00011ad                SavedLFB
                0xc00011c5                kArg2
                0xc00011a9                SavedBootBlock
 *(.text)
 *fill*         0xc00011d1        0xf 00
 .text          0xc00011e0     0x6051 head.o
                0xc0005ef8                asm_reboot
                0xc0006958                fault_N1
                0xc00069eb                fault_DOUBLE
                0xc0006c75                hd_buffer
                0xc0006ef9                mouse_y
                0xc0005eee                asm_shut_down
                0xc0006eaf                minute
                0xc0006f00                mouse_packet_scroll
                0xc0001222                idt
                0xc0006bce                fault_N31
                0xc000720f                asm_refresh_screen
                0xc000608d                exec_new_task
                0xc00011e0                gdt
                0xc0005e5b                get_page_dir
                0xc0006eb0                second
                0xc0006b8f                fault_N28
                0xc0006afc                fault_N21
                0xc00068db                irq7
                0xc0006a69                fault_N14
                0xc0001a26                IDT_register
                0xc0006fb7                int201
                0xc0006a2a                fault_N11
                0xc0005f08                irq0
                0xc0006f89                int54
                0xc0006982                fault_N3
                0xc0006f74                int51
                0xc0006928                irq14
                0xc0006f90                int100
                0xc00068e4                irq8
                0xc0006efd                mouse_packet_data
                0xc0006b3b                fault_N24
                0xc0006b65                fault_N26
                0xc0006cb3                test_write
                0xc0006943                fault_N0
                0xc0005e5f                set_page_dir
                0xc0005ee0                enable_pse
                0xc0006eae                hour
                0xc0006cc3                os_read_sector
                0xc0001a30                task_switch_salva_esp
                0xc0006ef5                mouse_x
                0xc0006bb9                fault_N30
                0xc0005e9d                setup_idt_vector
                0xc0006a3f                fault_STACK
                0xc0006b7a                fault_N27
                0xc0006f66                int49
                0xc0006eb1                CMOS_GET_DATE
                0xc0006906                irq11
                0xc0006f82                int53
                0xc0006a93                fault_N16
                0xc00068d2                irq4
                0xc0006a54                fault_GP
                0xc0006081                timer_test
                0xc0006f5f                int48
                0xc0006ad2                fault_N19
                0xc00069d6                fault_N7
                0xc0006f6d                int50
                0xc000691f                irq13
                0xc0006ba4                fault_N29
                0xc0007095                my_buffer_load_bitmap_16x16
                0xc0006fbe                int213
                0xc0006b26                fault_N23
                0xc0006088                enter_user_mode
                0xc0006c98                turn_task_switch_off
                0xc0001218                end_gdt
                0xc0006f97                int200
                0xc0006c7d                turn_task_switch_on
                0xc0005df4                do_executa_new_task
                0xc00069c1                fault_INTRUCAO_INVALIDA
                0xc0005e63                get_page_fault_adr
                0xc0006f01                update_mouse
                0xc00068f4                irq9
                0xc00068fd                irq10
                0xc00071c5                background
                0xc0006997                fault_N4
                0xc000696d                fault_N2
                0xc000121c                GDT_register
                0xc0006cdd                os_write_sector
                0xc0006ae7                fault_N20
                0xc0006f7b                int52
                0xc0006931                irq15
                0xc0006012                dispatch_context
                0xc0001a2c                KernelStatus
                0xc0006b11                fault_N22
                0xc0006a15                fault_N10
                0xc0006eff                mouse_packet_y
                0xc00068a5                irq1
                0xc0006a7e                fault_N15
                0xc0007131                um_buffer_putpixel
                0xc000690f                irq12
                0xc0006aa8                fault_N17
                0xc00068c9                irq3
                0xc0006abd                fault_N18
                0xc0005e3c                test_cpuid_support
                0xc0005e67                halt
                0xc0006c79                hd_lba
                0xc0006b50                fault_N25
                0xc0005b5e                setup_system_interrupt
                0xc0006fc5                int216
                0xc000713b                gui_buffer_putpixel
                0xc0006e38                reset_ide0
                0xc0006efe                mouse_packet_x
                0xc0006a00                fault_N9
                0xc00069ac                fault_N5
 *fill*         0xc0007231        0x3 00
 .text          0xc0007234      0x5e0 main.o
                0xc0007234                kMain
                0xc0007686                startStartIdle
 .text          0xc0007814       0x60 io.o
                0xc0007814                ioServices
                0xc0007855                ioInit
 .text          0xc0007874      0x460 hal.o
                0xc0007aa7                hal_set_machine_type
                0xc0007ab4                hal_get_machine_type
                0xc0007b0f                hal_probe_cpu
                0xc0007c62                KiShutDown
                0xc0007892                sys_vsync
                0xc0007c74                hal_reboot
                0xc0007919                hal_probe_processor_type
                0xc0007bc3                getGdt
                0xc000790c                hal_showpciinfo
                0xc00078d0                hal_hardware_detect
                0xc00079ff                init_cpu
                0xc0007c2b                KiReboot
                0xc0007bf6                shutdown
                0xc00078be                sys_shutdown
                0xc0007abe                hal_init_machine
                0xc0007874                hal_backbuffer_putpixel
                0xc000789f                sys_showpciinfo
                0xc00078ac                sys_reboot
                0xc0007be4                hal_shutdown
                0xc0007bd7                hal_vsync
                0xc0007c86                init_hal
                0xc0007bcd                getIdt
 .text          0xc0007cd4      0x310 microkernel.o
                0xc0007e50                sys_getpid
                0xc0007cd4                microkernelTestLimit
                0xc0007d77                sys_dead_thread_collector
                0xc0007db1                sys_create_process
                0xc0007ecf                init_microkernel
                0xc0007d84                sys_exit_process
                0xc0007eca                KeReboot
                0xc0007e43                sys_fork
                0xc0007d9e                sys_exit_thread
                0xc0007e01                sys_create_thread
                0xc0007e5a                sys_getppid
 .text          0xc0007fe4       0x50 executive.o
                0xc0007ff1                init_executive
                0xc0007fe4                sys_showkernelinfo
 .text          0xc0008034      0x260 video.o
                0xc0008041                videoGetMode
                0xc000804b                videoSetMode
                0xc000811d                videoInit
                0xc0008034                videoSetupCGAStartAddress
                0xc0008276                videoVideo
 .text          0xc0008294      0x100 screen.o
                0xc0008294                screenGetWidth
                0xc000829e                screenGetHeight
                0xc00082a8                screenSetSize
                0xc00082eb                screenInit
                0xc00082ca                screenRefresh
                0xc00082bd                refresh_screen
 .text          0xc0008394       0x30 runtime.o
                0xc00083b5                KiInitRuntime
                0xc0008394                init_runtime
 .text          0xc00083c4       0xe0 ports.o
                0xc0008421                inport8
                0xc0008474                outport32
                0xc00083e3                inb
                0xc0008492                outportl
                0xc0008480                inportl
                0xc0008415                outportb
                0xc0008434                outport8
                0xc0008455                outport16
                0xc00083c4                kinportb
                0xc00083d7                koutportb
                0xc0008440                inport16
                0xc0008402                inportb
                0xc0008462                inport32
                0xc00083f6                outb
 .text          0xc00084a4       0xd0 x86.o
                0xc0008549                pushFlags
                0xc000853d                pushRegs
                0xc0008534                Pop
                0xc00084c7                farReturn
                0xc00084cd                getFlags
                0xc000854f                popFlags
                0xc00084ba                stopCpu
                0xc000855f                setStackPointer
                0xc0008543                popRegs
                0xc0008506                kernelProcessorOutPort16
                0xc00084e1                kernelProcessorInPort8
                0xc000852b                Push
                0xc00084ed                kernelProcessorOutPort8
                0xc00084d7                setFlags
                0xc0008555                getStackPointer
                0xc00084af                disable
                0xc0008513                kernelProcessorInPort32
                0xc00084c1                intReturn
                0xc00084f9                kernelProcessorInPort16
                0xc000851f                kernelProcessorOutPort32
                0xc00084a4                enable
 .text          0xc0008574      0xf50 stdio.o
                0xc0008efd                putchar
                0xc0008e7b                sprintf
                0xc0008e02                panic
                0xc000916c                input
                0xc0008670                scroll
                0xc0009162                printf_main
                0xc0008f13                outbyte
                0xc00088a0                kprint
                0xc0008e95                fprintf
                0xc000858b                fopen
                0xc00087c7                kclear
                0xc00092ea                stdioInitialize
                0xc0008574                fclose
                0xc0009084                _outbyte
                0xc0008845                kclearClientArea
                0xc0008de7                printf
 .text          0xc00094c4      0x110 stdlib.o
                0xc0009522                free
                0xc00094c4                rand
                0xc00094e1                malloc
 .text          0xc00095d4      0x480 string.o
                0xc0009812                strcspn
                0xc0009775                strcat
                0xc00095d4                strcmp
                0xc00097cc                bzero
                0xc0009952                strtok_r
                0xc0009708                memcpy
                0xc00097a5                bcopy
                0xc0009745                strcpy
                0xc00098b2                strspn
                0xc0009a27                strtok
                0xc000968d                str_cmp
                0xc000962f                strncmp
                0xc00097e7                strlen
 .text          0xc0009a54       0xe0 tty.o
                0xc0009af2                ttyInit
                0xc0009a54                createTTYLine
 .text          0xc0009b34      0x470 init.o
                0xc0009b39                boot
                0xc0009df7                init
                0xc0009be6                init_arquitecture_independent
                0xc0009b34                save_kernel_args
                0xc0009cbe                init_globals
                0xc0009b4d                init_arquitecture_dependent
 .text          0xc0009fa4      0x810 logon.o
                0xc000a29a                ExitLogon
                0xc000a6ea                init_logon
                0xc000a66e                logon_create_infobox
                0xc000a2d5                SetLogonParameters
                0xc000a669                logon_create_controlmenu
                0xc000a452                logon_create_background
                0xc000a687                logon_create_developer_screen
                0xc000a68c                LogonProcedure
                0xc000a673                logon_create_messagebox
                0xc000a664                logon_create_taskbar
                0xc000a53b                logon_create_mainwindow
                0xc000a678                logon_create_debug
                0xc000a378                logon_create_screen
                0xc000a682                logon_create_grid
                0xc000a67d                logon_create_navigationbar
                0xc000a65f                logon_create_logo
                0xc0009fa4                create_logon
 .text          0xc000a7b4       0xe0 logoff.o
                0xc000a7b4                StartLogoff
                0xc000a7cd                init_logoff
 .text          0xc000a894      0x530 cpux86.o
                0xc000ad83                cpux86_enable_caches
                0xc000ac2e                KeTestCPU
                0xc000a894                get_cpu_intel_parameters
                0xc000ac21                cpu_get_parameters
                0xc000ac40                show_cpu_intel_parameters
                0xc000ada9                init_intel
 .text          0xc000adc4       0x20 cpuamd.o
                0xc000adc4                get_cpu_amd_parameters
                0xc000adc9                init_amd
 .text          0xc000ade4      0x8f0 memory.o
                0xc000b0c6                FreeHeap
                0xc000b529                gcEXECUTIVE
                0xc000b408                init_mm
                0xc000b175                init_heap
                0xc000ade4                get_process_heap_pointer
                0xc000b51f                gcGRAMADO
                0xc000b0e3                show_memory_structs
                0xc000b618                gcMICROKERNEL
                0xc000b622                gcHAL
                0xc000b0d0                AllocateHeapEx
                0xc000b62c                gc
                0xc000ae7a                SetKernelHeap
                0xc000af0b                AllocateHeap
                0xc000b316                memoryShowMemoryInfo
                0xc000b2a7                init_stack
 .text          0xc000b6d4      0xcc0 pages.o
                0xc000be71                allocPageFrames
                0xc000b7e6                SetCR3
                0xc000c192                firstSlotForAList
                0xc000c11a                newPage
                0xc000c206                testingFrameAlloc
                0xc000c05a                newPageFrame
                0xc000b6d4                CreatePageDirectory
                0xc000b7fe                SetUpPaging
                0xc000c02e                notfreePageframe
                0xc000c002                freePageframe
                0xc000b725                CreatePageTable
                0xc000bde7                initializeFramesAlloc
                0xc000bff3                pfEmpty
 .text          0xc000c394        0x0 apic.o
 .text          0xc000c394        0x0 pic.o
 .text          0xc000c394      0x1e0 timer.o
                0xc000c4d2                set_timeout
                0xc000c4b4                sleep
                0xc000c493                get_next_quantum
                0xc000c486                set_next_quantum
                0xc000c465                get_quantum
                0xc000c458                set_quantum
                0xc000c4e9                timerTimer
                0xc000c49d                now
                0xc000c4aa                get_tick_count
                0xc000c403                timerInit8253
                0xc000c511                timerInit
                0xc000c47c                get_current_quantum
                0xc000c3a1                KiTimer
                0xc000c4df                get_timeout
                0xc000c46f                set_current_quantum
                0xc000c394                KeTimer
                0xc000c3ae                timer
 .text          0xc000c574      0x3e0 rtc.o
                0xc000c924                init_clock
                0xc000c74c                rtcGetBaseMemory
                0xc000c7b0                get_cmos_info
                0xc000c5d9                read_cmos_bcd
                0xc000c574                KiRtcIrq
                0xc000c6e8                rtcGetExtendedMemory
                0xc000c649                get_time
                0xc000c581                rtc_irq
                0xc000c69b                get_date
 .text          0xc000c954       0xc0 keyboard.o
                0xc000c954                abnt2_keyboard_handler
                0xc000c9e4                KiKeyboard
                0xc000c9a9                get_scancode
 .text          0xc000ca14       0x10 mouse.o
                0xc000ca14                mouse_handler
 .text          0xc000ca24     0x11c0 ldisc.o
                0xc000cb3e                keyboardDisable
                0xc000d927                get_current_mouse_responder
                0xc000d91a                set_current_mouse_responder
                0xc000ca24                keyboardGetKeyState
                0xc000cbf6                LINE_DISCIPLINE
                0xc000d09b                KbGetLongParam1
                0xc000dbbe                ldisc_init_lock_keys
                0xc000d903                set_current_keyboard_responder
                0xc000d8ec                ps2
                0xc000d386                kbdc_wait
                0xc000d05c                KbGetMessage
                0xc000d807                load_mouse_bmp
                0xc000d931                initialize_system_message_queue
                0xc000d6f1                kernelPS2MouseDriverReadData
                0xc000d6f6                P8042_install
                0xc000dad2                xenqueue
                0xc000d131                init_keyboard
                0xc000d11d                get_ctrl_status
                0xc000db91                ldisc_init_modifier_keys
                0xc000d127                get_shift_status
                0xc000d9d4                xinit_queue
                0xc000d363                mouse_read
                0xc000d207                init_mouse
                0xc000d0ce                KbGetLongParam2
                0xc000d3ca                mouseHandler
                0xc000da0f                xdestroy_queue
                0xc000db59                xdequeue
                0xc000d029                KdGetWindowPointer
                0xc000d113                get_alt_status
                0xc000cb74                keyboard_set_leds
                0xc000d101                reboot
                0xc000cb08                keyboardEnable
                0xc000d315                mouse_write
                0xc000d910                get_current_keyboard_responder
 .text          0xc000dbe4       0x50 hdd.o
                0xc000dbe4                my_read_hd_sector
                0xc000dc01                my_write_hd_sector
                0xc000dc1e                init_hdd
 .text          0xc000dc34      0x7f0 pci.o
                0xc000df22                pciGetBAR
                0xc000dc48                KiPciHandler3
                0xc000de36                pciCheckVendor
                0xc000dc3e                KiPciHandler2
                0xc000dcff                pciConfigReadWord
                0xc000e0ef                pciInfo
                0xc000dee7                pciGetClassCode
                0xc000e40f                pciInit
                0xc000dc52                KiPciHandler4
                0xc000dc5c                pciConfigReadByte
                0xc000deac                pciGetSubClass
                0xc000e079                pciGetInterruptLine
                0xc000de71                pciCheckDevice
                0xc000e39d                init_pci
                0xc000dda5                pciConfigReadDWord
                0xc000e0b4                pciGetInterruptPin
                0xc000e1a8                pci_setup_devices
                0xc000dc34                KiPciHandler1
 .text          0xc000e424       0x10 usb.o
                0xc000e424                usbInit
 .text          0xc000e434       0x10 device.o
                0xc000e434                init_device_manager
 .text          0xc000e444      0x1c0 spawn.o
                0xc000e472                spawn_task
                0xc000e444                KiSpawnTask
 .text          0xc000e604       0x10 callout.o
                0xc000e604                KiCalloutTest
 .text          0xc000e614       0x10 callfar.o
                0xc000e614                KiCallfarTest
 .text          0xc000e624      0x7e0 process.o
                0xc000ec10                SetProcessDirectory
                0xc000e96a                KeSelectNextThread
                0xc000e9fc                KeSetPriority
                0xc000ec24                GetProcessDirectory
                0xc000ea74                show_process_information
                0xc000e6ac                create_process
                0xc000e9ca                KeDoProcessReady
                0xc000e9cf                KeDoProcessRunning
                0xc000e8dc                CloseAllProcesses
                0xc000ea65                KeMostraSlot
                0xc000ecc0                dead_task_collector
                0xc000e9c5                KeDispatchProcess
                0xc000ea6f                KeShowPreemptedTask
                0xc000e9de                KeDoProcessDead
                0xc000edb5                set_caller_process_id
                0xc000e990                KeInitTasks
                0xc000ea38                KeSetNextQuantum
                0xc000e9d4                KeDoProcessSleeping
                0xc000ea2e                KeGetCurrentQuantum
                0xc000ec5e                init_tasks
                0xc000e9f2                KeKillProcess
                0xc000e9d9                KeDoProcessZombie
                0xc000e9bb                KeExecProcess
                0xc000e9f7                KeNewProcessScheduler
                0xc000ecc5                exit_process
                0xc000ea29                KeSetCurrentQuantum
                0xc000ea15                KeReloadCurrentTask
                0xc000ea6a                KeMostraReg
                0xc000e9e8                KeWakeupProcess
                0xc000edab                get_caller_process_id
                0xc000e97d                KeCheckTaskContext
                0xc000e93a                KeSaveCurrentContext
                0xc000ea5b                KeShowTasksParameters
                0xc000ea60                KeMostraSlots
                0xc000ec47                GetPageDirValue
                0xc000edc2                init_process_manager
                0xc000ea47                KeSetFocus
                0xc000ea10                KeSaveContextOfNewTask
                0xc000ec54                init_task
                0xc000e624                processTesting
                0xc000ea06                KeIncreasePriority
                0xc000ea3d                KeGetNextQuantum
                0xc000ea56                KeDebugBreakpoint
                0xc000e670                processSendSignal
                0xc000ec6b                init_processes
                0xc000e93f                KeRestoreCurrentContext
                0xc000ea1f                KeGetQuantum
                0xc000e99d                KeCreateTask
                0xc000e9e3                KeStartProcess
                0xc000e9ed                KeProcessExit
                0xc000ede0                GetProcessHeapStart
                0xc000ea4c                KeGetFocus
                0xc000e957                KeSpawnTask
                0xc000e9a7                KeInitTask
                0xc000e944                KeCpuFaults
                0xc000e9b1                KeFork
                0xc000ea1a                KeSetQuantum
 .text          0xc000ee04        0x0 pheap.o
 .text          0xc000ee04      0x590 thread.o
                0xc000f248                GetThreadState
                0xc000f308                init_threads
                0xc000ee04                create_thread
                0xc000f1b0                FindReadyThread
                0xc000f26b                GetThreadType
                0xc000f291                show_thread_information
                0xc000f161                GetCurrentThread
                0xc000f212                SelectForExecution
                0xc000f157                GetCurrentThreadId
 .text          0xc000f394      0x5a0 threadi.o
                0xc000f3ac                KiGetTaskStatus
                0xc000f7b2                show_tasks_parameters
                0xc000f3f5                KiGetFocus
                0xc000f78a                GetThreadDirectory
                0xc000f404                KiShowTasksParameters
                0xc000f3d2                KiSetCurrentQuantum
                0xc000f3be                KiReloadCurrentTask
                0xc000f80f                exit_thread
                0xc000f409                KiMostraSlots
                0xc000f425                mostra_slots
                0xc000f418                KiShowThreadList
                0xc000f399                KiSetTaskStatus
                0xc000f61e                mostra_reg
                0xc000f864                kill_thread
                0xc000f394                KiShowPreemptedTask
                0xc000f3c8                KiGetQuantum
                0xc000f3f0                KiSetFocus
                0xc000f725                set_thread_priority
                0xc000f3e1                KiSetNextQuantum
                0xc000f7b7                release
                0xc000f3c3                KiSetQuantum
                0xc000f3ff                KiDebugBreakpoint
                0xc000f413                KiMostraReg
                0xc000f7ad                show_preempted_task
                0xc000f774                SetThreadDirectory
                0xc000f555                mostra_slot
                0xc000f3b9                KiSaveContextOfNewTask
                0xc000f3e6                KiGetNextQuantum
                0xc000f3d7                KiGetCurrentQuantum
                0xc000f40e                KiMostraSlot
                0xc000f8b5                dead_thread_collector
 .text          0xc000f934       0x30 theap.o
                0xc000f934                GetThreadHeapStart
 .text          0xc000f964       0x30 tstack.o
                0xc000f964                GetThreadStackStart
 .text          0xc000f994      0xad0 create.o
                0xc000fa69                KiCreateIdle
                0xc000fa3a                KiCreateProcess
                0xc0010138                KiCreateTaskManager
                0xc000f9df                KeCreateThread
                0xc000fa44                KiCreateTask
                0xc000fa5f                KiCreateKernelProcess
                0xc000fa1c                fork
                0xc000fa30                KiFork
                0xc000f994                KeCreateProcess
                0xc000fa26                create_task
                0xc000fe0f                KiCreateShell
 .text          0xc0010464      0x190 start.o
                0xc00105e2                KiInitTasks
                0xc00104c4                executa_tarefa
                0xc001048c                start_task
                0xc0010464                KeStartShell
                0xc00104b0                switch_to_user_mode
                0xc00105b0                KiExecutaTarefa
                0xc00104ab                reload_current_task
                0xc0010478                KeStartTaskManager
                0xc00105ba                KiInitTask
                0xc00105a3                KiSwitchToUserMode
 .text          0xc00105f4      0x450 context.o
                0xc0010a2c                KiRestoreCurrentContext
                0xc0010a39                save_context_of_new_task
                0xc0010909                contextCheckThreadRing0Context
                0xc00105f4                save_current_context
                0xc0010913                contextCheckThreadRing3Context
                0xc0010a0c                KiCheckTaskContext
                0xc0010a1f                KiSaveCurrentContext
                0xc0010758                restore_current_context
 .text          0xc0010a44       0x20 tasks.o
                0xc0010a53                task3
                0xc0010a44                task0
                0xc0010a49                task1
                0xc0010a4e                task2
 .text          0xc0010a64      0x530 taskswitch.o
                0xc0010ad3                task_switch
                0xc0010f58                set_task_status
                0xc0010e27                taskswitchRR
                0xc0010f6f                taskswitch_lock
                0xc0010f65                get_task_status
                0xc0010a64                KiTaskSwitch
                0xc0010f7e                taskswitch_unlock
 .text          0xc0010f94      0xe90 queue.o
                0xc001140b                queue_insert_data
                0xc0010f94                init_queue
                0xc0011834                queue_insert_head
                0xc0011c91                feed_ready_queue
                0xc00119c5                queue_get_data
                0xc0011be2                ScanReadyQueue
                0xc0011b54                show_queue_information
 .text          0xc0011e24      0x110 scheduler.o
                0xc0011e24                scheduler
                0xc0011f16                scheduler_get_status
                0xc0011f07                scheduler_unlock
                0xc0011ef8                scheduler_lock
                0xc0011f20                new_task_scheduler
                0xc0011edf                scheduler_start
                0xc0011f25                init_scheduler
 .text          0xc0011f34      0x790 scheduleri.o
                0xc00122cd                do_thread_running
                0xc001202f                KiKillTask
                0xc00125ce                check_for_standby
                0xc0012371                do_thread_dead
                0xc0011f34                KiIncreasePriority
                0xc001200a                KiStartTask
                0xc0012047                KiDispatchTask
                0xc0012299                do_thread_ready
                0xc0012042                KiNewTaskScheduler
                0xc0011ff7                KiDoThreadDead
                0xc0011fe4                KiDoThreadZombie
                0xc0011f8b                KiSelectNextThread
                0xc0012335                do_thread_zombie
                0xc0011fbe                KiDoThreadRunning
                0xc001204c                KiSetPriority
                0xc0012219                get_current
                0xc0012086                find_higher_priority
                0xc0012492                taskexit
                0xc0012503                SelectNextThread
                0xc0011f3e                KiScheduler
                0xc001200f                KiAcordarTarefa
                0xc0012256                set_priority
                0xc0012187                preempt
                0xc0012022                KiTaskExit
                0xc0011fd1                KiDoThreadSleeping
                0xc0012223                get_current_task
                0xc001206c                KiGetCurrent
                0xc001222d                set_current
                0xc0011fab                KiDoThreadReady
                0xc0012301                do_thread_sleeping
                0xc0012645                check_quantum
                0xc0012079                KiGetCurrentTask
                0xc0011f7e                KiFindHigherPriority
                0xc0012059                KiSetCurrent
                0xc001240d                kill_task
                0xc00123a5                wakeup_thread
 .text          0xc00126c4      0x860 dispatch.o
                0xc0012d28                dispatch_task
                0xc0012992                sysconcDispatcher
                0xc0012b5f                dispatch_Default
                0xc0012ae4                rrDispatcher
                0xc0012ad0                idleDispatcher
                0xc0012a2c                userconcDispatcher
                0xc0012ac6                systemDispatcher
                0xc0012e0b                init_dispatcher
                0xc0012ead                IncrementDispatcherCount
                0xc00126c4                dispatcher
                0xc001285e                syscoopDispatcher
                0xc0012aee                realtimeDispatcher
                0xc00128f8                usercoopDispatcher
                0xc00127ef                readyDispatcher
                0xc0012ada                periodicDispatcher
                0xc0012d6d                dispatch_thread
 .text          0xc0012f24      0x110 semaphore.o
                0xc0012f4e                Down
                0xc0013002                semaphore_up
                0xc0012f24                init_semaphore
                0xc0013029                close_semaphore
                0xc001301f                delete_semaphore
                0xc0013024                open_semaphore
                0xc0013015                create_semaphore
                0xc0012fef                semaphore_down
                0xc0012fa8                Up
 .text          0xc0013034       0x10 modules.o
                0xc0013034                modulesModules
 .text          0xc0013044       0x10 nic.o
                0xc0013044                init_network
 .text          0xc0013054       0x30 network.o
                0xc0013054                networkInit
 .text          0xc0013084       0x50 socket.o
                0xc0013084                create_socket
 .text          0xc00130d4       0x10 sm.o
                0xc00130d4                init_systemserver
 .text          0xc00130e4       0xd0 channel.o
                0xc0013159                OpenChannel
                0xc0013184                CloseChannel
                0xc00130e4                CreateChannel
                0xc0013138                DestroyChannel
 .text          0xc00131b4       0x70 ipc.o
                0xc0013211                init_ipc
                0xc00131be                ipcProcedureEx
                0xc00131b4                ipcProcedure
                0xc00131c8                ipc_dispatch_message
 .text          0xc0013224      0x430 read.o
                0xc0013503                fs_load_rootdirEx
                0xc0013554                fs_load_fatEx
                0xc00132bc                fsLoadFile
                0xc0013286                read_lba
                0xc00135b7                fs_load_dir
                0xc00134b4                KiLoadRootDir
                0xc001324a                fatLoadCluster
                0xc00135a3                fs_load_rootdir
                0xc0013224                fatClustToSect
 .text          0xc0013654       0xe0 write.o
                0xc0013654                fatWriteCluster
                0xc0013717                fs_save_rootdir
                0xc0013721                fs_save_entry_on_root
                0xc0013726                fs_save_structure
                0xc001370d                fsSaveFile
                0xc001371c                fs_save_dir
                0xc0013690                write_lba
 .text          0xc0013734      0x150 cf.o
                0xc0013854                fs_create_entry
                0xc0013734                fs_create_dir
                0xc001374e                fs_create_file
                0xc0013863                create_system_folders
                0xc0013859                fs_create_name
                0xc001385e                salva_nome
 .text          0xc0013884      0x230 search.o
                0xc001391d                fsSearchFile
                0xc0013a9d                fsSearchFileName
                0xc0013a1f                fs_find_not_empty_entry
                0xc0013a15                fs_find_empty_entry
                0xc0013a0b                fs_search_empty_entry
                0xc0013a29                fs_find_n_empty_entries
                0xc0013884                KiSearchFile
 .text          0xc0013ab4       0x90 format.o
                0xc0013ac1                fs_delete_entry
                0xc0013ab4                fs_apaga_fat
                0xc0013af5                fsClearFat
                0xc0013ac6                limpa_root
 .text          0xc0013b44       0xd0 disk.o
                0xc0013b44                disk_get_disk_handle
                0xc0013b7d                disk_init
                0xc0013c0b                init_test_disk
                0xc0013b73                disk_get_current_disk_info
 .text          0xc0013c14       0xb0 volume.o
                0xc0013c4d                volume_init
                0xc0013c14                volume_get_volume_handle
                0xc0013c43                volume_get_current_volume_info
 .text          0xc0013cc4      0x570 fs.o
                0xc0013e69                fs_get_fat_entry
                0xc0013e73                fs_set_fat_entry
                0xc0013f0f                fsCheckVbr
                0xc0013eaa                fs_show_entry
                0xc0013e82                fs_set_entry
                0xc0013e64                fs_test_fat_vector
                0xc001406b                set_spc
                0xc0013cc4                fsCreateVFS
                0xc00141d3                fsInit
                0xc0013e1b                get_file
                0xc0013ea0                fs_check_fat
                0xc0013d92                KeLoadFile
                0xc0013eb9                fs_set_entry_status
                0xc0014099                fs_init_fat
                0xc0014100                fs_init_structures
                0xc0013f52                fs_check_disk
                0xc0013f7c                MountShortFileName
                0xc0013e87                fs_get_entry
                0xc0013cfb                fsListFiles
                0xc0013e91                fs_show_dir
                0xc0013eaf                fs_get_entry_status
                0xc0013e96                fs_check_cluster
                0xc0013e78                fs_put_list_on_fat
                0xc0013e42                set_file
                0xc001408c                set_filesystem_type
                0xc0013e8c                fs_show_dir_entry
                0xc0013e7d                fs_set_structures
                0xc0014082                get_filesystem_type
                0xc0013ebe                fsCheckMbr
                0xc0014078                get_spc
 .text          0xc0014234      0x140 misc.o
                0xc0014276                newNode
                0xc001435f                get_cursor_y
                0xc0014340                set_up_cursor
                0xc00142af                Removing_from_the_beginning
                0xc00142d8                Removing_from_the_middle
                0xc0014308                set_up_color
                0xc0014355                get_cursor_x
                0xc0014315                set_up_text_color
                0xc0014234                newLinkedlist
                0xc00142dd                Removing_from_the_end
 .text          0xc0014374      0x170 request.o
                0xc0014374                KiRequest
                0xc00143af                request
 .text          0xc00144e4      0x4d0 info.o
                0xc00144e9                KiInformation
                0xc00144e4                KeInformation
 .text          0xc00149b4       0x60 signal.o
                0xc00149b4                signalSend
                0xc00149ff                signalInit
 .text          0xc0014a14     0x1bd0 system.o
                0xc00159f7                systemCreateSystemMenuBar
                0xc0015bef                SystemMenu
                0xc001630e                systemInit
                0xc0016363                systemSetTerminalWindow
                0xc001620b                systemGetSystemStatus
                0xc00154b8                systemIoDma
                0xc0015aee                systemCheck3TierArchitecture
                0xc0016334                die
                0xc0015952                systemLinkDriver
                0xc00161b1                systemGetSystemMetric
                0xc0015bc1                system_dispatch_to_procedure
                0xc0016325                systemSystem
                0xc0016198                systemShutdownViaAPM
                0xc0015e14                systemReboot
                0xc0015d77                SystemMenuProcedure
                0xc00151c4                systemIoCpu
                0xc0015908                systemThings
                0xc00157e1                systemDevicesBlocked
                0xc0016558                systemSetTerminalRectangle
                0xc001625c                systemStartUp
                0xc0015948                systemNull
                0xc0016359                systemGetTerminalWindow
                0xc00154f8                systemDevicesUnblocked
                0xc001655d                systemGetSystemMetrics
                0xc0014a14                systemRam
                0xc0016163                systemShutdown
                0xc0015af3                systemSetupVersion
                0xc001598c                systemShowDevicesInfo
 .text          0xc00165e4      0x110 background.o
                0xc001666b                backgroundSetColor
                0xc00166da                backgroundInit
                0xc00165e4                backgroundDraw
                0xc0016696                backgroundRedraw
                0xc00166c1                backgroundBackground
 .text          0xc00166f4      0x380 grid.o
                0xc0016a25                grid
                0xc00169a7                CreateGrid
                0xc00166f4                InitializeGrid
 .text          0xc0016a74      0x1f0 statusbar.o
                0xc0016a74                StatusBar
 .text          0xc0016c64      0x950 menubar.o
                0xc00171f0                redraw_menubar_item
                0xc001739b                get_menubar_selected_item
                0xc00174ea                MenuBarProcedure
                0xc0016e39                create_menubar_item
                0xc00173ae                menubarX
                0xc00171aa                unselect_menubar_item
                0xc0016c64                create_menubar
                0xc0017164                select_menubar_item
 .text          0xc00175b4      0x930 menu.o
                0xc001783e                create_menu_item
                0xc0017c17                ControlMenu
                0xc0017b28                initmenuArray
                0xc0017e81                init_menus
                0xc0017a77                set_current_menu
                0xc0017c24                MainMenu
                0xc0017d31                MainMenuProcedure
                0xc00175b4                create_menu
                0xc0017a8f                get_current_menu
                0xc0017abb                RegisterMenu
 .text          0xc0017ee4      0x4c0 messagebox.o
                0xc0017ee4                MessageBox
                0xc0018306                MessageBoxProcedure
 .text          0xc00183a4      0x3b0 dialogbox.o
                0xc00186dd                DialogBoxProcedure
                0xc00183a4                DialogBox
 .text          0xc0018754      0x320 button.o
                0xc0018754                draw_button
 .text          0xc0018a74      0x210 char.o
                0xc0018b54                set_char_height
                0xc0018a74                my_buffer_char_blt
                0xc0018b6b                get_char_height
                0xc0018b9d                draw_char
                0xc0018b75                drawchar_transparent
                0xc0018b61                get_char_width
                0xc0018b47                set_char_width
 .text          0xc0018c84      0x130 pixel.o
                0xc0018d5c                refresh_pixel
                0xc0018c84                pixelPutPixelWindowBuffer
                0xc0018d21                get_pixel
                0xc0018cf9                my_buffer_put_pixel
                0xc0018c89                pixelPutPixelDedicatedWindowBuffer
 .text          0xc0018db4       0xb0 line.o
                0xc0018dea                refresh_horizontal_line
                0xc0018db4                my_buffer_horizontal_line
 .text          0xc0018e64      0x1c0 rect.o
                0xc0018f22                getClientAreaRect
                0xc0018f6b                refresh_rectangle
                0xc0018e64                drawDataRectangle
                0xc0018f2c                setClientAreaRect
 .text          0xc0019024       0x90 dtext.o
                0xc0019024                draw_text
                0xc0019060                draw_string
 .text          0xc00190b4      0x460 draw.o
                0xc00190b9                DrawPopUpWindow
                0xc00190b4                do_draw
                0xc00194d5                DrawAppWindow
                0xc0019154                DrawEditBoxWindow
                0xc001939d                DrawMenuBarWindow
                0xc0019367                DrawNormalEditWindow
                0xc00194cb                DrawTaskBarWindow
                0xc00194d0                DrawControlMenuWindow
                0xc00194a2                DrawStatusBarWindow
                0xc00191ef                DrawNormalWindow
                0xc00193b8                DrawToolBarWindow
 .text          0xc0019514       0x60 vsync.o
                0xc0019552                vsync_inb
                0xc0019514                vsync
 .text          0xc0019574      0x1b0 bmp.o
                0xc00196fd                load_bitmap_16x16
                0xc00196d5                carrega_bitmap_16x16
                0xc0019574                bmpDisplayBMP
 .text          0xc0019724      0xcf0 createw.o
                0xc0019724                CreateWindow
 .text          0xc001a414     0x1b30 window.o
                0xc001aa69                windowSendMessage
                0xc001af5f                redraw_window
                0xc001b6f0                set_active_window
                0xc001aae6                windowGetHandleWindow
                0xc001b4fa                resize_window
                0xc001be43                get_zorder
                0xc001ab9f                windowGetLong2
                0xc001bb6a                MinimizeWindow
                0xc001bba5                MaximizeWindow
                0xc001a7cb                GetWindowDesktop
                0xc001be69                getTopWindow
                0xc001a414                windowInitializeBrowserSupport
                0xc001b6e6                get_active_window
                0xc001b5cc                is_window_minimized
                0xc001b602                CloseWindow
                0xc001b9da                windowGetForegroundWindow
                0xc001ac3b                windowUnlock
                0xc001ac55                set_current_window
                0xc001b813                SetFocus
                0xc001bc8d                init_windows
                0xc001b781                CloseActiveWindow
                0xc001aa21                windowShowWWFMessageBuffers
                0xc001ac75                get_current_window
                0xc001be92                get_top_window
                0xc001bea9                closeActiveWindow
                0xc001ac7f                RegisterWindow
                0xc001aaf3                windowGetMessage
                0xc001bae2                KillFocus
                0xc001b804                windowUnblockFocus
                0xc001b6d3                DestroyWindow
                0xc001ba1b                windowSwitchFocus
                0xc001a7a5                GetParentWindow
                0xc001b7f5                windowBlockfocus
                0xc001b9c9                GetFocus
                0xc001b405                redraw_screen
                0xc001ab6a                windowGetLong1
                0xc001bc3d                init_window_manager
                0xc001b560                is_window_full
                0xc001ac21                windowLock
                0xc001b764                show_window_with_focus
                0xc001b9eb                windowSetForegroundWindow
                0xc001b747                show_active_window
                0xc001b52d                replace_window
                0xc001abac                windowCreateDedicatedBuffer
                0xc001a7f1                windowSetUpColorScheme
                0xc001b596                is_window_maximized
                0xc001ad0a                windowShowWindowList
                0xc001bed1                z_order_get_free_slot
                0xc001be9c                set_top_window
                0xc001b732                change_active_window
 .text          0xc001bf44      0x3e0 desktop.o
                0xc001bff7                init_desktop_list
                0xc001c111                set_current_traywindow
                0xc001c12d                set_current_tooltipwindow
                0xc001bf9e                set_current_desktop
                0xc001c200                init_desktop
                0xc001c0f5                set_current_messagewindow
                0xc001c1c8                set_current_menuHScroll
                0xc001c021                CreateDesktop
                0xc001c0d9                set_current_foreground
                0xc001c149                change_foreground
                0xc001c1ac                set_current_dialogsysMenu
                0xc001bfb6                get_current_desktop
                0xc001bf44                RegisterDesktop
                0xc001c190                set_current_sysMenu
                0xc001bfed                get_current_desktop_id
                0xc001c0bd                set_current_menuwindow
                0xc001c1e4                set_current_menuVScroll
 .text          0xc001c324      0x1d0 wstation.o
                0xc001c324                get_current_windowstation
                0xc001c488                init_window_station
                0xc001c45e                init_windowstation_list
                0xc001c404                RegisterWindowStation
                0xc001c368                CreateWindowStation
                0xc001c350                set_current_windowstation
 .text          0xc001c4f4      0x230 usession.o
                0xc001c68f                init_user_session
                0xc001c4f4                get_current_user_session
                0xc001c658                open_user_session
                0xc001c5f1                close_user_session
                0xc001c52b                CreateUserSession
 .text          0xc001c724      0xc90 gramado.o
                0xc001d1ac                guiGetDebugWindow
                0xc001d258                guiGetShellWindowWindow
                0xc001cf46                gui_create_navigationbar
                0xc001d12b                guiGetTooltipWindow
                0xc001d0d5                guiGetMenuWindow
                0xc001cd93                gui_create_mainwindow
                0xc001cf08                gui_create_messagebox
                0xc001d348                init_gui
                0xc001d156                guiGetMessageboxWindow
                0xc001d082                guiGetStatusbarWindow
                0xc001d00a                guiGetDesktopWindow
                0xc001cee9                gui_create_infobox
                0xc001d100                guiGetInfoboxWindow
                0xc001d1d7                guiGetMbhWindowWindow
                0xc001cfba                guiGetBackgroundWindow
                0xc001d2ae                guiSetUpMainWindow
                0xc001cee4                gui_create_controlmenu
                0xc001cf92                guiGetDeveloperScreenWindow
                0xc001d283                guiGetShellClientWindowWindow
                0xc001d3a3                init_gramado
                0xc001d05a                guiGetMainWindow
                0xc001cf4b                gui_create_grid
                0xc001ca21                SetGuiParameters
                0xc001cc9f                gui_create_taskbar
                0xc001d032                guiGetTaskbarWindow
                0xc001d39e                gramado
                0xc001d202                guiGetTopbarWindow
                0xc001c724                create_gui
                0xc001cf27                gui_create_debug
                0xc001d22d                guiGetNavigationbarWindow
                0xc001d181                guiGetDialogboxWindow
                0xc001cf6a                guiGetScreenWindow
                0xc001cac4                gui_create_screen
                0xc001d0aa                guiGetGridWindow
                0xc001cfe2                guiGetLogoWindow
                0xc001cedf                gui_create_logo
                0xc001cbaa                gui_create_background
 .text          0xc001d3b4       0x60 object.o
                0xc001d3b4                init_object_manager
 .text          0xc001d414      0x2f0 userenv.o
                0xc001d5b5                SetCurrentGroupId
                0xc001d5e1                GetCurrentGroupId
                0xc001d6ea                init_user_environment_manager
                0xc001d57f                SetCurrentUserId
                0xc001d414                startUserEnvironment
                0xc001d4b4                CreateUser
                0xc001d637                init_user_info
                0xc001d5ab                GetCurrentUserId
                0xc001d4a5                config_user
                0xc001d446                ShowUserInfo
                0xc001d5eb                UpdateUserInfo
 .text          0xc001d704      0xa60 procedure.o
                0xc001dfd3                procedureMakeTests
                0xc001d841                terminal_dialog
                0xc001dba0                SendMessage
                0xc001d704                ldisc_dialog
                0xc001db8b                SetProcedure
                0xc001d84b                system_procedure
                0xc001dbc8                procedureHelp
                0xc001e135                procedureGrid
                0xc001db73                registra_procedimento
                0xc001e09e                procedureWindowWithFocusTest
                0xc001df98                procedureLinkDriverTest
 .text          0xc001e164       0x80 systemcall.o
                0xc001e164                systemcall
                0xc001e1c0                jmp_address
 .text          0xc001e1e4       0x20 install.o
                0xc001e1ee                install_bootmanager_stage1
                0xc001e1f3                install_bootmanager_stage2
                0xc001e1e4                install_os
                0xc001e1f8                install_bootmanager_metafile
                0xc001e1e9                install_boot_manager
 .text          0xc001e204      0x150 debug.o
                0xc001e204                debug_check_inicialization
                0xc001e2fc                debug
                0xc001e2a4                debug_check_drivers
                0xc001e2cf                debug_compute_checksum
                0xc001e2b6                debug_breakpoint
 .text          0xc001e354      0x140 abort.o
                0xc001e37a                KiAbort
                0xc001e385                abort
                0xc001e36d                systemAbort
                0xc001e354                KeAbort
 .text          0xc001e494      0x220 faults.o
                0xc001e647                KiCpuFaults
                0xc001e65f                do_pagefault
                0xc001e494                faults
 .text          0xc001e6b4      0xce0 services.o
                0xc001e6b4                services
                0xc001f383                servicesChangeProcedure
                0xc001f394                _code_end = .
                0xc0020000                . = ALIGN (0x1000)
 *fill*         0xc001f394      0xc6c 00

.data           0xc0020000    0x12000
                0xc0020000                _data_begin = .
 *(.data)
 .data          0xc0020000        0x2 head.o
                0xc0020000                data_start
 *fill*         0xc0020002        0x2 00
 .data          0xc0020004      0x200 main.o
 .data          0xc0020204      0x200 io.o
 .data          0xc0020404      0x200 hal.o
 .data          0xc0020604      0x200 microkernel.o
 .data          0xc0020804      0x200 executive.o
 .data          0xc0020a04      0x200 video.o
 .data          0xc0020c04      0x200 screen.o
 .data          0xc0020e04      0x200 runtime.o
 .data          0xc0021004      0x200 ports.o
 .data          0xc0021204      0x200 x86.o
 .data          0xc0021404      0x200 stdio.o
 .data          0xc0021604      0x200 stdlib.o
 .data          0xc0021804      0x200 string.o
 .data          0xc0021a04      0x200 tty.o
 .data          0xc0021c04      0x200 init.o
 .data          0xc0021e04      0x200 logon.o
 .data          0xc0022004      0x200 logoff.o
 .data          0xc0022204      0x200 cpux86.o
 .data          0xc0022404      0x200 cpuamd.o
 .data          0xc0022604      0x200 memory.o
 .data          0xc0022804      0x200 pages.o
 .data          0xc0022a04      0x200 apic.o
 .data          0xc0022c04      0x200 pic.o
 .data          0xc0022e04      0x200 timer.o
 .data          0xc0023004      0x200 rtc.o
 .data          0xc0023204      0x200 keyboard.o
 .data          0xc0023404      0x200 mouse.o
 .data          0xc0023604      0x200 ldisc.o
 .data          0xc0023804      0x200 hdd.o
 .data          0xc0023a04      0x2e0 pci.o
 .data          0xc0023ce4        0x0 usb.o
 .data          0xc0023ce4      0x200 device.o
 .data          0xc0023ee4      0x200 spawn.o
 .data          0xc00240e4      0x200 callout.o
 .data          0xc00242e4        0x0 callfar.o
 .data          0xc00242e4      0x200 process.o
 .data          0xc00244e4      0x200 pheap.o
 .data          0xc00246e4      0x200 thread.o
 .data          0xc00248e4      0x200 threadi.o
 .data          0xc0024ae4      0x200 theap.o
 .data          0xc0024ce4      0x200 tstack.o
 .data          0xc0024ee4      0x200 create.o
 .data          0xc00250e4      0x200 start.o
 .data          0xc00252e4      0x200 context.o
 .data          0xc00254e4      0x200 tasks.o
 .data          0xc00256e4      0x200 taskswitch.o
 .data          0xc00258e4      0x200 queue.o
 .data          0xc0025ae4      0x200 scheduler.o
 .data          0xc0025ce4      0x200 scheduleri.o
 .data          0xc0025ee4      0x200 dispatch.o
 .data          0xc00260e4      0x200 semaphore.o
 .data          0xc00262e4      0x200 modules.o
 .data          0xc00264e4      0x200 nic.o
 .data          0xc00266e4      0x200 network.o
 .data          0xc00268e4      0x200 socket.o
 .data          0xc0026ae4      0x200 sm.o
 .data          0xc0026ce4      0x200 channel.o
 .data          0xc0026ee4      0x200 ipc.o
 .data          0xc00270e4      0x200 read.o
 .data          0xc00272e4      0x200 write.o
 .data          0xc00274e4      0x200 cf.o
 .data          0xc00276e4      0x200 search.o
 .data          0xc00278e4      0x200 format.o
 .data          0xc0027ae4      0x200 disk.o
 .data          0xc0027ce4      0x200 volume.o
 .data          0xc0027ee4      0x200 fs.o
 .data          0xc00280e4      0x200 misc.o
 .data          0xc00282e4      0x200 request.o
 .data          0xc00284e4      0x200 info.o
 .data          0xc00286e4      0x200 signal.o
 .data          0xc00288e4      0x260 system.o
 .data          0xc0028b44      0x200 background.o
 .data          0xc0028d44      0x200 grid.o
 .data          0xc0028f44      0x200 statusbar.o
 .data          0xc0029144      0x200 menubar.o
 .data          0xc0029344      0x200 menu.o
 .data          0xc0029544      0x200 messagebox.o
 .data          0xc0029744      0x200 dialogbox.o
 .data          0xc0029944      0x200 button.o
 .data          0xc0029b44      0x200 char.o
 .data          0xc0029d44      0x200 pixel.o
 .data          0xc0029f44      0x200 line.o
 .data          0xc002a144      0x200 rect.o
 .data          0xc002a344      0x200 dtext.o
 .data          0xc002a544      0x200 draw.o
 .data          0xc002a744      0x200 vsync.o
 .data          0xc002a944      0x200 bmp.o
 .data          0xc002ab44      0x200 createw.o
 .data          0xc002ad44      0x200 window.o
 .data          0xc002af44      0x200 desktop.o
 .data          0xc002b144      0x200 wstation.o
 .data          0xc002b344      0x200 usession.o
 .data          0xc002b544      0x200 gramado.o
 .data          0xc002b744      0x200 object.o
 .data          0xc002b944      0x200 userenv.o
 .data          0xc002bb44      0x200 procedure.o
 .data          0xc002bd44      0x200 systemcall.o
 .data          0xc002bf44      0x200 install.o
 .data          0xc002c144      0x200 debug.o
 .data          0xc002c344      0x200 abort.o
 .data          0xc002c544      0x200 faults.o
 .data          0xc002c744      0x200 services.o
 *(.rdata)
 .rdata         0xc002c944      0x1e0 main.o
 .rdata         0xc002cb24       0x10 io.o
 .rdata         0xc002cb34       0xc0 hal.o
 .rdata         0xc002cbf4       0xf0 microkernel.o
 .rdata         0xc002cce4       0x30 executive.o
 .rdata         0xc002cd14       0x30 video.o
 .rdata         0xc002cd44       0x20 screen.o
 .rdata         0xc002cd64       0x10 runtime.o
 .rdata         0xc002cd74       0x10 ports.o
 .rdata         0xc002cd84       0x10 x86.o
 .rdata         0xc002cd94      0x120 stdio.o
 .rdata         0xc002ceb4       0x90 stdlib.o
 .rdata         0xc002cf44       0x10 string.o
 .rdata         0xc002cf54       0x40 tty.o
 .rdata         0xc002cf94      0x250 init.o
 .rdata         0xc002d1e4      0x110 logon.o
 .rdata         0xc002d2f4       0x30 logoff.o
 .rdata         0xc002d324      0x250 cpux86.o
 .rdata         0xc002d574       0x10 cpuamd.o
 .rdata         0xc002d584      0x460 memory.o
 .rdata         0xc002d9e4      0x1d0 pages.o
 .rdata         0xc002dbb4       0x10 apic.o
 .rdata         0xc002dbc4       0x10 pic.o
 .rdata         0xc002dbd4       0x30 timer.o
 .rdata         0xc002dc04       0x80 rtc.o
 .rdata         0xc002dc84       0x40 keyboard.o
 .rdata         0xc002dcc4       0x10 mouse.o
 .rdata         0xc002dcd4      0x310 ldisc.o
 .rdata         0xc002dfe4       0x10 hdd.o
 .rdata         0xc002dff4      0x370 pci.o
 .rdata         0xc002e364       0x10 device.o
 .rdata         0xc002e374      0x100 spawn.o
 .rdata         0xc002e474       0x10 callout.o
 .rdata         0xc002e484      0x1c0 process.o
 .rdata         0xc002e644       0x10 pheap.o
 .rdata         0xc002e654       0xb0 thread.o
 .rdata         0xc002e704      0x220 threadi.o
 .rdata         0xc002e924       0x10 theap.o
 .rdata         0xc002e934       0x10 tstack.o
 .rdata         0xc002e944      0x1a0 create.o
 .rdata         0xc002eae4       0xe0 start.o
 .rdata         0xc002ebc4      0x130 context.o
 .rdata         0xc002ecf4       0x10 tasks.o
 .rdata         0xc002ed04      0x1e0 taskswitch.o
 .rdata         0xc002eee4      0x190 queue.o
 .rdata         0xc002f074       0x10 scheduler.o
 .rdata         0xc002f084       0x30 scheduleri.o
 .rdata         0xc002f0b4      0x1b0 dispatch.o
 .rdata         0xc002f264       0x10 semaphore.o
 .rdata         0xc002f274       0x10 modules.o
 .rdata         0xc002f284       0x10 nic.o
 .rdata         0xc002f294       0x10 network.o
 .rdata         0xc002f2a4       0x10 socket.o
 .rdata         0xc002f2b4       0x10 sm.o
 .rdata         0xc002f2c4       0x10 channel.o
 .rdata         0xc002f2d4       0x10 ipc.o
 .rdata         0xc002f2e4      0x160 read.o
 .rdata         0xc002f444       0x90 write.o
 .rdata         0xc002f4d4      0x140 cf.o
 .rdata         0xc002f614       0xd0 search.o
 .rdata         0xc002f6e4       0x10 format.o
 .rdata         0xc002f6f4       0x50 disk.o
 .rdata         0xc002f744       0x50 volume.o
 .rdata         0xc002f794      0x1b0 fs.o
 .rdata         0xc002f944       0x10 misc.o
 .rdata         0xc002f954       0xa0 request.o
 .rdata         0xc002f9f4      0x350 info.o
 .rdata         0xc002fd44       0x10 signal.o
 .rdata         0xc002fd54      0x850 system.o
 .rdata         0xc00305a4       0x10 background.o
 .rdata         0xc00305b4       0x50 grid.o
 .rdata         0xc0030604       0x70 statusbar.o
 .rdata         0xc0030674      0x150 menubar.o
 .rdata         0xc00307c4      0x1e0 menu.o
 .rdata         0xc00309a4       0xb0 messagebox.o
 .rdata         0xc0030a54       0x70 dialogbox.o
 .rdata         0xc0030ac4       0x10 button.o
 .rdata         0xc0030ad4       0x10 char.o
 .rdata         0xc0030ae4       0x40 pixel.o
 .rdata         0xc0030b24       0x10 line.o
 .rdata         0xc0030b34       0x10 rect.o
 .rdata         0xc0030b44       0x10 dtext.o
 .rdata         0xc0030b54       0x10 draw.o
 .rdata         0xc0030b64       0x10 vsync.o
 .rdata         0xc0030b74       0x20 bmp.o
 .rdata         0xc0030b94       0xb0 createw.o
 .rdata         0xc0030c44      0x420 window.o
 .rdata         0xc0031064       0x40 desktop.o
 .rdata         0xc00310a4       0x50 wstation.o
 .rdata         0xc00310f4       0x90 usession.o
 .rdata         0xc0031184      0x190 gramado.o
 .rdata         0xc0031314       0x30 object.o
 .rdata         0xc0031344       0xb0 userenv.o
 .rdata         0xc00313f4      0x340 procedure.o
 .rdata         0xc0031734       0x10 systemcall.o
 .rdata         0xc0031744       0x10 install.o
 .rdata         0xc0031754      0x150 debug.o
 .rdata         0xc00318a4       0xa0 abort.o
 .rdata         0xc0031944      0x1a0 faults.o
 .rdata         0xc0031ae4      0x4d0 services.o
                0xc0031fb4                _data_end = .
                0xc0032000                . = ALIGN (0x1000)
 *fill*         0xc0031fb4       0x4c 00

.bss            0xc0032000    0x21000
                0xc0032000                _bss_begin = .
 *(.bss)
 .bss           0xc0032000        0x0 head.o
                0xc0032000                bss_start
 .bss           0xc0032000       0x20 main.o
 .bss           0xc0032020       0x20 io.o
 .bss           0xc0032040       0x20 hal.o
 .bss           0xc0032060       0x20 microkernel.o
 .bss           0xc0032080       0x20 executive.o
 .bss           0xc00320a0       0x20 video.o
 .bss           0xc00320c0       0x20 screen.o
 .bss           0xc00320e0       0x20 runtime.o
 .bss           0xc0032100       0x20 ports.o
 .bss           0xc0032120       0x20 x86.o
 .bss           0xc0032140       0x30 stdio.o
 .bss           0xc0032170       0x20 stdlib.o
 .bss           0xc0032190       0x30 string.o
 .bss           0xc00321c0       0x20 tty.o
 .bss           0xc00321e0       0x20 init.o
 .bss           0xc0032200       0x20 logon.o
 .bss           0xc0032220       0x20 logoff.o
 .bss           0xc0032240       0x20 cpux86.o
 .bss           0xc0032260       0x20 cpuamd.o
 .bss           0xc0032280       0x20 memory.o
 .bss           0xc00322a0       0x20 pages.o
 .bss           0xc00322c0       0x20 apic.o
 .bss           0xc00322e0       0x20 pic.o
 .bss           0xc0032300       0x20 timer.o
 .bss           0xc0032320       0x20 rtc.o
 .bss           0xc0032340       0x20 keyboard.o
 .bss           0xc0032360       0x20 mouse.o
 .bss           0xc0032380       0x40 ldisc.o
 .bss           0xc00323c0       0x20 hdd.o
 .bss           0xc00323e0       0x20 pci.o
 .bss           0xc0032400        0x0 usb.o
 .bss           0xc0032400       0x20 device.o
 .bss           0xc0032420       0x20 spawn.o
 .bss           0xc0032440       0x20 callout.o
 .bss           0xc0032460        0x0 callfar.o
 .bss           0xc0032460       0x20 process.o
 .bss           0xc0032480       0x20 pheap.o
 .bss           0xc00324a0       0x20 thread.o
 .bss           0xc00324c0       0x20 threadi.o
 .bss           0xc00324e0       0x20 theap.o
 .bss           0xc0032500       0x20 tstack.o
 .bss           0xc0032520       0x20 create.o
 .bss           0xc0032540       0x20 start.o
 .bss           0xc0032560       0x20 context.o
 .bss           0xc0032580       0x20 tasks.o
 .bss           0xc00325a0       0x20 taskswitch.o
 .bss           0xc00325c0       0x20 queue.o
 .bss           0xc00325e0       0x20 scheduler.o
 .bss           0xc0032600       0x20 scheduleri.o
 .bss           0xc0032620       0x20 dispatch.o
 .bss           0xc0032640       0x20 semaphore.o
 .bss           0xc0032660       0x20 modules.o
 .bss           0xc0032680       0x20 nic.o
 .bss           0xc00326a0       0x20 network.o
 .bss           0xc00326c0       0x20 socket.o
 .bss           0xc00326e0       0x20 sm.o
 .bss           0xc0032700       0x20 channel.o
 .bss           0xc0032720       0x20 ipc.o
 .bss           0xc0032740       0x20 read.o
 .bss           0xc0032760       0x20 write.o
 .bss           0xc0032780       0x20 cf.o
 .bss           0xc00327a0       0x20 search.o
 .bss           0xc00327c0       0x20 format.o
 .bss           0xc00327e0       0x20 disk.o
 .bss           0xc0032800       0x20 volume.o
 .bss           0xc0032820       0x20 fs.o
 .bss           0xc0032840       0x20 misc.o
 .bss           0xc0032860       0x20 request.o
 .bss           0xc0032880       0x20 info.o
 .bss           0xc00328a0       0x20 signal.o
 .bss           0xc00328c0       0x20 system.o
 .bss           0xc00328e0       0x20 background.o
 .bss           0xc0032900       0x20 grid.o
 .bss           0xc0032920       0x20 statusbar.o
 .bss           0xc0032940       0x20 menubar.o
 .bss           0xc0032960       0x20 menu.o
 .bss           0xc0032980       0x20 messagebox.o
 .bss           0xc00329a0       0x20 dialogbox.o
 .bss           0xc00329c0       0x20 button.o
 .bss           0xc00329e0       0x20 char.o
 .bss           0xc0032a00       0x20 pixel.o
 .bss           0xc0032a20       0x20 line.o
 .bss           0xc0032a40       0x20 rect.o
 .bss           0xc0032a60       0x20 dtext.o
 .bss           0xc0032a80       0x20 draw.o
 .bss           0xc0032aa0       0x20 vsync.o
 .bss           0xc0032ac0       0x20 bmp.o
 .bss           0xc0032ae0       0x20 createw.o
 .bss           0xc0032b00       0x20 window.o
 .bss           0xc0032b20       0x20 desktop.o
 .bss           0xc0032b40       0x20 wstation.o
 .bss           0xc0032b60       0x20 usession.o
 .bss           0xc0032b80       0x20 gramado.o
 .bss           0xc0032ba0       0x20 object.o
 .bss           0xc0032bc0       0x20 userenv.o
 .bss           0xc0032be0       0x20 procedure.o
 .bss           0xc0032c00       0x20 systemcall.o
 .bss           0xc0032c20       0x20 install.o
 .bss           0xc0032c40       0x20 debug.o
 .bss           0xc0032c60       0x20 abort.o
 .bss           0xc0032c80       0x20 faults.o
 .bss           0xc0032ca0       0x20 services.o
 *(COMMON)
 COMMON         0xc0032cc0    0x1eeb0 main.o
                0xc0032cc0                framepoolBackBuffer3
                0xc0032cd0                guiMenu
                0xc0032ce0                usessionList
                0xc0032d20                terminalOffsetMax
                0xc0032d30                g_backbuffer_va
                0xc0032d40                g_module_volume_initialized
                0xc0032d50                server_stdio
                0xc0032d60                menuList
                0xc0033160                Graphics
                0xc0033170                framepoolList
                0xc0034170                dispatcherType
                0xc0034180                pci_handler_address
                0xc0034190                mainButton3
                0xc00341a0                zicaaaaadasf
                0xc00341b0                IdleThread
                0xc00341c0                Irq9
                0xc00341d0                ld_keyboard_queue
                0xc00341e0                g_frontbuffer_va
                0xc00341f0                clientCW
                0xc0034200                userconfig_Status
                0xc0034210                prompt
                0xc0034310                MenuBar
                0xc0034320                semaforo_color
                0xc0034330                g_module_debug_initialized
                0xc0034340                threadList
                0xc0034740                pci_device
                0xc0034750                g_module_disk_initialized
                0xc0034760                EDITBOX_LARGURA
                0xc0034770                terminalOffset
                0xc0034780                CurrentVolumeInfo
                0xc0034790                kernel_heap_end
                0xc00347a0                screenGrid
                0xc00349a0                windowzoneStart
                0xc00349b0                partition
                0xc00349c0                input_line
                0xc00349d0                gsrcDir
                0xc00349e0                fatbits
                0xc00349f0                g9x14fontAddress
                0xc0034a00                framepoolBackBuffer2
                0xc0034a10                CurrentChannel
                0xc0034a20                task_switch_status
                0xc0034a30                systemzoneEnd
                0xc0034a40                CurrentConsole
                0xc0034a50                lineOffsetMax
                0xc0034a60                serverSP
                0xc0034a70                wsDefault
                0xc0034a80                LocalHostHTTPSocket
                0xc0034a90                GRID
                0xc0034aa0                ip_address
                0xc0034ab0                preempted_task
                0xc0034ac0                ActiveWindow
                0xc0034ad0                KernelArgs
                0xc0034ae0                Irq5
                0xc0034af0                Irq13
                0xc0034b00                terminalWindowWithFocus
                0xc0034b10                Irq2
                0xc0034b20                pcideviceList
                0xc0034ba0                IpcProcedure
                0xc0034bb0                file_root
                0xc0034bc0                g_navigationbar_height
                0xc0034bd0                keyboard_message_head
                0xc0034be0                file_Idle
                0xc0034bf0                windowstations_count
                0xc0034c00                pmiMemoryInfo
                0xc0034c10                usersDir
                0xc0034c20                TaskManThread
                0xc0034c30                Irq15
                0xc0034c40                g_module_fs_initialized
                0xc0034c50                framepoolBackBuffer4
                0xc0034c60                g_driver_hdd_initialized
                0xc0034c70                g9x16fontAddress
                0xc0034c80                systemzoneStart
                0xc0034c90                waiting_procs
                0xc0034ca0                EDITBOX_BG_COLOR
                0xc0034cb0                running_tasks
                0xc0034cc0                _io_table
                0xc0034d10                desktop_Conductor2
                0xc0034d20                g_device_screen_width
                0xc0034d30                desktop_rootConductor
                0xc0034d40                fsbFrames
                0xc0035d40                g_user_space_framepool_index
                0xc0035d50                Initialization
                0xc0035d70                Console
                0xc0035d80                systemzoneSize
                0xc0035d90                zorderCounter
                0xc0035da0                mmFramesSuperBlockTotalUsed
                0xc0035db0                quantum
                0xc0035dc0                stderr
                0xc0035dd0                g_mainwindow_width
                0xc0035de0                cur_process
                0xc0035df0                CurrentWindowStation
                0xc0035e00                waiting_list_head
                0xc0035e10                FileAccess
                0xc0035e20                tmpDir
                0xc0035e30                g_logged
                0xc0035e40                file_TaskMan
                0xc0035e50                RGBA
                0xc0035e60                desktop0
                0xc0035e70                blocked_list_head
                0xc0035e80                gui
                0xc0035e90                CurrentUserSession
                0xc0035ea0                STATUS_X
                0xc0035eb0                g_device_screen_height
                0xc0035ec0                g_mousepointer_height
                0xc0035ed0                g_module_uem_initialized
                0xc0035ee0                current_tab
                0xc0035ef0                processor
                0xc0035f00                userList
                0xc0035f40                prompt_pos
                0xc0035f50                Irq10
                0xc0035f60                Conductor
                0xc0035f70                ide_handler_address
                0xc0035f80                Process
                0xc0035f90                mbr
                0xc0035fa0                volumeinfo
                0xc0035fb0                CurrentTerminal
                0xc0035fc0                current_mmblock
                0xc0035fd0                deviceList
                0xc00363d0                ASpace
                0xc00363e0                objects_um
                0xc0039c20                BootLoader
                0xc0039c30                downloadDir
                0xc0039c40                mmFramesSuperBlockSize
                0xc0039c50                kernel_stack_start
                0xc0039c60                Rtc
                0xc0039c70                STATUS_Y
                0xc0039c80                start_new_task_address
                0xc0039c90                g_module_gui_initialized
                0xc0039ca0                KeInitPhase
                0xc0039cb0                BROWSERWINDOW
                0xc0039cc0                windows_count
                0xc0039cd0                pagetableList
                0xc003acd0                combobox_window
                0xc003ace0                framepoolBackBuffer1
                0xc003acf0                g_driver_video_initialized
                0xc003ad00                active_window
                0xc003ad10                objects_km
                0xc003e550                vfs
                0xc003e560                current_pci_device
                0xc003e570                Hardware
                0xc003e580                DefaultUserSession
                0xc003e590                current_process
                0xc003e5a0                mmglobalInitialingVAR
                0xc003e5b0                current_desktop
                0xc003e5c0                gsdkDir
                0xc003e5d0                Cursor
                0xc003e5e0                requestList
                0xc003e660                usession0
                0xc003e670                CurrentSocket
                0xc003e680                TaskBar
                0xc003e690                g_module_logoff_initialized
                0xc003e6a0                pagetableCurrent
                0xc003e6b0                terminalList
                0xc003e6d0                ws2
                0xc003e6e0                usession_Conductor
                0xc003e6f0                g8x14fontAddress
                0xc003e700                Irq12
                0xc003e710                mainButton1
                0xc003e720                scStatus
                0xc003e730                stdin
                0xc003e740                buffer_dir_entry
                0xc003e940                g_frontbuffer_pa
                0xc003e950                mmFramesSuperBlockTotalFree
                0xc003e960                gcharWidth
                0xc003e970                logonMenu
                0xc003e980                file_BootLoader
                0xc003e990                socketList
                0xc003ea10                g_module_logon_initialized
                0xc003ea20                client_stderr
                0xc003ea30                next_address
                0xc003ea40                destroy_window
                0xc003ea50                dispatcherQueueIndex
                0xc003ea60                kernel_heap_start
                0xc003ea70                g8x16fontAddress
                0xc003ea80                g_current_object
                0xc003ea90                PrideColorScheme
                0xc003eaa0                mac_address
                0xc003eab0                SystemDiskInfo
                0xc003eac0                queue
                0xc003ead0                DispatchCountBlock
                0xc003eae0                gfontAddress
                0xc003eaf0                currentDir
                0xc003eb00                gdocsDir
                0xc003eb10                kernel_stack_start_pa
                0xc003eb20                rect
                0xc003eb30                partition_chars
                0xc003eb40                logonStatus
                0xc003eb50                current_window
                0xc003eb60                framepoolFrontBuffer3
                0xc003eb70                BootManager
                0xc003eb80                g_available_heap
                0xc003eb90                start_new_task_id
                0xc003eba0                process_Conductor2
                0xc003ebb0                schedulerType
                0xc003ebc0                g_cursor_width
                0xc003ebd0                g_new_message
                0xc003ebe0                KernelInfo
                0xc003ebf0                Firmware
                0xc003ec00                file_BootManager
                0xc003ec10                current_keyboard_responder
                0xc003ec20                system_message_write
                0xc003ec30                semaforo_priority
                0xc003ec40                g_module_objectmanager_initialized
                0xc003ec50                terminalActiveWindow
                0xc003ec60                windowstationList
                0xc003eca0                zorderTopWindow
                0xc003ecb0                g_current_framepool
                0xc003ecc0                DefaultUser
                0xc003ecd0                task_color
                0xc003ece0                framepoolFrontBuffer1
                0xc003ecf0                heapCount
                0xc003ed00                windowzoneEnd
                0xc003ed10                Thread
                0xc003ed20                g_pagedpool_va
                0xc003ed30                ProcessorBlock
                0xc003ed60                current_mouse_responder
                0xc003ed70                pagedirectoryIdleProcess
                0xc003ed80                TABWINDOW
                0xc003ed90                client_stdio
                0xc003eda0                KernelRequests
                0xc003edb0                EDITBOX_ALTURA
                0xc003edc0                usersession_start
                0xc003edd0                g_cursor_top
                0xc003ede0                CurrentProcedure
                0xc003edf0                mmFramesSuperBlockTotal
                0xc003ee00                periodic_procs
                0xc003ee10                g_inputmode
                0xc003ee20                UserHeap
                0xc003ee30                keyboard_handler_address
                0xc003ee40                SystemVolume
                0xc003ee50                kernel_stack_end
                0xc003ee60                file_Kernel
                0xc003ee70                g_object_manager_status
                0xc003ee80                g_cursor_right
                0xc003ee90                desktop_Conductor
                0xc003eea0                ring0_exported
                0xc003eeb0                InitProcess
                0xc003eec0                microkernelStatus
                0xc003eed0                zones
                0xc003eee0                lineBuffer
                0xc003eef0                miMemoryInfo
                0xc003ef00                desktopDefault
                0xc003ef10                g_module_runtime_initialized
                0xc003ef20                process_info_t
                0xc003ef30                VersionInfo
                0xc003ef40                system_procs
                0xc003ef50                window_with_focus
                0xc003ef60                g_proc_status
                0xc003ef70                framepoolCurrent
                0xc003ef80                desktopList
                0xc003efc0                gbuildDir
                0xc003efd0                gNextKeyboardMessage
                0xc003efe0                pagedirectoryShared
                0xc003eff0                g_spc
                0xc003f000                KernelHeap
                0xc003f010                pagedirectoryCurrent
                0xc003f020                CurrentWindow
                0xc003f030                g_product_type
                0xc003f040                vbr
                0xc003f050                Irq14
                0xc003f060                g_heap_pointer
                0xc003f070                LineShell
                0xc003f080                ipcStatus
                0xc003f090                WindowWithFocus
                0xc003f0a0                task_count
                0xc003f0b0                Screen
                0xc003f0c0                current_windowstation
                0xc003f0d0                channelList
                0xc003f150                g_kernel_nonpaged_memory
                0xc003f160                timer_handler_address
                0xc003f170                kernel_switch
                0xc003f180                guiStatus
                0xc003f190                window_rootConductor
                0xc003f1a0                terminalLineMax
                0xc003f1b0                heapList
                0xc003f1d0                ttyCurrentX
                0xc003f1e0                CurrentDesktop
                0xc003f1f0                DriveContext
                0xc003f200                prompt_err
                0xc003f300                abnt2
                0xc003f310                gFocusBlocked
                0xc003f320                sata_handler_address
                0xc003f330                desktops_count
                0xc003f340                KernelPages
                0xc003f350                g_driver_apic_initialized
                0xc003f360                _lockfocus
                0xc003f370                current_usersession
                0xc003f380                g_video_mode
                0xc003f390                fat
                0xc003f3a0                ttyCurrentY
                0xc003f3b0                stdio_verbosemode_flag
                0xc003f3c0                mmFramesSuperBlockEnd
                0xc003f3d0                processList
                0xc003f7d0                memorysizeExtendedMemory
                0xc003f7e0                Irq8
                0xc003f7f0                lineLine
                0xc003f800                gPagedPollStart
                0xc003f810                g_backbuffer_pa
                0xc003f820                CurrentVolume
                0xc003f830                systemzone
                0xc003f840                KernelLogBuffer
                0xc003fa40                keyboard_message_tail
                0xc003fa50                rootDir
                0xc003fa60                pageframeList
                0xc0040a60                start_new_task_status
                0xc0040a70                CurrentProcess
                0xc0040a80                framepoolFrontBuffer4
                0xc0040a90                current_semaphore
                0xc0040aa0                kernel_tick_total
                0xc0040ab0                realtimeprocessorList
                0xc0040b30                CurrentDiskInfo
                0xc0040b40                timer_cursor_used
                0xc0040b50                file_Current
                0xc0040b60                clientCP
                0xc0040b70                EDITBOX_TEXT_COLOR
                0xc0040b80                g_total_physical_memory
                0xc0040b90                ready_list_head
                0xc0040ba0                browsertabList
                0xc0040bd0                g_mousepointer_width
                0xc0040be0                usession_rootConductor
                0xc0040bf0                line_stderr
                0xc0040c00                lineOffset
                0xc0040c10                window_Conductor2
                0xc0040c20                g_machine_type
                0xc0040c30                client_stdout
                0xc0040c40                eventStatus
                0xc0040c50                Irq11
                0xc0040c60                pageframeCurrent
                0xc0040c70                ipcBuffer
                0xc0040c80                newtask_EIP
                0xc0040c90                top_window
                0xc0040ca0                menuitemDefault
                0xc0040cb0                g_scheduler_status
                0xc0040cc0                FULLSCREEN_TABWINDOW
                0xc0040cd0                quit_message
                0xc0040ce0                diskinfo
                0xc0040cf0                TaskManProcess
                0xc0040d00                LineHead
                0xc0040d10                SystemUser
                0xc0040d20                current_quantum
                0xc0040d30                __ipc_kernel_spinlock
                0xc0040d40                stdout
                0xc0040d50                windowzoneSize
                0xc0040d60                g_driver_rtc_initialized
                0xc0040d70                SystemClasses
                0xc0040d80                objects_gui
                0xc00445c0                g_navigationbar_width
                0xc00445d0                windowList
                0xc00449d0                EDITBOX_Y
                0xc00449e0                wstation_Conductor2
                0xc00449f0                gPagedPollEnd
                0xc0044a00                windowzone
                0xc0044a10                ShellThread
                0xc0044a20                Irq6
                0xc0044a30                g_cursor_left
                0xc0044a40                g_system_color
                0xc0044a50                g_cursor_bottom
                0xc0044a60                defaultChannel
                0xc0044a70                Irq3
                0xc0044a80                realtimeStatus
                0xc0044a90                editbox_window
                0xc0044aa0                kernel_request
                0xc0044ab0                idle_thread
                0xc0044ac0                g_pageable_framepool_index_max
                0xc0044ad0                current_thread
                0xc0044ae0                Bank
                0xc0044af0                fileBuffer
                0xc0044b00                timer_cursor_status
                0xc0044b10                g_current_vm
                0xc0044b20                rectClientArea
                0xc0044b30                file_Shell
                0xc0044b40                schedulerQueue
                0xc0044b50                systemSize
                0xc0044b60                object
                0xc0044b70                gDeveloperOptions
                0xc0044b80                keybuffer
                0xc0044c00                keyboard_queue
                0xc0044d20                forkid
                0xc0044d30                menus_count
                0xc0044d40                current_volume
                0xc0044d50                shutdown_address
                0xc0044d60                devices
                0xc0044d70                terminalLine
                0xc0044d80                serialportError
                0xc0044d90                desktop1
                0xc0044da0                gcharHeight
                0xc0044db0                g_use_default_user
                0xc0044dc0                CurrentDisk
                0xc0044dd0                framepoolFrontBuffer2
                0xc0044de0                diskList
                0xc0044e00                server_stderr
                0xc0044e10                Conductor2
                0xc0044e20                KernelClasses
                0xc0044e30                fsbFreeFrames
                0xc0045e30                screenBuffers
                0xc0045e40                current_process_pagedirectory_address
                0xc0045e50                rr_procs
                0xc0045e60                KernelProcess
                0xc0045e70                framepoolPageableSpace
                0xc0045e80                lineLineMax
                0xc0045e90                KernelHeapSize
                0xc0045ea0                HostDeviceInfo
                0xc0045eb0                prompt_out
                0xc0045fb0                g_driver_pci_initialized
                0xc0045fc0                gramadoDir
                0xc0045fd0                file_cluster_list
                0xc0046fd0                memorysizeOtherMemory
                0xc0046fe0                IpcProcedureEx
                0xc0046ff0                mmblockList
                0xc004eff0                g_driver_timer_initialized
                0xc004f000                HostInfo
                0xc004f010                Irq0
                0xc004f020                DSpace
                0xc004f030                g_next_app
                0xc004f040                cmdDir
                0xc004f050                pageframeAllocList
                0xc0050050                idle_proc
                0xc0050060                clientCR
                0xc0050070                g_useGUI
                0xc0050080                g_filesystem_type
                0xc0050090                Irq4
                0xc00500a0                dirCount
                0xc00500b0                ShellProcess
                0xc00500c0                keybuffer_head
                0xc00500d0                CurrentBuffer
                0xc00500e0                CurrentColorScheme
                0xc00500f0                next_quantum
                0xc0050100                process_rootConductor
                0xc0050110                stdio_terminalmode_flag
                0xc0050120                menuDefault
                0xc0050130                framepoolSmallSystemUserSpace
                0xc0050140                zicaaa
                0xc0050150                rootConductor
                0xc0050160                gSystemStatus
                0xc0050170                DeveloperWindowCursor
                0xc0050180                Version
                0xc0050190                file_pwd
                0xc00501a0                userenvironmentStatus
                0xc00501b0                g_guiMinimal
                0xc00501c0                time_out
                0xc00501d0                pagedirectoryKernelProcess
                0xc00501e0                g_mainwindow_height
                0xc00501f0                VideoBlock
                0xc0050210                System
                0xc0050220                KernelSize
                0xc0050230                Line
                0xc0050240                dispatcherReadyList
                0xc0050270                ScreenInfo
                0xc0050280                CurrentCursor
                0xc0050290                g8x8fontAddress
                0xc00502a0                KernelStackSize
                0xc00502b0                zica
                0xc00502c0                keybuffer_index
                0xc00502d0                g_cursor_color
                0xc00502e0                memorysizeTotal
                0xc00502f0                g_system_mode
                0xc0050300                Irq1
                0xc0050310                g_current_video_mode
                0xc0050320                ws0
                0xc0050330                cur_thread
                0xc0050340                current_group
                0xc0050350                process_Conductor
                0xc0050360                BackBufferInfo
                0xc0050370                conductorIndex
                0xc0050380                g_framepool_max
                0xc0050390                task_waiting
                0xc00503a0                keybuffer_tail
                0xc00503b0                g_cursor_y
                0xc00503c0                Irq7
                0xc00503d0                banksCount
                0xc00503e0                Pic
                0xc00503f0                Platform
                0xc0050400                system_message_read
                0xc0050410                fileList
                0xc0050490                wstation_Conductor
                0xc00504a0                errno
                0xc00504b0                old
                0xc00504c0                zorderList
                0xc00506c0                gSystemEdition
                0xc00506d0                pagedirectoryList
                0xc00516d0                framepoolMediumSystemUserSpace
                0xc00516e0                menubarDefault
                0xc00516f0                filesystem
                0xc0051700                logoffStatus
                0xc0051710                current_user
                0xc0051720                WindowProcedure
                0xc0051730                kernel_tick
                0xc0051740                framepoolKernelSpace
                0xc0051750                memorysizeBaseMemory
                0xc0051760                server_stdout
                0xc0051770                g_file_system_type
                0xc0051780                mmblockCount
                0xc0051790                prompt_status
                0xc00517a0                pagedirectoryTaskmanProcess
                0xc00517b0                ambiente
                0xc00517c0                framepoolLargeSystemUserSpace
                0xc00517d0                g_platform_type
                0xc00517e0                line_stdin
                0xc00517f0                g_kernel_paged_memory
                0xc0051800                mmFramesSuperBlockStart
                0xc0051810                mouseBMPBuffer
                0xc0051820                g_driver_keyboard_initialized
                0xc0051830                wstation_rootConductor
                0xc0051840                rtc
                0xc0051850                window_Conductor
                0xc0051860                lastBank
                0xc0051870                g_mm_system_type
                0xc0051880                g_kernel_lfb
                0xc0051890                ws1
                0xc00518a0                PciDrivers
                0xc00518b0                system_message_queue
                0xc0051930                usession_Conductor2
                0xc0051940                terminal_window
                0xc0051950                mainButton2
                0xc0051960                CurrentScreen
                0xc0051970                queueList
                0xc0051990                ttyLineCounter
                0xc00519a0                g_char_attrib
                0xc00519b0                HumilityColorScheme
                0xc00519c0                g_module_shell_initialized
                0xc00519d0                g_next_proc
                0xc00519e0                semaphoreList
                0xc0051a70                FrontBufferInfo
                0xc0051a80                g_current_list
                0xc0051a90                line_stdout
                0xc0051aa0                g_module_mm_initialized
                0xc0051ab0                g_cursor_height
                0xc0051ac0                volumeList
                0xc0051b00                g_nova_mensagem
                0xc0051b10                current_menu
                0xc0051b20                pmiCurrent
                0xc0051b30                Pci
                0xc0051b40                EDITBOX_X
                0xc0051b50                g_cursor_x
                0xc0051b60                CurrentUser
 COMMON         0xc0051b70       0x10 microkernel.o
                0xc0051b70                localsstuff1
 COMMON         0xc0051b80       0x20 video.o
                0xc0051b80                videoError
                0xc0051b90                videoStatus
 COMMON         0xc0051ba0       0x20 screen.o
                0xc0051ba0                screen_height
                0xc0051bb0                screen_width
 COMMON         0xc0051bc0       0x30 memory.o
                0xc0051bc0                mm_prev_pointer
                0xc0051bd0                last_size
                0xc0051be0                last_valid
 COMMON         0xc0051bf0       0x20 pic.o
                0xc0051bf0                picError
                0xc0051c00                picStatus
 COMMON         0xc0051c10       0x70 timer.o
                0xc0051c10                timerTicks
                0xc0051c20                timerColor
                0xc0051c30                timerStatus
                0xc0051c40                timerIdleState
                0xc0051c50                timerError
                0xc0051c60                timerLock
                0xc0051c70                timerLine
 COMMON         0xc0051c80       0x30 rtc.o
                0xc0051c80                rtcError
                0xc0051c90                rtcTicks
                0xc0051ca0                rtcStatus
 COMMON         0xc0051cb0       0x40 keyboard.o
                0xc0051cb0                _write_offset
                0xc0051cc0                _read_offset
                0xc0051cd0                _keyboard_queue
 COMMON         0xc0051cf0      0x130 ldisc.o
                0xc0051cf0                scrolllock_status
                0xc0051d00                delta_x
                0xc0051d10                mouse_buttom_3
                0xc0051d20                capslock_status
                0xc0051d30                numlock_status
                0xc0051d40                shift_status
                0xc0051d50                alt_status
                0xc0051d60                kbMsgStatus
                0xc0051d70                mouse_pos_x
                0xc0051d80                mouse_buttom_1
                0xc0051d90                mouse_status
                0xc0051da0                delta_y
                0xc0051db0                escape_status
                0xc0051dc0                mouse_pos_y
                0xc0051dd0                tab_status
                0xc0051de0                key_status
                0xc0051df0                ctrl_status
                0xc0051e00                winkey_status
                0xc0051e10                mouse_buttom_2
 COMMON         0xc0051e20       0x20 hdd.o
                0xc0051e20                hddError
                0xc0051e30                hddStatus
 COMMON         0xc0051e40       0x20 process.o
                0xc0051e40                processNewPID
                0xc0051e50                caller_process_id
 COMMON         0xc0051e60      0x100 context.o
                0xc0051e60                contextESP
                0xc0051e70                contextEDX
                0xc0051e80                contextFS
                0xc0051e90                contextDS
                0xc0051ea0                contextESI
                0xc0051eb0                contextEIP
                0xc0051ec0                contextGS
                0xc0051ed0                contextEFLAGS
                0xc0051ee0                contextECX
                0xc0051ef0                contextEBP
                0xc0051f00                contextCS
                0xc0051f10                contextEAX
                0xc0051f20                contextEBX
                0xc0051f30                contextEDI
                0xc0051f40                contextES
                0xc0051f50                contextSS
 COMMON         0xc0051f60       0x10 taskswitch.o
                0xc0051f60                lock_taskswitch
 COMMON         0xc0051f70       0x10 network.o
                0xc0051f70                networkTesting
 COMMON         0xc0051f80       0x10 signal.o
                0xc0051f80                Signal
 COMMON         0xc0051f90       0x10 window.o
                0xc0051f90                xxxxsavemessage
 COMMON         0xc0051fa0       0x10 debug.o
                0xc0051fa0                Mind
 COMMON         0xc0051fb0       0xd0 services.o
                0xc0051fb0                cwArg1
                0xc0051fc0                cwArg2
                0xc0051fd0                cwArg11
                0xc0051fe0                cwArg8
                0xc0051ff0                cwArg3
                0xc0052000                cwArg9
                0xc0052010                cwArg10
                0xc0052020                cwFlag
                0xc0052030                cwArg12
                0xc0052040                cwArg5
                0xc0052050                cwArg7
                0xc0052060                cwArg4
                0xc0052070                cwArg6
                0xc0052080                _bss_end = .
                0xc0053000                . = ALIGN (0x1000)
 *fill*         0xc0052080      0xf80 00
                0xc0053000                _kernel_end = .
LOAD head.o
LOAD main.o
LOAD io.o
LOAD hal.o
LOAD microkernel.o
LOAD executive.o
LOAD video.o
LOAD screen.o
LOAD runtime.o
LOAD ports.o
LOAD x86.o
LOAD stdio.o
LOAD stdlib.o
LOAD string.o
LOAD tty.o
LOAD init.o
LOAD logon.o
LOAD logoff.o
LOAD cpux86.o
LOAD cpuamd.o
LOAD memory.o
LOAD pages.o
LOAD apic.o
LOAD pic.o
LOAD timer.o
LOAD rtc.o
LOAD keyboard.o
LOAD mouse.o
LOAD ldisc.o
LOAD hdd.o
LOAD pci.o
LOAD usb.o
LOAD device.o
LOAD spawn.o
LOAD callout.o
LOAD callfar.o
LOAD process.o
LOAD pheap.o
LOAD thread.o
LOAD threadi.o
LOAD theap.o
LOAD tstack.o
LOAD create.o
LOAD start.o
LOAD context.o
LOAD tasks.o
LOAD taskswitch.o
LOAD queue.o
LOAD scheduler.o
LOAD scheduleri.o
LOAD dispatch.o
LOAD semaphore.o
LOAD modules.o
LOAD nic.o
LOAD network.o
LOAD socket.o
LOAD sm.o
LOAD channel.o
LOAD ipc.o
LOAD read.o
LOAD write.o
LOAD cf.o
LOAD search.o
LOAD format.o
LOAD disk.o
LOAD volume.o
LOAD fs.o
LOAD misc.o
LOAD request.o
LOAD info.o
LOAD signal.o
LOAD system.o
LOAD background.o
LOAD grid.o
LOAD statusbar.o
LOAD menubar.o
LOAD menu.o
LOAD messagebox.o
LOAD dialogbox.o
LOAD button.o
LOAD char.o
LOAD pixel.o
LOAD line.o
LOAD rect.o
LOAD dtext.o
LOAD draw.o
LOAD vsync.o
LOAD bmp.o
LOAD createw.o
LOAD window.o
LOAD desktop.o
LOAD wstation.o
LOAD usession.o
LOAD gramado.o
LOAD object.o
LOAD userenv.o
LOAD procedure.o
LOAD systemcall.o
LOAD install.o
LOAD debug.o
LOAD abort.o
LOAD faults.o
LOAD services.o
OUTPUT(KERNEL.BIN pe-i386)

.comment        0x00000000       0x20
 .comment       0x00000000       0x1f head.o
