
Allocating common symbols
Common symbol       size              file

timerShowTextCursor
                    0x4               timer.o
framepoolBackBuffer3
                    0x4               x86main.o
guiMenu             0x4               x86main.o
usessionList        0x40              x86main.o
terminalOffsetMax   0x4               x86main.o
g_backbuffer_va     0x4               x86main.o
g_module_volume_initialized
                    0x4               x86main.o
server_stdio        0x4               x86main.o
menuList            0x400             x86main.o
Graphics            0x4               x86main.o
framepoolList       0x1000            x86main.o
dispatcherType      0x4               x86main.o
pci_handler_address
                    0x4               x86main.o
_write_offset       0x4               keyboard.o
mainButton3         0x4               x86main.o
zicaaaaadasf        0x4               x86main.o
IdleThread          0x4               x86main.o
contextESP          0x4               x86cont.o
Irq9                0x4               x86main.o
g_frontbuffer_va    0x4               x86main.o
clientCW            0x4               x86main.o
userconfig_Status   0x4               x86main.o
prompt              0x100             x86main.o
contextEDX          0x4               x86cont.o
MenuBar             0x4               x86main.o
semaforo_color      0x4               x86main.o
g_module_debug_initialized
                    0x4               x86main.o
threadList          0x1000            x86main.o
pci_device          0x4               x86main.o
g_module_disk_initialized
                    0x4               x86main.o
terminalOffset      0x4               x86main.o
kernel_heap_end     0x4               x86main.o
scrolllock_status   0x4               x86main.o
screenGrid          0x200             x86main.o
windowzoneStart     0x4               x86main.o
partition           0x4               x86main.o
input_line          0x4               x86main.o
cwArg1              0x4               services.o
save_client_rect_top
                    0x4               window.o
dma_addr            0x4               disk1.o
fatbits             0x4               x86main.o
g9x14fontAddress    0x4               x86main.o
framepoolBackBuffer2
                    0x4               x86main.o
CurrentChannel      0x4               x86main.o
task_switch_status  0x4               x86main.o
ata_record_dev      0x1               x86main.o
systemzoneEnd       0x4               x86main.o
CurrentConsole      0x4               x86main.o
lineOffsetMax       0x4               x86main.o
delta_x             0x1               x86main.o
serverSP            0x4               x86main.o
LocalHostHTTPSocket
                    0x4               x86main.o
ioControl_mouse     0x4               x86main.o
GRID                0x4               x86main.o
cursorIconBuffer    0x4               x86main.o
ip_address          0x4               x86main.o
preempted_task      0x4               x86main.o
ActiveWindow        0x4               x86main.o
mouse_buttom_3      0x4               x86main.o
screen_height       0x4               screen.o
capslock_status     0x4               x86main.o
KernelArgs          0x10              x86main.o
contextFS           0x4               x86cont.o
Irq5                0x4               x86main.o
contextDS           0x4               x86cont.o
Irq13               0x4               x86main.o
cwArg2              0x4               services.o
terminalWindowWithFocus
                    0x4               x86main.o
Irq2                0x4               x86main.o
pcideviceList       0x80              x86main.o
IpcProcedure        0x4               x86main.o
fullscreen_window   0x4               x86main.o
contextESI          0x4               x86cont.o
g_navigationbar_height
                    0x4               x86main.o
keyboard_message_head
                    0x4               x86main.o
windowstations_count
                    0x4               x86main.o
textcursorStatus    0x4               x86main.o
pmiMemoryInfo       0x4               x86main.o
SavedRect           0x4               x86main.o
TaskManThread       0x4               x86main.o
current_volume_string
                    0x4               x86main.o
mouse_button_action
                    0x4               x86main.o
Irq15               0x4               x86main.o
g_module_fs_initialized
                    0x4               x86main.o
bmp_change_color_flag
                    0x4               x86main.o
framepoolBackBuffer4
                    0x4               x86main.o
g_driver_hdd_initialized
                    0x4               x86main.o
g9x16fontAddress    0x4               x86main.o
storage             0x4               x86main.o
systemzoneStart     0x4               x86main.o
waiting_procs       0x4               x86main.o
running_tasks       0x4               x86main.o
desktop_Conductor2  0x4               x86main.o
g_device_screen_width
                    0x4               x86main.o
desktop_rootConductor
                    0x4               x86main.o
extra               0x4               x86main.o
cwArg11             0x4               services.o
fsbFrames           0x1000            x86main.o
g_user_space_framepool_index
                    0x4               x86main.o
Initialization      0x18              x86main.o
Console             0x4               x86main.o
next_thread         0x4               x86main.o
GUI_CONFIG          0x3c              x86main.o
systemzoneSize      0x4               x86main.o
rtcError            0x4               rtc.o
zorderCounter       0x4               x86main.o
mmFramesSuperBlockTotalUsed
                    0x4               x86main.o
quantum             0x4               x86main.o
stderr              0x4               x86main.o
g_mainwindow_width  0x4               x86main.o
cur_process         0x4               x86main.o
current_target_volume
                    0x4               x86main.o
waiting_list_head   0x4               x86main.o
FileAccess          0x4               x86main.o
rtcTicks            0x4               rtc.o
g_logged            0x4               x86main.o
file_TaskMan        0x4               x86main.o
RGBA                0x4               x86main.o
desktop0            0x4               x86main.o
processNewPID       0x4               process.o
cwArg8              0x4               services.o
blocked_list_head   0x4               x86main.o
current_dev         0x4               disk1.o
nicList             0x20              x86main.o
gui                 0x4               x86main.o
CurrentUserSession  0x4               x86main.o
g_device_screen_height
                    0x4               x86main.o
g_mousepointer_height
                    0x4               x86main.o
g_module_uem_initialized
                    0x4               x86main.o
processor           0x4               x86main.o
userList            0x40              x86main.o
prompt_pos          0x4               x86main.o
saved_mouse_x       0x4               x86main.o
cwArg3              0x4               services.o
Irq10               0x4               x86main.o
Conductor           0x4               x86main.o
ide_handler_address
                    0x4               x86main.o
RemoteRequests      0x4               x86main.o
Process             0x4               x86main.o
mbr                 0x4               x86main.o
CurrentTerminal     0x4               x86main.o
current_mmblock     0x4               x86main.o
deviceList          0x400             x86main.o
ASpace              0x4               x86main.o
objects_um          0xc0c0            x86main.o
localsstuff1        0x4               mk.o
mmFramesSuperBlockSize
                    0x4               x86main.o
kernel_stack_start  0x4               x86main.o
Rtc                 0x4               x86main.o
caller_process_id   0x4               process.o
start_new_task_address
                    0x4               x86main.o
g_module_gui_initialized
                    0x4               x86main.o
file_Init           0x4               x86main.o
KeInitPhase         0x4               x86main.o
windows_count       0x4               x86main.o
timerColor          0x4               timer.o
pagetableList       0x1000            x86main.o
combobox_window     0x4               x86main.o
framepoolBackBuffer1
                    0x4               x86main.o
g_driver_video_initialized
                    0x4               x86main.o
active_window       0x4               x86main.o
objects_km          0xc0c0            x86main.o
vfs                 0x4               x86main.o
current_pci_device  0x4               x86main.o
file_InitTXT        0x4               x86main.o
g_show_text_cursor  0x4               x86main.o
Hardware            0x4               x86main.o
DefaultUserSession  0x4               x86main.o
mm_prev_pointer     0x4               memory.o
cwArg9              0x4               services.o
current_process     0x4               x86main.o
mmglobalInitialingVAR
                    0x4               x86main.o
appIconBuffer       0x4               x86main.o
current_desktop     0x4               x86main.o
picError            0x4               pic.o
Cursor              0x4               x86main.o
numlock_status      0x4               x86main.o
requestList         0x80              x86main.o
usession0           0x4               x86main.o
g_gramadocore_shell_heap_size
                    0x4               x86main.o
videoError          0x4               video.o
CurrentSocket       0x4               x86main.o
TaskBar             0x4               x86main.o
g_module_logoff_initialized
                    0x4               x86main.o
pagetableCurrent    0x4               x86main.o
timerTextCursorStatus
                    0x4               timer.o
terminalList        0x20              x86main.o
usession_Conductor  0x4               x86main.o
g8x14fontAddress    0x4               x86main.o
Irq12               0x4               x86main.o
timerStatus         0x4               timer.o
mainButton1         0x4               x86main.o
scStatus            0x4               x86main.o
stdin               0x4               x86main.o
buffer_dir_entry    0x200             x86main.o
g_frontbuffer_pa    0x4               x86main.o
old_mouse_buttom_1  0x4               x86main.o
gStreams            0x4               x86main.o
mmFramesSuperBlockTotalFree
                    0x4               x86main.o
gcharWidth          0x4               x86main.o
logonMenu           0x4               x86main.o
gTaskmanPageDirectoryAddress
                    0x4               x86main.o
savedmouseoverwindowY
                    0x4               x86main.o
file_BootLoader     0x4               x86main.o
socketList          0x80              x86main.o
g_module_logon_initialized
                    0x4               x86main.o
client_stderr       0x4               x86main.o
next_address        0x4               x86main.o
destroy_window      0x4               x86main.o
dispatcherQueueIndex
                    0x4               x86main.o
fileIconBuffer      0x4               x86main.o
room0               0x4               x86main.o
kernel_heap_start   0x4               x86main.o
g8x16fontAddress    0x4               x86main.o
g_current_object    0x4               x86main.o
PrideColorScheme    0x4               x86main.o
current_room        0x4               x86main.o
mac_address         0x4               x86main.o
queue               0x4               x86main.o
system_disk         0x4               x86main.o
DispatchCountBlock  0x4               x86main.o
current_dead_process
                    0x4               x86main.o
cwArg10             0x4               services.o
shift_status        0x4               x86main.o
ide_dma_prdt        0x20              disk1.o
current_directory   0x4               x86main.o
vfs_handle_list     0x800             x86main.o
sys_time_ms         0x4               x86main.o
kernel_stack_start_pa
                    0x4               x86main.o
rect                0x4               x86main.o
partition_chars     0x4               x86main.o
logonStatus         0x4               x86main.o
framepoolFrontBuffer3
                    0x4               x86main.o
current_window      0x4               x86main.o
terminalIconBuffer  0x4               x86main.o
g_available_heap    0x4               x86main.o
start_new_task_id   0x4               x86main.o
process_Conductor2  0x4               x86main.o
g_heap_count        0x4               x86main.o
alt_status          0x4               x86main.o
schedulerType       0x4               x86main.o
g_cursor_width      0x4               x86main.o
current_disk        0x4               x86main.o
volume1_rootdir     0x4               x86main.o
g_new_message       0x4               x86main.o
pwd_initialized     0x4               x86main.o
Firmware            0x4               x86main.o
volume_bootpartition
                    0x4               x86main.o
file_BootManager    0x4               x86main.o
current_dead_thread
                    0x4               x86main.o
current_keyboard_responder
                    0x4               x86main.o
system_message_write
                    0x4               x86main.o
semaforo_priority   0x4               x86main.o
mouseover_window    0x4               x86main.o
kbMsgStatus         0x4               x86main.o
g_module_objectmanager_initialized
                    0x4               x86main.o
terminalActiveWindow
                    0x4               x86main.o
ata_record_channel  0x1               x86main.o
zorderTopWindow     0x4               x86main.o
list                0x10000           write.o
gKernelPageDirectoryAddress
                    0x4               x86main.o
current_taskman_server
                    0x4               x86main.o
g_current_framepool
                    0x4               x86main.o
picStatus           0x4               pic.o
DefaultUser         0x4               x86main.o
task_color          0x4               x86main.o
framepoolFrontBuffer1
                    0x4               x86main.o
contextEIP          0x4               x86cont.o
heapCount           0x4               x86main.o
windowzoneEnd       0x4               x86main.o
current_filesystem  0x4               x86main.o
Thread              0x4               x86main.o
g_pagedpool_va      0x4               x86main.o
ProcessorBlock      0x30              x86main.o
current_mouse_responder
                    0x4               x86main.o
pagedirectoryIdleProcess
                    0x4               x86main.o
client_stdio        0x4               x86main.o
KernelRequests      0x4               x86main.o
volume_vfs          0x4               x86main.o
g_mousepointer_x    0x4               x86main.o
usersession_start   0x4               x86main.o
g_cursor_top        0x4               x86main.o
CurrentProcedure    0x4               x86main.o
mmFramesSuperBlockTotal
                    0x4               x86main.o
periodic_procs      0x4               x86main.o
g_inputmode         0x4               x86main.o
UserHeap            0x4               x86main.o
keyboard_handler_address
                    0x4               x86main.o
kernel_stack_end    0x4               x86main.o
file_Kernel         0x4               x86main.o
g_object_manager_status
                    0x4               x86main.o
g_cursor_right      0x4               x86main.o
desktop_Conductor   0x4               x86main.o
cwFlag              0x4               services.o
InitProcess         0x4               x86main.o
system_volume       0x4               x86main.o
microkernelStatus   0x4               x86main.o
zones               0x4               x86main.o
lineBuffer          0x4               x86main.o
miMemoryInfo        0x4               x86main.o
desktopDefault      0x4               x86main.o
g_module_runtime_initialized
                    0x4               x86main.o
screen_width        0x4               screen.o
ioControl_keyboard  0x4               x86main.o
pci_supported       0x4               pci.o
file_LA             0x4               x86main.o
VersionInfo         0x4               x86main.o
inode_list          0x800             x86main.o
nic_idt_entry_new_address
                    0x4               nicintel.o
file_CFE            0x4               x86main.o
system_procs        0x4               x86main.o
window_with_focus   0x4               x86main.o
g_proc_status       0x4               x86main.o
framepoolCurrent    0x4               x86main.o
desktopList         0x40              x86main.o
gNextKeyboardMessage
                    0x4               x86main.o
pagedirectoryShared
                    0x4               x86main.o
g_heappool_va       0x4               x86main.o
idle                0x4               x86main.o
g_spc               0x4               x86main.o
cwArg12             0x4               services.o
KernelHeap          0x4               x86main.o
Signal              0x4               signal.o
pagedirectoryCurrent
                    0x4               x86main.o
gLogonPID           0x4               x86main.o
CurrentWindow       0x4               x86main.o
g_product_type      0x4               x86main.o
vbr                 0x4               x86main.o
Irq14               0x4               x86main.o
g_nstream           0x4               x86main.o
g_heap_pointer      0x4               x86main.o
LineShell           0x4               x86main.o
mouse_pos_x         0x4               x86main.o
ipcStatus           0x4               x86main.o
WindowWithFocus     0x4               x86main.o
task_count          0x4               x86main.o
Screen              0x4               x86main.o
pipe_gramadocore_init_execve
                    0x4               x86main.o
channelList         0x80              x86main.o
g_kernel_nonpaged_memory
                    0x4               x86main.o
timer_handler_address
                    0x4               x86main.o
kernel_switch       0x4               x86main.o
old_mouse_buttom_3  0x4               x86main.o
guiStatus           0x4               x86main.o
window_rootConductor
                    0x4               x86main.o
terminalLineMax     0x4               x86main.o
heapList            0x20              x86main.o
cwArg5              0x4               services.o
ttyCurrentX         0x4               x86main.o
volume2_rootdir     0x4               x86main.o
_read_offset        0x4               keyboard.o
CurrentDesktop      0x4               x86main.o
DriveContext        0x4               x86main.o
prompt_err          0x100             x86main.o
abnt2               0x4               x86main.o
gFocusBlocked       0x4               x86main.o
current_socket      0x4               x86main.o
sata_handler_address
                    0x4               x86main.o
desktops_count      0x4               x86main.o
KernelPages         0x4               x86main.o
directory_entry_list
                    0x800             x86main.o
g_driver_apic_initialized
                    0x4               x86main.o
_lockfocus          0x4               x86main.o
file_download       0x4               x86main.o
saved_mouse_y       0x4               x86main.o
contextGS           0x4               x86cont.o
current_usersession
                    0x4               x86main.o
g_video_mode        0x4               x86main.o
fat                 0x4               x86main.o
ttyCurrentY         0x4               x86main.o
stdio_verbosemode_flag
                    0x4               x86main.o
file_bin            0x4               x86main.o
mmFramesSuperBlockEnd
                    0x4               x86main.o
processList         0x1000            x86main.o
Mind                0x10              debug.o
memorysizeExtendedMemory
                    0x4               x86main.o
Irq8                0x4               x86main.o
lineLine            0x4               x86main.o
gPagedPollStart     0x4               x86main.o
roomList            0x40              x86main.o
g_backbuffer_pa     0x4               x86main.o
systemzone          0x4               x86main.o
KernelLogBuffer     0x200             x86main.o
keyboard_message_tail
                    0x4               x86main.o
ata_pci             0x34              x86main.o
ATAFlag             0x4               x86main.o
sys_time_hz         0x4               x86main.o
gLogoffPID          0x4               x86main.o
gfontSize           0x4               x86main.o
pageframeList       0x1000            x86main.o
start_new_task_status
                    0x4               x86main.o
CurrentProcess      0x4               x86main.o
framepoolFrontBuffer4
                    0x4               x86main.o
current_semaphore   0x4               x86main.o
thread_failed_flag  0x4               x86fault.o
realtimeprocessorList
                    0x80              x86main.o
timer_cursor_used   0x4               x86main.o
g_gramadocore_init_heap_size
                    0x4               x86main.o
clientCP            0x4               x86main.o
cwArg7              0x4               services.o
g_gramadocore_init_heap_va
                    0x4               x86main.o
g_total_physical_memory
                    0x4               x86main.o
ready_list_head     0x4               x86main.o
g_mousepointer_width
                    0x4               x86main.o
usession_rootConductor
                    0x4               x86main.o
current_terminal    0x4               x86main.o
line_stderr         0x4               x86main.o
lineOffset          0x4               x86main.o
window_Conductor2   0x4               x86main.o
g_machine_type      0x4               x86main.o
contextEFLAGS       0x4               x86cont.o
client_stdout       0x4               x86main.o
eventStatus         0x4               x86main.o
Irq11               0x4               x86main.o
pageframeCurrent    0x4               x86main.o
ipcBuffer           0x4               x86main.o
newtask_EIP         0x4               x86main.o
top_window          0x4               x86main.o
flagRefreshMouseOver
                    0x4               ps2mouse.o
menuitemDefault     0x4               x86main.o
hddError            0x4               hdd.o
g_scheduler_status  0x4               x86main.o
FULLSCREEN_TABWINDOW
                    0x4               x86main.o
quit_message        0x4               x86main.o
network_status      0x4               network.o
TaskManProcess      0x4               x86main.o
LineHead            0x4               x86main.o
ide_ports           0x60              x86main.o
SystemUser          0x4               x86main.o
current_quantum     0x4               x86main.o
__ipc_kernel_spinlock
                    0x4               x86main.o
stdout              0x4               x86main.o
windowzoneSize      0x4               x86main.o
g_driver_rtc_initialized
                    0x4               x86main.o
SystemClasses       0xc               x86main.o
objects_gui         0xc0c0            x86main.o
g_navigationbar_width
                    0x4               x86main.o
timerIdleState      0x4               timer.o
gws_currentfont_address
                    0x4               x86main.o
windowList          0x1000            x86main.o
gPagedPollEnd       0x4               x86main.o
windowzone          0x4               x86main.o
ShellThread         0x4               x86main.o
file_CS             0x4               x86main.o
contextECX          0x4               x86cont.o
Streams             0x80              x86main.o
Irq6                0x4               x86main.o
timerError          0x4               timer.o
gInitPageDirectoryAddress
                    0x4               x86main.o
IDE                 0x14              x86main.o
g_cursor_left       0x4               x86main.o
g_system_color      0x4               x86main.o
defaultChannel      0x4               x86main.o
g_cursor_bottom     0x4               x86main.o
Irq3                0x4               x86main.o
realtimeStatus      0x4               x86main.o
editbox_window      0x4               x86main.o
kernel_request      0x4               x86main.o
idle_thread         0x4               x86main.o
g_pageable_framepool_index_max
                    0x4               x86main.o
current_thread      0x4               x86main.o
Pipes               0x20              x86main.o
fsStatus            0x4               window.o
Bank                0x4               x86main.o
fileBuffer          0x4               x86main.o
timer_cursor_status
                    0x4               x86main.o
g_current_vm        0x4               x86main.o
rectClientArea      0x4               x86main.o
file_Shell          0x4               x86main.o
xxxxsavemessage     0x4               window.o
contextEBP          0x4               x86cont.o
schedulerQueue      0x10              x86main.o
systemSize          0x4               x86main.o
object              0x4               x86main.o
gDeveloperOptions   0x4               x86main.o
keybuffer           0x80              x86main.o
_keyboard_queue     0x20              keyboard.o
zorder              0x4               x86main.o
keyboard_queue      0x120             x86main.o
last_size           0x4               memory.o
forkid              0x4               x86main.o
menus_count         0x4               x86main.o
current_volume      0x4               x86main.o
shutdown_address    0x4               x86main.o
ioControl           0x80              x86main.o
devices             0x4               x86main.o
terminalLine        0x4               x86main.o
serialportError     0x4               x86main.o
desktop1            0x4               x86main.o
gcharHeight         0x4               x86main.o
g_use_default_user  0x4               x86main.o
mouse_buttom_1      0x4               x86main.o
RING0IDLEThread     0x4               x86main.o
lock_taskswitch     0x4               ts.o
mouse_status        0x1               x86main.o
framepoolFrontBuffer2
                    0x4               x86main.o
pipe_execve         0x4               x86main.o
g_gramadocore_taskman_heap_va
                    0x4               x86main.o
diskList            0x1000            x86main.o
server_stderr       0x4               x86main.o
ready_queue_dev     0x4               disk1.o
Conductor2          0x4               x86main.o
KernelClasses       0x4               x86main.o
last_valid          0x4               memory.o
fsbFreeFrames       0x1000            x86main.o
old_mouse_buttom_2  0x4               x86main.o
screenBuffers       0x4               x86main.o
current_process_pagedirectory_address
                    0x4               x86main.o
rr_procs            0x4               x86main.o
KernelProcess       0x4               x86main.o
delta_y             0x1               x86main.o
framepoolPageableSpace
                    0x4               x86main.o
save_client_rect_left
                    0x4               window.o
lineLineMax         0x4               x86main.o
KernelHeapSize      0x4               x86main.o
HostDeviceInfo      0x4               x86main.o
prompt_out          0x100             x86main.o
demand_paging_flag  0x4               x86fault.o
bmp_selected_color  0x4               x86main.o
g_driver_pci_initialized
                    0x4               x86main.o
file_cluster_list   0x800             x86main.o
escape_status       0x4               x86main.o
memorysizeOtherMemory
                    0x4               x86main.o
IpcProcedureEx      0x4               x86main.o
mmblockList         0x8000            x86main.o
g_driver_timer_initialized
                    0x4               x86main.o
cwArg4              0x4               services.o
HostInfo            0x4               x86main.o
ata_identify_dev_buf
                    0x4               x86main.o
Irq0                0x4               x86main.o
file_dd             0x4               x86main.o
DSpace              0x4               x86main.o
g_next_app          0x4               x86main.o
gws_status          0x4               gws.o
g_gramadocore_taskman_heap_size
                    0x4               x86main.o
timerList           0x80              x86main.o
pageframeAllocList  0x1000            x86main.o
file_libs           0x4               x86main.o
idle_proc           0x4               x86main.o
clientCR            0x4               x86main.o
g_useGUI            0x4               x86main.o
g_filesystem_type   0x4               x86main.o
Irq4                0x4               x86main.o
dirCount            0x4               x86main.o
ShellProcess        0x4               x86main.o
keybuffer_head      0x4               x86main.o
contextCS           0x4               x86cont.o
CurrentBuffer       0x4               x86main.o
CurrentColorScheme  0x4               x86main.o
next_quantum        0x4               x86main.o
process_rootConductor
                    0x4               x86main.o
dev_nport           0x20              x86main.o
stdio_terminalmode_flag
                    0x4               x86main.o
menuDefault         0x4               x86main.o
framepoolSmallSystemUserSpace
                    0x4               x86main.o
ata                 0x18              x86main.o
rtcStatus           0x4               rtc.o
zicaaa              0x4               x86main.o
rootConductor       0x4               x86main.o
mouse_pos_y         0x4               x86main.o
gSystemStatus       0x4               x86main.o
DeveloperWindowCursor
                    0x4               x86main.o
fatal_error_flag    0x4               x86fault.o
videoStatus         0x4               video.o
tab_status          0x4               x86main.o
Version             0x4               x86main.o
file_pwd            0x4               x86main.o
userenvironmentStatus
                    0x4               x86main.o
g_guiMinimal        0x4               x86main.o
time_out            0x4               x86main.o
current_file        0x4               x86main.o
pagedirectoryKernelProcess
                    0x4               x86main.o
g_mainwindow_height
                    0x4               x86main.o
VideoBlock          0x1c              x86main.o
System              0x4               x86main.o
KernelSize          0x4               x86main.o
Line                0x4               x86main.o
dispatcherReadyList
                    0x28              x86main.o
ScreenInfo          0x4               x86main.o
CurrentCursor       0x4               x86main.o
g8x8fontAddress     0x4               x86main.o
KernelStackSize     0x4               x86main.o
zica                0x4               x86main.o
save_client_rect_height
                    0x4               window.o
keybuffer_index     0x4               x86main.o
g_cursor_color      0x4               x86main.o
memorysizeTotal     0x4               x86main.o
g_system_mode       0x4               x86main.o
Irq1                0x4               x86main.o
g_current_video_mode
                    0x4               x86main.o
g_heap_count_max    0x4               x86main.o
cur_thread          0x4               x86main.o
current_group       0x4               x86main.o
process_Conductor   0x4               x86main.o
BackBufferInfo      0x4               x86main.o
file_users          0x4               x86main.o
conductorIndex      0x4               x86main.o
cwArg6              0x4               services.o
g_mousepointer_y    0x4               x86main.o
g_framepool_max     0x4               x86main.o
task_waiting        0x4               x86main.o
keybuffer_tail      0x4               x86main.o
g_cursor_y          0x4               x86main.o
volume_systempartition
                    0x4               x86main.o
nic_idt_entry_new_number
                    0x1               nicintel.o
Irq7                0x4               x86main.o
banksCount          0x4               x86main.o
Pic                 0x4               x86main.o
Platform            0x4               x86main.o
system_message_read
                    0x4               x86main.o
contextEAX          0x4               x86cont.o
errno               0x4               x86main.o
old                 0x4               x86main.o
g_heap_size         0x4               x86main.o
zorderList          0x200             x86main.o
contextEBX          0x4               x86cont.o
gSystemEdition      0x4               x86main.o
pagedirectoryList   0x1000            x86main.o
framepoolMediumSystemUserSpace
                    0x4               x86main.o
menubarDefault      0x4               x86main.o
filesystem          0x4               x86main.o
logoffStatus        0x4               x86main.o
current_user        0x4               x86main.o
WindowProcedure     0x4               x86main.o
framepoolKernelSpace
                    0x4               x86main.o
memorysizeBaseMemory
                    0x4               x86main.o
key_status          0x4               x86main.o
server_stdout       0x4               x86main.o
contextEDI          0x4               x86cont.o
timerLock           0x4               timer.o
g_file_system_type  0x4               x86main.o
currentNIC          0x4               x86main.o
g_gramadocore_shell_heap_va
                    0x4               x86main.o
mmblockCount        0x4               x86main.o
prompt_status       0x4               x86main.o
pagedirectoryTaskmanProcess
                    0x4               x86main.o
ambiente            0x4               x86main.o
framepoolLargeSystemUserSpace
                    0x4               x86main.o
g_platform_type     0x4               x86main.o
folderIconBuffer    0x4               x86main.o
line_stdin          0x4               x86main.o
g_kernel_paged_memory
                    0x4               x86main.o
mmFramesSuperBlockStart
                    0x4               x86main.o
mouseBMPBuffer      0x4               x86main.o
contextES           0x4               x86cont.o
g_driver_keyboard_initialized
                    0x4               x86main.o
rtc                 0x4               x86main.o
gws_wm_PID          0x4               gws.o
bmp_substitute_color
                    0x4               x86main.o
window_Conductor    0x4               x86main.o
lastBank            0x4               x86main.o
e1000_interrupt_flag
                    0x4               x86main.o
gws_wm_status       0x4               gws.o
hddStatus           0x4               hdd.o
g_mm_system_type    0x4               x86main.o
g_kernel_lfb        0x4               x86main.o
PciDrivers          0x4               x86main.o
system_message_queue
                    0x80              x86main.o
usession_Conductor2
                    0x4               x86main.o
terminal_window     0x4               x86main.o
mainButton2         0x4               x86main.o
CurrentScreen       0x4               x86main.o
sys_time_ticks_total
                    0x4               x86main.o
queueList           0x20              x86main.o
save_client_rect_width
                    0x4               window.o
ttyLineCounter      0x4               x86main.o
g_char_attrib       0x4               x86main.o
HumilityColorScheme
                    0x4               x86main.o
window_mouse_over   0x4               x86main.o
file_tmp            0x4               x86main.o
ctrl_status         0x4               x86main.o
g_module_shell_initialized
                    0x4               x86main.o
g_next_proc         0x4               x86main.o
semaphoreList       0x84              x86main.o
file_CWE            0x4               x86main.o
winkey_status       0x4               x86main.o
FrontBufferInfo     0x4               x86main.o
g_current_list      0x4               x86main.o
savedmouseoverwindowX
                    0x4               x86main.o
line_stdout         0x4               x86main.o
g_module_mm_initialized
                    0x4               x86main.o
contextSS           0x4               x86cont.o
g_cursor_height     0x4               x86main.o
current_workingdiretory_string
                    0x20              x86main.o
gShellPageDirectoryAddress
                    0x4               x86main.o
volumeList          0x1000            x86main.o
g_nova_mensagem     0x4               x86main.o
current_menu        0x4               x86main.o
pmiCurrent          0x4               x86main.o
Pci                 0x4               x86main.o
timerLine           0x4               timer.o
g_cursor_x          0x4               x86main.o
UserRequests        0x4               x86main.o
mouse_buttom_2      0x4               x86main.o
CurrentUser         0x4               x86main.o

Memory Configuration

Name             Origin             Length             Attributes
*default*        0x0000000000000000 0xffffffffffffffff

Linker script and memory map

                0x0000000000400000                __image_base__ = 0x400000
                0x0000000000000000                __dll__ = 0x0
                0x0000000000400000                ___ImageBase = 0x400000
                0x0000000000001000                __section_alignment__ = 0x1000
                0x0000000000000200                __file_alignment__ = 0x200
                0x0000000000000004                __major_os_version__ = 0x4
                0x0000000000000000                __minor_os_version__ = 0x0
                0x0000000000000001                __major_image_version__ = 0x1
                0x0000000000000000                __minor_image_version__ = 0x0
                0x0000000000000004                __major_subsystem_version__ = 0x4
                0x0000000000000000                __minor_subsystem_version__ = 0x0
                0x0000000000000003                __subsystem__ = 0x3
                0x0000000000200000                __size_of_stack_reserve__ = 0x200000
                0x0000000000001000                __size_of_stack_commit__ = 0x1000
                0x0000000000100000                __size_of_heap_reserve__ = 0x100000
                0x0000000000001000                __size_of_heap_commit__ = 0x1000
                0x0000000000000000                __loader_flags__ = 0x0
                0x0000000000000000                __dll_characteristics__ = 0x0

.text           0x00000000c0001000    0x28000
                0x00000000c0001000                _code_begin = .
 *(.head_x86)
 .head_x86      0x00000000c0001000      0x1b7 head.o
                0x00000000c0001000                kernel_begin
                0x00000000c000118c                _die
                0x00000000c000118f                SavedBootBlock
                0x00000000c0001193                SavedLFB
                0x00000000c0001197                SavedX
                0x00000000c000119b                SavedY
                0x00000000c000119f                SavedBPP
                0x00000000c00011a3                SavedBootMode
                0x00000000c00011a7                kArg1
                0x00000000c00011ab                kArg2
                0x00000000c00011af                kArg3
                0x00000000c00011b3                kArg4
 *(.text)
 *fill*         0x00000000c00011b7        0x9 
 .text          0x00000000c00011c0     0x5f22 head.o
                0x00000000c00011c0                gdt
                0x00000000c00011f8                end_gdt
                0x00000000c00011fc                GDT_register
                0x00000000c0001202                idt
                0x00000000c0001a06                IDT_register
                0x00000000c0001a0c                KernelStatus
                0x00000000c0001a10                task_switch_salva_esp
                0x00000000c0005b3e                setup_system_interrupt
                0x00000000c0005df2                asm_nic_create_new_idt_entry
                0x00000000c0005e05                nic_handler
                0x00000000c0005e15                do_executa_new_task
                0x00000000c0005e5d                test_cpuid_support
                0x00000000c0005e7c                get_page_dir
                0x00000000c0005e80                set_page_dir
                0x00000000c0005e84                get_page_fault_adr
                0x00000000c0005e88                halt
                0x00000000c0005ebb                setup_idt_vector
                0x00000000c0005efc                enable_pse
                0x00000000c0005f08                asm_shut_down
                0x00000000c0005f0c                asm_reboot
                0x00000000c0005f19                irq0
                0x00000000c0006020                dispatch_context
                0x00000000c000608f                timer_test
                0x00000000c0006096                enter_user_mode
                0x00000000c0006098                exec_new_task
                0x00000000c00068aa                irq1
                0x00000000c00068ce                irq3
                0x00000000c00068d9                irq4
                0x00000000c00068e4                irq7
                0x00000000c00068ef                irq8
                0x00000000c00068ff                irq9
                0x00000000c000690a                irq10
                0x00000000c0006915                irq11
                0x00000000c0006920                irq12
                0x00000000c000693e                irq13
                0x00000000c000694b                irq14
                0x00000000c000695d                irq15
                0x00000000c000697c                fault_N0
                0x00000000c000698b                fault_N1
                0x00000000c000699a                fault_N2
                0x00000000c00069a9                fault_N3
                0x00000000c00069b8                fault_N4
                0x00000000c00069c7                fault_N5
                0x00000000c00069d6                fault_INTRUCAO_INVALIDA
                0x00000000c00069e5                fault_N7
                0x00000000c00069f4                fault_DOUBLE
                0x00000000c0006a03                fault_N9
                0x00000000c0006a12                fault_N10
                0x00000000c0006a21                fault_N11
                0x00000000c0006a30                fault_STACK
                0x00000000c0006a3f                fault_GP
                0x00000000c0006a4e                fault_N14
                0x00000000c0006a5d                fault_N15
                0x00000000c0006a6c                fault_N16
                0x00000000c0006a7b                fault_N17
                0x00000000c0006a8a                fault_N18
                0x00000000c0006a99                fault_N19
                0x00000000c0006aa8                fault_N20
                0x00000000c0006ab7                fault_N21
                0x00000000c0006ac3                fault_N22
                0x00000000c0006acf                fault_N23
                0x00000000c0006adb                fault_N24
                0x00000000c0006ae7                fault_N25
                0x00000000c0006af3                fault_N26
                0x00000000c0006aff                fault_N27
                0x00000000c0006b0b                fault_N28
                0x00000000c0006b17                fault_N29
                0x00000000c0006b23                fault_N30
                0x00000000c0006b2f                fault_N31
                0x00000000c0006bcc                hd_buffer
                0x00000000c0006bd0                hd_lba
                0x00000000c0006bd4                turn_task_switch_on
                0x00000000c0006bef                turn_task_switch_off
                0x00000000c0006c0a                os_read_sector
                0x00000000c0006c23                os_write_sector
                0x00000000c0006d10                reset_ide0
                0x00000000c0006d79                hour
                0x00000000c0006d7a                minute
                0x00000000c0006d7b                second
                0x00000000c0006d7c                CMOS_GET_DATE
                0x00000000c0006dc0                mouse_x
                0x00000000c0006dc4                mouse_y
                0x00000000c0006dc8                mouse_packet_data
                0x00000000c0006dc9                mouse_packet_x
                0x00000000c0006dca                mouse_packet_y
                0x00000000c0006dcb                mouse_packet_scroll
                0x00000000c0006dcc                update_mouse
                0x00000000c0006e24                int48
                0x00000000c0006e2b                int49
                0x00000000c0006e32                int50
                0x00000000c0006e39                int51
                0x00000000c0006e40                int52
                0x00000000c0006e47                int53
                0x00000000c0006e4e                int54
                0x00000000c0006e55                int100
                0x00000000c0006e5c                int128
                0x00000000c0006e7c                int201
                0x00000000c0006e83                int213
                0x00000000c0006e8a                int216
                0x00000000c0006f5a                um_buffer_putpixel
                0x00000000c0006f5e                swlib_backbuffer_putpixel
                0x00000000c0006f60                swlib_lfb_putpixel
                0x00000000c0006f65                gui_buffer_putpixel
                0x00000000c0006fef                gui_buffer_putpixel2
                0x00000000c0007079                background
                0x00000000c00070c0                asm_refresh_screen
 .text          0x00000000c00070e2      0x86d x86main.o
                0x00000000c00070ee                x86mainStartFirstThread
                0x00000000c000733c                startStartIdle
                0x00000000c00074ec                x86main
 .text          0x00000000c000794f       0x5c io.o
                0x00000000c000794f                ioServices
                0x00000000c0007999                ioInit
 .text          0x00000000c00079ab      0x2bc hal.o
                0x00000000c00079ab                hal_backbuffer_putpixel
                0x00000000c00079ca                hal_lfb_putpixel
                0x00000000c00079e9                sys_vsync
                0x00000000c00079f7                sys_showpciinfo
                0x00000000c0007a04                sys_reboot
                0x00000000c0007a22                sys_shutdown
                0x00000000c0007a40                hal_hardware_detect
                0x00000000c0007a4a                hal_showpciinfo
                0x00000000c0007a57                init_cpu
                0x00000000c0007b02                hal_set_machine_type
                0x00000000c0007b10                hal_get_machine_type
                0x00000000c0007b1a                hal_init_machine
                0x00000000c0007b7a                getGdt
                0x00000000c0007b84                getIdt
                0x00000000c0007b8e                hal_vsync
                0x00000000c0007b9c                hal_shutdown
                0x00000000c0007bba                shutdown
                0x00000000c0007bd3                KiReboot
                0x00000000c0007bf1                KiShutDown
                0x00000000c0007c0f                hal_reboot
                0x00000000c0007c2d                init_hal
 .text          0x00000000c0007c67      0x422 mk.o
                0x00000000c0007c67                jobcontrol
                0x00000000c0007d79                jobcheck
                0x00000000c0007e4f                microkernelTestLimit
                0x00000000c0007e55                sys_dead_thread_collector
                0x00000000c0007e63                sys_exit_process
                0x00000000c0007e7d                sys_exit_thread
                0x00000000c0007e94                sys_create_process
                0x00000000c0007ec7                sys_create_thread
                0x00000000c0007ef4                sys_fork
                0x00000000c0007f01                sys_getpid
                0x00000000c0007f0b                sys_getppid
                0x00000000c0007f76                KeReboot
                0x00000000c0007f7c                init_microkernel
 .text          0x00000000c0008089      0x567 execve.o
                0x00000000c0008089                executive_gramado_core_init_execve
                0x00000000c0008318                executive_gramado_core_init_execve_exe
                0x00000000c00085a5                sys_showkernelinfo
                0x00000000c00085b3                init_executive
 .text          0x00000000c00085f0      0x26e video.o
                0x00000000c00085f0                videoSetupCGAStartAddress
                0x00000000c00085fe                videoGetMode
                0x00000000c0008608                videoSetMode
                0x00000000c00086d4                videoInit
                0x00000000c0008840                videoVideo
 .text          0x00000000c000885e      0x10e screen.o
                0x00000000c000885e                screenGetWidth
                0x00000000c0008868                screenGetHeight
                0x00000000c0008872                screenSetSize
                0x00000000c0008888                refresh_screen
                0x00000000c00088aa                screenRefresh
                0x00000000c00088cc                screenInit
 .text          0x00000000c000896c       0x4b runtime.o
                0x00000000c000896c                init_runtime
                0x00000000c000898d                KiInitRuntime
 .text          0x00000000c00089b7      0x24b portsx86.o
                0x00000000c00089b7                kinportb
                0x00000000c00089cc                koutportb
                0x00000000c00089d9                inb
                0x00000000c00089ee                outb
                0x00000000c00089fb                inportb
                0x00000000c0008a10                outportb
                0x00000000c0008a1d                inport8
                0x00000000c0008a32                outport8
                0x00000000c0008a3f                inport16
                0x00000000c0008a56                outport16
                0x00000000c0008a64                inport32
                0x00000000c0008a78                outport32
                0x00000000c0008a85                inportl
                0x00000000c0008a99                outportl
                0x00000000c0008b7d                kernelProcessorInPort8
                0x00000000c0008b8c                kernelProcessorOutPort8
                0x00000000c0008b99                kernelProcessorInPort16
                0x00000000c0008ba9                kernelProcessorOutPort16
                0x00000000c0008bb7                kernelProcessorInPort32
                0x00000000c0008bc6                kernelProcessorOutPort32
                0x00000000c0008bd3                wait_ns
 .text          0x00000000c0008c02      0x236 x86.o
                0x00000000c0008c02                enable
                0x00000000c0008c0d                disable
                0x00000000c0008c18                stopCpu
                0x00000000c0008c20                intReturn
                0x00000000c0008c27                farReturn
                0x00000000c0008c2e                getFlags
                0x00000000c0008c39                setFlags
                0x00000000c0008c44                Push
                0x00000000c0008c4e                Pop
                0x00000000c0008c58                pushRegs
                0x00000000c0008c5f                popRegs
                0x00000000c0008c66                pushFlags
                0x00000000c0008c6d                popFlags
                0x00000000c0008c74                getStackPointer
                0x00000000c0008c7f                setStackPointer
                0x00000000c0008c8a                cpux86_enable_caches
                0x00000000c0008cad                init_intel
                0x00000000c0008cc4                show_cpu_intel_parameters
 .text          0x00000000c0008e38      0xb15 stdio.o
                0x00000000c0008e38                fclose
                0x00000000c0008e4f                fopen
                0x00000000c0008f04                scroll
                0x00000000c0008f0a                kclear
                0x00000000c0008f81                kclearClientArea
                0x00000000c0008fdc                kprint
                0x00000000c000941b                printf
                0x00000000c0009438                puts
                0x00000000c0009453                panic
                0x00000000c00094b7                sprintf
                0x00000000c00094d6                fprintf
                0x00000000c0009541                putchar
                0x00000000c000955a                input
                0x00000000c00096ea                stdioInitialize
 .text          0x00000000c000994d       0xda stdlib.o
                0x00000000c000994d                rand
                0x00000000c000996a                malloc
                0x00000000c00099a6                free
 .text          0x00000000c0009a27      0x520 string.o
                0x00000000c0009a27                strcmp
                0x00000000c0009a8c                strncmp
                0x00000000c0009aef                str_cmp
                0x00000000c0009b6c                memcpy
                0x00000000c0009ba9                memcpy32
                0x00000000c0009be5                strcpy
                0x00000000c0009c19                strcat
                0x00000000c0009c48                bcopy
                0x00000000c0009c74                bzero
                0x00000000c0009c94                strlen
                0x00000000c0009cc3                memset
                0x00000000c0009d0a                strcspn
                0x00000000c0009da9                strspn
                0x00000000c0009e48                strtok_r
                0x00000000c0009f2f                strtok
 .text          0x00000000c0009f47       0xdb tty.o
                0x00000000c0009f47                createTTYLine
                0x00000000c0009fee                ttyInit
 .text          0x00000000c000a022      0x4dd init.o
                0x00000000c000a022                save_kernel_args
                0x00000000c000a028                boot
                0x00000000c000a041                init_architecture_dependent
                0x00000000c000a0e3                init_architecture_independent
                0x00000000c000a1cf                init_globals
                0x00000000c000a30d                init
 .text          0x00000000c000a4ff      0x75a logon.o
                0x00000000c000a4ff                create_logon
                0x00000000c000a774                ExitLogon
                0x00000000c000a7b7                SetLogonParameters
                0x00000000c000a862                logon_create_screen
                0x00000000c000a914                logon_create_background
                0x00000000c000a9db                logon_create_mainwindow
                0x00000000c000aaee                logon_create_logo
                0x00000000c000aaf4                logon_create_taskbar
                0x00000000c000aafa                logon_create_controlmenu
                0x00000000c000ab00                logon_create_infobox
                0x00000000c000ab06                logon_create_messagebox
                0x00000000c000ab0c                logon_create_debug
                0x00000000c000ab12                logon_create_navigationbar
                0x00000000c000ab18                logon_create_grid
                0x00000000c000ab1e                logon_create_developer_screen
                0x00000000c000ab24                LogonProcedure
                0x00000000c000ab78                init_logon
 .text          0x00000000c000ac59       0xe6 logoff.o
                0x00000000c000ac59                StartLogoff
                0x00000000c000ac76                init_logoff
 .text          0x00000000c000ad3f      0x4cb detect.o
                0x00000000c000ad3f                get_cpu_intel_parameters
                0x00000000c000b07c                cpu_get_parameters
                0x00000000c000b089                KeTestCPU
                0x00000000c000b09b                hal_probe_cpu
                0x00000000c000b142                hal_probe_processor_type
 .text          0x00000000c000b20a       0x15 cpuamd.o
                0x00000000c000b20a                get_cpu_amd_parameters
                0x00000000c000b210                init_amd
 .text          0x00000000c000b21f      0xa4f memory.o
                0x00000000c000b21f                get_process_heap_pointer
                0x00000000c000b2c1                SetKernelHeap
                0x00000000c000b35b                AllocateHeap
                0x00000000c000b536                FreeHeap
                0x00000000c000b540                AllocateHeapEx
                0x00000000c000b556                show_memory_structs
                0x00000000c000b5df                init_heap
                0x00000000c000b713                init_stack
                0x00000000c000b77d                memoryShowMemoryInfo
                0x00000000c000b9a5                init_mm
                0x00000000c000baca                gcGRAMADO
                0x00000000c000bad4                gcEXECUTIVE
                0x00000000c000bbf9                gcMICROKERNEL
                0x00000000c000bc03                gcHAL
                0x00000000c000bc0d                gc
 .text          0x00000000c000bc6e     0x10e2 pages.o
                0x00000000c000bc6e                CreatePageDirectory
                0x00000000c000bcd4                CreatePageTable
                0x00000000c000bdc2                SetCR3
                0x00000000c000bddb                mapping_nic0_device_address
                0x00000000c000be50                SetUpPaging
                0x00000000c000c784                initializeFramesAlloc
                0x00000000c000c812                allocPageFrames
                0x00000000c000c98d                pfEmpty
                0x00000000c000c99c                freePageframe
                0x00000000c000c9cc                notfreePageframe
                0x00000000c000c9fc                newPageFrame
                0x00000000c000caad                newPage
                0x00000000c000cb24                firstSlotForAList
                0x00000000c000cb8c                testingFrameAlloc
                0x00000000c000ccda                virtual_to_physical
 .text          0x00000000c000cd50        0x0 apic.o
 .text          0x00000000c000cd50        0x0 pic.o
 .text          0x00000000c000cd50      0x6bb timer.o
                0x00000000c000cd50                KiTimer
                0x00000000c000cd5e                timerEnableTextCursor
                0x00000000c000cd6e                timerDisableTextCursor
                0x00000000c000cd7e                timer
                0x00000000c000cfa8                new_timer_id
                0x00000000c000cfe0                create_timer
                0x00000000c000d218                timerInit8253
                0x00000000c000d27d                set_quantum
                0x00000000c000d28b                get_quantum
                0x00000000c000d295                set_current_quantum
                0x00000000c000d2a3                get_current_quantum
                0x00000000c000d2ad                set_next_quantum
                0x00000000c000d2bb                get_next_quantum
                0x00000000c000d2c5                now
                0x00000000c000d2d2                get_systime_hz
                0x00000000c000d2dc                get_systime_ms
                0x00000000c000d2e6                get_systime_totalticks
                0x00000000c000d2f0                get_systime_info
                0x00000000c000d321                sleep
                0x00000000c000d33f                set_timeout
                0x00000000c000d34d                get_timeout
                0x00000000c000d357                timerTimer
                0x00000000c000d37f                timerInit
 .text          0x00000000c000d40b      0x359 rtc.o
                0x00000000c000d40b                KiRtcIrq
                0x00000000c000d419                rtc_irq
                0x00000000c000d46f                read_cmos_bcd
                0x00000000c000d4dc                get_time
                0x00000000c000d520                get_date
                0x00000000c000d56a                rtcGetExtendedMemory
                0x00000000c000d5c5                rtcGetBaseMemory
                0x00000000c000d620                get_cmos_info
                0x00000000c000d738                init_clock
 .text          0x00000000c000d764       0xcb keyboard.o
                0x00000000c000d764                abnt2_keyboard_handler
                0x00000000c000d7b8                get_scancode
                0x00000000c000d7fd                KiKeyboard
 .text          0x00000000c000d82f        0xe mouse.o
                0x00000000c000d82f                mouse_handler
 .text          0x00000000c000d83d      0x6dd ldisc.o
                0x00000000c000d83d                LINE_DISCIPLINE
                0x00000000c000d95e                KEYBOARD_LINE_DISCIPLINE
                0x00000000c000de32                MOUSE_LINE_DISCIPLINE
                0x00000000c000de7f                initialize_system_message_queue
 .text          0x00000000c000df1a      0x428 hdd.o
                0x00000000c000df50                hdd_ata_pio_write
                0x00000000c000df86                hdd_ata_status_read
                0x00000000c000dfb4                hdd_ata_wait_not_busy
                0x00000000c000dff4                hdd_ata_cmd_write
                0x00000000c000e044                hdd_ata_wait_no_drq
                0x00000000c000e08a                pio_rw_sector
                0x00000000c000e2ee                my_read_hd_sector
                0x00000000c000e30e                my_write_hd_sector
                0x00000000c000e32e                init_hdd
 .text          0x00000000c000e342      0x7a5 pci.o
                0x00000000c000e342                KiPciHandler1
                0x00000000c000e34c                KiPciHandler2
                0x00000000c000e356                KiPciHandler3
                0x00000000c000e360                KiPciHandler4
                0x00000000c000e36a                pciConfigReadByte
                0x00000000c000e40e                pciConfigReadWord
                0x00000000c000e4b5                pciConfigReadDWord
                0x00000000c000e549                pciCheckVendor
                0x00000000c000e573                pciCheckDevice
                0x00000000c000e59d                pciGetSubClass
                0x00000000c000e5c7                pciGetClassCode
                0x00000000c000e5f1                pciGetBAR
                0x00000000c000e6e3                pciGetInterruptLine
                0x00000000c000e70d                pciGetInterruptPin
                0x00000000c000e737                pciInfo
                0x00000000c000e807                pci_setup_devices
                0x00000000c000ea15                init_pci
                0x00000000c000eada                pciInit
 .text          0x00000000c000eae7        0x6 usb.o
                0x00000000c000eae7                usbInit
 .text          0x00000000c000eaed        0x6 devmgr.o
                0x00000000c000eaed                init_device_manager
 .text          0x00000000c000eaf3      0x1fd spawn.o
                0x00000000c000eaff                KiSpawnTask
                0x00000000c000eb44                spawn_thread
 .text          0x00000000c000ecf0        0x6 callout.o
                0x00000000c000ecf0                KiCalloutTest
 .text          0x00000000c000ecf6        0x6 callfar.o
                0x00000000c000ecf6                KiCallfarTest
 .text          0x00000000c000ecfc      0xe98 process.o
                0x00000000c000ecfc                do_fork_process
                0x00000000c000ee43                processObject
                0x00000000c000ee7c                getNewPID
                0x00000000c000eeb7                processTesting
                0x00000000c000ef04                processSendSignal
                0x00000000c000ef36                processCopyProcess
                0x00000000c000f242                create_process
                0x00000000c000f543                CloseAllProcesses
                0x00000000c000f5ab                KeSaveCurrentContext
                0x00000000c000f5b1                KeRestoreCurrentContext
                0x00000000c000f5b7                KeCpuFaults
                0x00000000c000f5ce                KeSpawnTask
                0x00000000c000f5e5                KeSelectNextThread
                0x00000000c000f5fb                KeCheckTaskContext
                0x00000000c000f611                KeInitTasks
                0x00000000c000f61f                KeCreateTask
                0x00000000c000f629                KeInitTask
                0x00000000c000f633                KeFork
                0x00000000c000f63d                KeExecProcess
                0x00000000c000f647                KeDispatchProcess
                0x00000000c000f64d                KeDoProcessReady
                0x00000000c000f653                KeDoProcessRunning
                0x00000000c000f659                KeDoProcessSleeping
                0x00000000c000f65f                KeDoProcessZombie
                0x00000000c000f665                KeDoProcessDead
                0x00000000c000f66b                KeStartProcess
                0x00000000c000f671                KeWakeupProcess
                0x00000000c000f677                KeProcessExit
                0x00000000c000f67d                KeKillProcess
                0x00000000c000f683                KeNewProcessScheduler
                0x00000000c000f689                KeSetPriority
                0x00000000c000f693                KeIncreasePriority
                0x00000000c000f69d                KeSaveContextOfNewTask
                0x00000000c000f6a3                KeReloadCurrentTask
                0x00000000c000f6a9                KeSetQuantum
                0x00000000c000f6af                KeGetQuantum
                0x00000000c000f6b9                KeSetCurrentQuantum
                0x00000000c000f6bf                KeGetCurrentQuantum
                0x00000000c000f6c9                KeSetNextQuantum
                0x00000000c000f6cf                KeGetNextQuantum
                0x00000000c000f6d9                KeSetFocus
                0x00000000c000f6df                KeGetFocus
                0x00000000c000f6e9                KeDebugBreakpoint
                0x00000000c000f6ef                KeShowTasksParameters
                0x00000000c000f6f5                KeMostraSlots
                0x00000000c000f6fb                KeMostraSlot
                0x00000000c000f701                KeMostraReg
                0x00000000c000f707                KeShowPreemptedTask
                0x00000000c000f70d                show_currentprocess_info
                0x00000000c000f844                show_process_information
                0x00000000c000f8f1                SetProcessDirectory
                0x00000000c000f909                GetProcessDirectory
                0x00000000c000f924                GetPageDirValue
                0x00000000c000f931                init_task
                0x00000000c000f93b                init_tasks
                0x00000000c000f949                init_processes
                0x00000000c000f995                dead_task_collector
                0x00000000c000f99b                exit_process
                0x00000000c000faa0                get_caller_process_id
                0x00000000c000faaa                set_caller_process_id
                0x00000000c000fab8                init_process_manager
                0x00000000c000fad6                GetProcessHeapStart
                0x00000000c000fb35                GetProcessPageDirectoryAddress
 .text          0x00000000c000fb94        0x0 pheap.o
 .text          0x00000000c000fb94      0x74b thread.o
                0x00000000c000fb94                create_thread
                0x00000000c000ff8b                GetCurrentThreadId
                0x00000000c000ff95                GetCurrentThread
                0x00000000c000ffd8                FindReadyThread
                0x00000000c0010036                SelectForExecution
                0x00000000c0010068                GetThreadState
                0x00000000c0010080                GetThreadType
                0x00000000c0010098                show_thread_information
                0x00000000c0010135                init_threads
                0x00000000c00101b6                thread_getchar
 .text          0x00000000c00102df      0x63e threadi.o
                0x00000000c00102df                KiShowPreemptedTask
                0x00000000c00102e5                KiSetTaskStatus
                0x00000000c00102fc                KiGetTaskStatus
                0x00000000c0010309                KiSaveContextOfNewTask
                0x00000000c001030f                KiReloadCurrentTask
                0x00000000c0010315                KiSetQuantum
                0x00000000c001031b                KiGetQuantum
                0x00000000c0010325                KiSetCurrentQuantum
                0x00000000c001032b                KiGetCurrentQuantum
                0x00000000c0010335                KiSetNextQuantum
                0x00000000c001033b                KiGetNextQuantum
                0x00000000c0010345                KiSetFocus
                0x00000000c001034b                KiGetFocus
                0x00000000c0010355                KiDebugBreakpoint
                0x00000000c001035b                KiShowTasksParameters
                0x00000000c0010361                KiMostraSlots
                0x00000000c001036f                KiMostraSlot
                0x00000000c0010386                KiMostraReg
                0x00000000c001038c                KiShowThreadList
                0x00000000c001039a                mostra_slots
                0x00000000c0010406                mostra_slot
                0x00000000c0010510                mostra_reg
                0x00000000c001061b                set_thread_priority
                0x00000000c0010672                SetThreadDirectory
                0x00000000c0010689                GetThreadDirectory
                0x00000000c00106a1                show_preempted_task
                0x00000000c00106a7                show_tasks_parameters
                0x00000000c00106ad                release
                0x00000000c00106f7                exit_thread
                0x00000000c0010765                kill_thread
                0x00000000c0010824                dead_thread_collector
                0x00000000c00108f0                kill_all_threads
 .text          0x00000000c001091d       0x1b theap.o
                0x00000000c001091d                GetThreadHeapStart
 .text          0x00000000c0010938       0x1c tstack.o
                0x00000000c0010938                GetThreadStackStart
 .text          0x00000000c0010954      0xf0d create.o
                0x00000000c0010954                fork
                0x00000000c001095e                KiFork
                0x00000000c0010968                KiCreateIdle
                0x00000000c0010d8b                KiCreateShell
                0x00000000c0011120                KiCreateTaskManager
                0x00000000c00114b5                xxxRing0Idle
                0x00000000c00114c5                KiCreateRing0Idle
 .text          0x00000000c0011861      0x1a2 x86start.o
                0x00000000c0011861                KeStartShell
                0x00000000c001187a                KeStartTaskManager
                0x00000000c0011893                start_task
                0x00000000c00118b3                reload_current_task
                0x00000000c00118b9                switch_to_user_mode
                0x00000000c00118d2                executa_tarefa
                0x00000000c00119ba                KiSwitchToUserMode
                0x00000000c00119c8                KiExecutaTarefa
                0x00000000c00119d2                KiInitTask
                0x00000000c00119f5                KiInitTasks
 .text          0x00000000c0011a03      0x462 x86cont.o
                0x00000000c0011a0f                save_current_context
                0x00000000c0011b8a                restore_current_context
                0x00000000c0011d1d                contextCheckThreadRing0Context
                0x00000000c0011d27                contextCheckThreadRing3Context
                0x00000000c0011e2d                KiCheckTaskContext
                0x00000000c0011e43                KiSaveCurrentContext
                0x00000000c0011e51                KiRestoreCurrentContext
                0x00000000c0011e5f                save_context_of_new_task
 .text          0x00000000c0011e65       0x18 tasks.o
                0x00000000c0011e65                task0
                0x00000000c0011e6b                task1
                0x00000000c0011e71                task2
                0x00000000c0011e77                task3
 .text          0x00000000c0011e7d      0x61c ts.o
                0x00000000c0011e7d                KiTaskSwitch
                0x00000000c0011eeb                task_switch
                0x00000000c001231e                taskswitchRR
                0x00000000c0012461                set_task_status
                0x00000000c001246f                get_task_status
                0x00000000c0012479                taskswitch_lock
                0x00000000c0012489                taskswitch_unlock
 .text          0x00000000c0012499      0xfa7 queue.o
                0x00000000c0012499                init_queue
                0x00000000c0012911                queue_insert_data
                0x00000000c0012dd8                queue_insert_head
                0x00000000c0012f8e                queue_get_data
                0x00000000c0013142                show_queue_information
                0x00000000c00131d6                ScanReadyQueue
                0x00000000c001328f                feed_ready_queue
 .text          0x00000000c0013440      0x115 sched.o
                0x00000000c0013440                scheduler
                0x00000000c0013504                scheduler_start
                0x00000000c001351f                scheduler_lock
                0x00000000c001352f                scheduler_unlock
                0x00000000c001353f                scheduler_get_status
                0x00000000c0013549                new_task_scheduler
                0x00000000c001354f                init_scheduler
 .text          0x00000000c0013555      0x979 schedi.o
                0x00000000c0013555                do_wait
                0x00000000c00135e9                block_for_a_reason
                0x00000000c001365f                wakeup_thread_reason
                0x00000000c0013787                wakeup_scan_thread_reason
                0x00000000c00137f4                KiIncreasePriority
                0x00000000c00137fe                KiScheduler
                0x00000000c0013836                KiFindHigherPriority
                0x00000000c0013843                KiSelectNextThread
                0x00000000c0013867                KiDoThreadReady
                0x00000000c001387e                KiDoThreadRunning
                0x00000000c0013895                KiDoThreadSleeping
                0x00000000c00138ac                KiDoThreadZombie
                0x00000000c00138c3                KiDoThreadDead
                0x00000000c00138da                KiNewTaskScheduler
                0x00000000c00138e0                KiDispatchTask
                0x00000000c00138e6                KiSetPriority
                0x00000000c00138f3                KiSetCurrent
                0x00000000c001390a                KiGetCurrent
                0x00000000c0013917                KiGetCurrentTask
                0x00000000c0013924                find_higher_priority
                0x00000000c0013a24                preempt
                0x00000000c0013ae2                get_current
                0x00000000c0013aec                get_current_task
                0x00000000c0013af6                set_current
                0x00000000c0013b22                set_priority
                0x00000000c0013b5b                do_thread_initialized
                0x00000000c0013b92                do_thread_ready
                0x00000000c0013bc9                do_thread_running
                0x00000000c0013c18                do_thread_sleeping
                0x00000000c0013c4f                do_thread_zombie
                0x00000000c0013c8f                do_thread_dead
                0x00000000c0013cc6                wakeup_thread
                0x00000000c0013d1f                SelectNextThread
                0x00000000c0013dd5                check_for_standby
                0x00000000c0013e5f                check_quantum
 .text          0x00000000c0013ece      0x86e dispatch.o
                0x00000000c0013ece                dispatcher
                0x00000000c0013fe1                readyDispatcher
                0x00000000c0014052                syscoopDispatcher
                0x00000000c00140ef                usercoopDispatcher
                0x00000000c001418c                sysconcDispatcher
                0x00000000c0014229                userconcDispatcher
                0x00000000c00142c6                systemDispatcher
                0x00000000c00142d0                idleDispatcher
                0x00000000c00142da                periodicDispatcher
                0x00000000c00142e4                rrDispatcher
                0x00000000c00142ee                realtimeDispatcher
                0x00000000c001435b                dispatch_Default
                0x00000000c0014519                dispatch_thread2
                0x00000000c001455e                dispatch_thread
                0x00000000c00145df                init_dispatcher
                0x00000000c0014688                IncrementDispatcherCount
 .text          0x00000000c001473c       0xdf sem.o
                0x00000000c001473c                init_semaphore
                0x00000000c001475c                Down
                0x00000000c00147a3                Up
                0x00000000c00147dd                semaphore_down
                0x00000000c00147ee                semaphore_up
                0x00000000c00147ff                create_semaphore
                0x00000000c0014809                delete_semaphore
                0x00000000c001480f                open_semaphore
                0x00000000c0014815                close_semaphore
 .text          0x00000000c001481b        0x6 modules.o
                0x00000000c001481b                modulesModules
 .text          0x00000000c0014821     0x1316 nicintel.o
                0x00000000c0014821                PCIRegisterIRQHandler
                0x00000000c0014855                init_nic
                0x00000000c0014d4b                xxxe1000handler
                0x00000000c00150d0                e1000_setup_irq
                0x00000000c001510f                e1000_reset_controller
                0x00000000c001557b                E1000WriteCommand
                0x00000000c001559e                E1000ReadCommand
                0x00000000c00155bb                E1000AllocCont
                0x00000000c0015634                testSend
                0x00000000c0015929                E1000Send
                0x00000000c0015a69                send_ipv4_packet
                0x00000000c0015a8e                nic_i8254x_transmit
                0x00000000c0015aa7                E1000ReadEEPROM
 .text          0x00000000c0015b37      0x54f network.o
                0x00000000c0015b37                networkSetstatus
                0x00000000c0015b53                networkGetStatus
                0x00000000c0015b5d                networkInit
                0x00000000c0015c60                show_network_info
                0x00000000c0015d16                show_current_nic_info
                0x00000000c0016007                handle_ipv6
                0x00000000c001604e                testNIC
 .text          0x00000000c0016086       0xbc socket.o
                0x00000000c0016086                create_socket
                0x00000000c00160d9                getSocketIP
                0x00000000c00160f1                getSocketPort
                0x00000000c001610d                update_socket
 .text          0x00000000c0016142        0xa sm.o
                0x00000000c0016142                init_systemserver
 .text          0x00000000c001614c       0xa7 channel.o
                0x00000000c001614c                CreateChannel
                0x00000000c0016199                DestroyChannel
                0x00000000c00161b1                OpenChannel
                0x00000000c00161d2                CloseChannel
 .text          0x00000000c00161f3       0x63 ipc.o
                0x00000000c00161f3                ipcProcedure
                0x00000000c00161fd                ipcProcedureEx
                0x00000000c0016207                ipc_dispatch_message
                0x00000000c0016250                init_ipc
 .text          0x00000000c0016256      0x63b read.o
                0x00000000c0016256                read_fntos
                0x00000000c0016380                fatClustToSect
                0x00000000c00163a8                fatLoadCluster
                0x00000000c00163e4                read_lba
                0x00000000c001641a                fsLoadFile
                0x00000000c001660f                fs_load_fatEx
                0x00000000c001665e                load_directory
                0x00000000c00166a8                fs_load_rootdirEx
                0x00000000c00166c8                fs_load_rootdir
                0x00000000c00166e8                fs_load_dir
                0x00000000c001671b                fsGetFileSize
 .text          0x00000000c0016891      0x641 write.o
                0x00000000c0016891                write_fntos
                0x00000000c00169bb                fatWriteCluster
                0x00000000c00169f7                write_lba
                0x00000000c0016a64                fsSaveFile
                0x00000000c0016eba                fs_save_rootdir
                0x00000000c0016ec0                fs_save_dir
                0x00000000c0016ec6                fs_save_entry_on_root
                0x00000000c0016ecc                fs_save_structure
 .text          0x00000000c0016ed2       0xe5 cf.o
                0x00000000c0016ed2                fs_create_dir
                0x00000000c0016edc                fs_create_file
                0x00000000c0016fa5                fs_create_entry
                0x00000000c0016fab                fs_create_name
                0x00000000c0016fb1                create_system_folders
 .text          0x00000000c0016fb7      0x2f3 search.o
                0x00000000c0016fb7                KiSearchFile
                0x00000000c00170be                fsSearchFile
                0x00000000c00171b6                fs_find_empty_entry
                0x00000000c00171c0                findEmptyDirectoryEntry
                0x00000000c0017219                fs_find_n_empty_entries
                0x00000000c0017294                fsSearchFileName
 .text          0x00000000c00172aa       0x1a format.o
                0x00000000c00172aa                fs_apaga_fat
                0x00000000c00172b8                fs_delete_entry
                0x00000000c00172be                fsClearFat
 .text          0x00000000c00172c4     0x1d40 disk1.o
                0x00000000c00172c4                disk_get_ata_irq_invoked
                0x00000000c00172ce                disk_reset_ata_irq_invoked
                0x00000000c00172de                ata_wait
                0x00000000c0017310                ata_wait_not_busy
                0x00000000c001733e                ata_wait_busy
                0x00000000c001736c                ata_wait_no_drq
                0x00000000c00173a0                ata_wait_drq
                0x00000000c00173d4                ata_wait_irq
                0x00000000c001744b                ata_soft_reset
                0x00000000c00174a4                ata_status_read
                0x00000000c00174c0                ata_cmd_write
                0x00000000c00174f5                ata_assert_dever
                0x00000000c001759a                ide_identify_device
                0x00000000c0017b42                set_ata_addr
                0x00000000c0017b98                ide_mass_storage_initialize
                0x00000000c0017c3e                ide_dev_init
                0x00000000c0018003                nport_ajuste
                0x00000000c001805c                ata_pio_read
                0x00000000c0018081                ata_pio_write
                0x00000000c00180a6                ide_dma_data
                0x00000000c001817e                ide_dma_start
                0x00000000c00181b8                ide_dma_stop
                0x00000000c0018223                ide_dma_read_status
                0x00000000c0018242                diskReadPCIConfigAddr
                0x00000000c00182a1                diskWritePCIConfigAddr
                0x00000000c0018305                diskATAPCIConfigurationSpace
                0x00000000c00189dc                diskPCIScanDevice
                0x00000000c0018ae9                diskATAInitialize
                0x00000000c0018e0a                diskATADialog
                0x00000000c0018e4b                diskATAIRQHandler1
                0x00000000c0018e5b                diskATAIRQHandler2
                0x00000000c0018e6b                show_ide_info
                0x00000000c0018f8a                disk_ata_wait_irq
 .text          0x00000000c0019004      0x892 diskvol.o
                0x00000000c0019004                diskShowCurrentDiskInfo
                0x00000000c0019034                diskShowDiskInfo
                0x00000000c001913f                disk_get_disk_handle
                0x00000000c0019164                disk_get_current_disk_info
                0x00000000c001916e                disk_init
                0x00000000c001925d                init_test_disk
                0x00000000c0019263                volumeShowCurrentVolumeInfo
                0x00000000c0019293                volumeShowVolumeInfo
                0x00000000c00193db                volume_get_volume_handle
                0x00000000c0019400                volume_get_current_volume_info
                0x00000000c0019426                volume_init
                0x00000000c00195f4                get_ide_disk_info
                0x00000000c001969c                show_ideports_info
 .text          0x00000000c0019896      0xe77 fs.o
                0x00000000c0019896                fsCheckPEFile
                0x00000000c00198e8                fsListFiles
                0x00000000c0019954                fsCreateVFS
                0x00000000c001995a                fsList
                0x00000000c001998f                fsFAT16ListFiles
                0x00000000c0019a2a                KeLoadFile
                0x00000000c0019aae                get_file
                0x00000000c0019aca                set_file
                0x00000000c0019aee                fs_test_fat_vector
                0x00000000c0019af4                fs_get_fat_entry
                0x00000000c0019afe                fs_set_fat_entry
                0x00000000c0019b04                fs_put_list_on_fat
                0x00000000c0019b0a                fs_set_structures
                0x00000000c0019b10                fs_set_entry
                0x00000000c0019b16                fs_get_entry
                0x00000000c0019b1c                fs_show_dir_entry
                0x00000000c0019b22                fs_show_dir
                0x00000000c0019b28                fs_check_cluster
                0x00000000c0019b32                fs_check_fat
                0x00000000c0019b3c                fs_show_entry
                0x00000000c0019b42                fs_get_entry_status
                0x00000000c0019b4c                fs_set_entry_status
                0x00000000c0019b52                fsCheckMbrFile
                0x00000000c0019cc6                fsCheckVbrFile
                0x00000000c0019d2c                fs_check_disk
                0x00000000c0019d55                MountShortFileName
                0x00000000c0019e3b                set_spc
                0x00000000c0019e49                get_spc
                0x00000000c0019e53                get_filesystem_type
                0x00000000c0019e5d                set_filesystem_type
                0x00000000c0019e6b                fs_init_fat
                0x00000000c0019edc                fs_init_structures
                0x00000000c0019fcd                fsInit
                0x00000000c001a1a2                fsInitializeWorkingDiretoryString
                0x00000000c001a2be                fs_initialize_process_pwd
                0x00000000c001a394                fs_print_process_pwd
                0x00000000c001a457                fsUpdateWorkingDiretoryString
                0x00000000c001a555                fs_pathname_backup
                0x00000000c001a681                sys_read_file
                0x00000000c001a6c2                sys_write_file
 .text          0x00000000c001a70d      0x23c vfs.o
                0x00000000c001a70d                vfsInit
                0x00000000c001a887                vfs_show_handle_list
                0x00000000c001a8d7                vfsShowVFSInfo
                0x00000000c001a8dd                vfsListFiles
 .text          0x00000000c001a949      0x2cf cedge.o
                0x00000000c001a949                _outbyte
                0x00000000c001aa63                outbyte
 .text          0x00000000c001ac18        0x0 ctype.o
 .text          0x00000000c001ac18      0x1b3 request.o
                0x00000000c001ac18                KiRequest
                0x00000000c001ac55                request
 .text          0x00000000c001adcb      0x40d info.o
                0x00000000c001adcb                KeInformation
                0x00000000c001add1                KiInformation
 .text          0x00000000c001b1d8       0x51 signal.o
                0x00000000c001b1d8                signalSend
                0x00000000c001b215                signalInit
 .text          0x00000000c001b229     0x1adc system.o
                0x00000000c001b229                set_up_color
                0x00000000c001b237                set_up_text_color
                0x00000000c001b263                set_up_cursor
                0x00000000c001b279                get_cursor_x
                0x00000000c001b283                get_cursor_y
                0x00000000c001b28d                systemRam
                0x00000000c001b950                systemIoCpu
                0x00000000c001bc18                systemIoDma
                0x00000000c001bc49                systemDevicesUnblocked
                0x00000000c001becf                systemDevicesBlocked
                0x00000000c001bff2                systemThings
                0x00000000c001c023                systemNull
                0x00000000c001c02d                systemLinkDriver
                0x00000000c001c05c                systemShowDevicesInfo
                0x00000000c001c0e4                systemCreateSystemMenuBar
                0x00000000c001c1b4                systemSetupVersion
                0x00000000c001c279                system_dispatch_to_procedure
                0x00000000c001c2a7                SystemMenu
                0x00000000c001c405                SystemMenuProcedure
                0x00000000c001c462                systemReboot
                0x00000000c001c79b                systemShutdown
                0x00000000c001c7c6                systemShutdownViaAPM
                0x00000000c001c7df                systemGetSystemMetric
                0x00000000c001c825                systemGetSystemStatus
                0x00000000c001c858                die
                0x00000000c001c882                systemGetTerminalWindow
                0x00000000c001c88c                systemSetTerminalWindow
                0x00000000c001caf1                systemSetTerminalRectangle
                0x00000000c001caf7                systemGetSystemMetrics
                0x00000000c001cb5f                newLinkedlist
                0x00000000c001cb9a                newNode
                0x00000000c001cbcc                Removing_from_the_beginning
                0x00000000c001cbf7                Removing_from_the_middle
                0x00000000c001cbfd                Removing_from_the_end
                0x00000000c001cc29                systemStartUp
                0x00000000c001ccc8                systemInit
                0x00000000c001ccf5                systemSystem
 .text          0x00000000c001cd05      0x111 bg.o
                0x00000000c001cd05                backgroundDraw
                0x00000000c001cd8e                backgroundSetColor
                0x00000000c001cdbc                backgroundRedraw
                0x00000000c001cded                backgroundBackground
                0x00000000c001ce07                backgroundInit
 .text          0x00000000c001ce16      0x321 grid.o
                0x00000000c001ce16                InitializeGrid
                0x00000000c001d081                CreateGrid
                0x00000000c001d0f8                grid
 .text          0x00000000c001d137      0x1ea sbar.o
                0x00000000c001d137                StatusBar
 .text          0x00000000c001d321      0x88d menubar.o
                0x00000000c001d321                create_menubar
                0x00000000c001d4ad                create_menubar_item
                0x00000000c001d7ae                select_menubar_item
                0x00000000c001d7e9                unselect_menubar_item
                0x00000000c001d824                redraw_menubar_item
                0x00000000c001d9a7                get_menubar_selected_item
                0x00000000c001d9ba                menubarX
                0x00000000c001dae7                MenuBarProcedure
 .text          0x00000000c001dbae      0x8ea menu.o
                0x00000000c001dbae                create_menu
                0x00000000c001ddf9                create_menu_item
                0x00000000c001e03c                set_current_menu
                0x00000000c001e057                get_current_menu
                0x00000000c001e078                RegisterMenu
                0x00000000c001e0e5                initmenuArray
                0x00000000c001e208                ControlMenu
                0x00000000c001e21e                MainMenu
                0x00000000c001e312                MainMenuProcedure
                0x00000000c001e453                init_menus
 .text          0x00000000c001e498       0x6b i8042.o
                0x00000000c001e498                ps2
                0x00000000c001e4f3                MessageBox
                0x00000000c001e4f9                MessageBoxProcedure
 .text          0x00000000c001e503      0xb4f ps2mouse.o
                0x00000000c001e503                mouse_write
                0x00000000c001e550                mouse_read
                0x00000000c001e572                MOUSE_BAT_TEST
                0x00000000c001e5ae                mouse_install
                0x00000000c001e66d                kernelPS2MouseDriverReadData
                0x00000000c001e673                load_mouse_bmp
                0x00000000c001e708                set_current_mouse_responder
                0x00000000c001e716                get_current_mouse_responder
                0x00000000c001e720                mouseHandler
                0x00000000c001ee94                ps2_mouse_initialize
                0x00000000c001ef66                ps2_mouse_globals_initialize
                0x00000000c001f042                DialogBox
                0x00000000c001f048                DialogBoxProcedure
 .text          0x00000000c001f052      0x56e ps2kbd.o
                0x00000000c001f052                keyboard_read
                0x00000000c001f08b                keyboard_write
                0x00000000c001f0c9                BAT_TEST
                0x00000000c001f105                ps2_keyboard_initialize
                0x00000000c001f250                keyboardGetKeyState
                0x00000000c001f324                ldisc_init_modifier_keys
                0x00000000c001f352                ldisc_init_lock_keys
                0x00000000c001f376                keyboardEnable
                0x00000000c001f3a9                keyboardDisable
                0x00000000c001f3dc                keyboard_set_leds
                0x00000000c001f459                KdGetWindowPointer
                0x00000000c001f491                KbGetMessage
                0x00000000c001f4d0                KbGetLongParam1
                0x00000000c001f4fb                KbGetLongParam2
                0x00000000c001f526                reboot
                0x00000000c001f539                get_alt_status
                0x00000000c001f543                get_ctrl_status
                0x00000000c001f54d                get_shift_status
                0x00000000c001f557                kbdc_wait
                0x00000000c001f5a8                set_current_keyboard_responder
                0x00000000c001f5b6                get_current_keyboard_responder
 .text          0x00000000c001f5c0      0x36e button.o
                0x00000000c001f5c0                updateButton
                0x00000000c001f63a                draw_button
 .text          0x00000000c001f92e      0x2f5 char.o
                0x00000000c001f92e                my_buffer_char_blt
                0x00000000c001f94b                set_char_width
                0x00000000c001f959                set_char_height
                0x00000000c001f967                get_char_width
                0x00000000c001f971                get_char_height
                0x00000000c001f97b                drawchar_transparent
                0x00000000c001facc                draw_char
 .text          0x00000000c001fc23      0x302 pixel.o
                0x00000000c001fc23                pixelPutPixelWindowBuffer
                0x00000000c001fc29                pixelPutPixelDedicatedWindowBuffer
                0x00000000c001fca2                backbuffer_putpixel
                0x00000000c001fd74                lfb_putpixel
                0x00000000c001fe46                get_pixel
                0x00000000c001feae                refresh_pixel
 .text          0x00000000c001ff25       0xc0 line.o
                0x00000000c001ff25                my_buffer_horizontal_line
                0x00000000c001ff4f                refresh_horizontal_line
 .text          0x00000000c001ffe5      0x79f rect.o
                0x00000000c001ffe5                rectStrCopyMemory32
                0x00000000c0020046                drawDataRectangle
                0x00000000c0020106                getClientAreaRect
                0x00000000c0020110                setClientAreaRect
                0x00000000c0020150                refresh_rectangle
                0x00000000c0020282                refresh_rectangle2
                0x00000000c00203ba                initialize_saved_rect
                0x00000000c0020498                save_rect
                0x00000000c002060e                show_saved_rect
 .text          0x00000000c0020784       0xa5 dtext.o
                0x00000000c0020784                draw_text
                0x00000000c00207bb                draw_string
 .text          0x00000000c0020829       0x8f font.o
                0x00000000c0020829                gwsSetCurrentFontAddress
                0x00000000c0020837                gwsGetCurrentFontAddress
                0x00000000c0020841                gwsInstallFont
 .text          0x00000000c00208b8       0x66 vsync.o
                0x00000000c00208b8                vsync
                0x00000000c00208f9                vsync_inb
 .text          0x00000000c002091e      0x999 bmp.o
                0x00000000c002091e                bmpDirectDisplayBMP
                0x00000000c0020da4                bmpDisplayBMP
                0x00000000c0021225                bmpDisplayMousePointerBMP
                0x00000000c002126e                bmpDisplayCursorBMP
 .text          0x00000000c00212b7     0x10ed createw.o
                0x00000000c00212b7                CreateWindow
 .text          0x00000000c00223a4     0x2f01 window.o
                0x00000000c00223a4                save_window
                0x00000000c0022400                show_saved_window
                0x00000000c002245c                show_window_rect
                0x00000000c00224ff                windowKillTimer
                0x00000000c0022542                windowSetTimer
                0x00000000c0022586                windowGetWindowID
                0x00000000c00225b6                windowGetMainWindowDescriptor
                0x00000000c00225e6                windowInitializeBrowserSupport
                0x00000000c00225f0                GetParentWindow
                0x00000000c002260b                GetWindowDesktop
                0x00000000c0022626                windowSetUpColorScheme
                0x00000000c0022858                windowSelectColorScheme
                0x00000000c0022972                windowShowWWFMessageBuffers
                0x00000000c00229c2                windowSendMessage
                0x00000000c0022a46                windowGetHandleWindow
                0x00000000c0022a50                windowGetMessage
                0x00000000c0022aca                windowGetLong1
                0x00000000c0022af8                windowGetLong2
                0x00000000c0022b02                window_getch
                0x00000000c0022bbf                windowCreateDedicatedBuffer
                0x00000000c0022c2b                windowLock
                0x00000000c0022c46                windowUnlock
                0x00000000c0022c61                set_current_window
                0x00000000c0022c82                get_current_window
                0x00000000c0022c8c                RegisterWindow
                0x00000000c0022d1d                windowShowWindowList
                0x00000000c0022f57                redraw_window
                0x00000000c0023da3                redraw_screen
                0x00000000c0023ebd                resize_window
                0x00000000c0023ee6                replace_window
                0x00000000c0023f0f                is_window_full
                0x00000000c0023f3a                is_window_maximized
                0x00000000c0023f65                is_window_minimized
                0x00000000c0023f90                CloseWindow
                0x00000000c002407d                DestroyWindow
                0x00000000c0024094                get_active_window
                0x00000000c002409e                set_active_window
                0x00000000c00241f0                change_active_window
                0x00000000c0024206                show_active_window
                0x00000000c0024225                show_window_with_focus
                0x00000000c0024244                CloseActiveWindow
                0x00000000c00242c7                windowBlockFocus
                0x00000000c00242d7                windowUnblockFocus
                0x00000000c00242e7                SetFocus
                0x00000000c0024622                GetFocus
                0x00000000c0024633                windowGetForegroundWindow
                0x00000000c0024644                windowSetForegroundWindow
                0x00000000c002468b                windowSwitchFocus
                0x00000000c0024775                KillFocus
                0x00000000c0024822                MinimizeWindow
                0x00000000c0024883                MaximizeWindow
                0x00000000c002494b                init_window_manager
                0x00000000c00249a2                init_windows
                0x00000000c0024bb1                get_zorder
                0x00000000c0024bcc                getTopWindow
                0x00000000c0024bea                get_top_window
                0x00000000c0024bf4                set_top_window
                0x00000000c0024c02                closeActiveWindow
                0x00000000c0024c2e                z_order_get_free_slot
                0x00000000c0024c97                windowLoadGramadoIcons
                0x00000000c0024eb1                windowScan
                0x00000000c0024fb1                windowUpdateWindow
                0x00000000c0024fcc                windowSwitchFullScreen
                0x00000000c002529b                scroll_client_window
 .text          0x00000000c00252a5      0x3c4 desktop.o
                0x00000000c00252a5                RegisterDesktop
                0x00000000c00252f2                set_current_desktop
                0x00000000c002530b                get_current_desktop
                0x00000000c0025336                get_current_desktop_id
                0x00000000c0025340                init_desktop_list
                0x00000000c002536a                CreateDesktop
                0x00000000c0025401                set_current_menuwindow
                0x00000000c002541e                set_current_foreground
                0x00000000c002543b                set_current_messagewindow
                0x00000000c0025458                set_current_traywindow
                0x00000000c0025475                set_current_tooltipwindow
                0x00000000c0025492                change_foreground
                0x00000000c00254dd                set_current_sysMenu
                0x00000000c00254fa                set_current_dialogsysMenu
                0x00000000c0025517                set_current_menuHScroll
                0x00000000c0025534                set_current_menuVScroll
                0x00000000c0025551                init_desktop
 .text          0x00000000c0025669      0x1b5 room.o
                0x00000000c0025669                get_current_room
                0x00000000c002568a                set_current_room
                0x00000000c00256a3                CreateRoom
                0x00000000c002573a                RegisterRoom
                0x00000000c0025787                init_room_list
                0x00000000c00257b1                init_room_manager
 .text          0x00000000c002581e      0x22f usession.o
                0x00000000c002581e                get_current_user_session
                0x00000000c0025849                CreateUserSession
                0x00000000c0025914                close_user_session
                0x00000000c002597f                open_user_session
                0x00000000c00259ba                init_user_session
 .text          0x00000000c0025a4d      0xb1c gws.o
                0x00000000c0025a4d                gwsOpen
                0x00000000c0025a61                gwsClose
                0x00000000c0025a75                gwsRegisterWindowManager
                0x00000000c0025ac0                create_gui
                0x00000000c0025d20                SetGuiParameters
                0x00000000c0025dba                gui_create_screen
                0x00000000c0025e7c                gui_create_background
                0x00000000c0025f56                gui_create_taskbar
                0x00000000c002602a                gui_create_mainwindow
                0x00000000c002616c                gui_create_logo
                0x00000000c0026172                gui_create_controlmenu
                0x00000000c0026178                gui_create_infobox
                0x00000000c0026199                gui_create_messagebox
                0x00000000c00261ba                gui_create_debug
                0x00000000c00261db                gui_create_navigationbar
                0x00000000c00261e1                gui_create_grid
                0x00000000c0026202                guiGetScreenWindow
                0x00000000c002621f                guiGetDeveloperScreenWindow
                0x00000000c002623c                guiGetBackgroundWindow
                0x00000000c0026259                guiGetLogoWindow
                0x00000000c0026276                guiGetDesktopWindow
                0x00000000c0026293                guiGetTaskbarWindow
                0x00000000c00262b0                guiGetMainWindow
                0x00000000c00262cd                guiGetStatusbarWindow
                0x00000000c00262ea                guiGetGridWindow
                0x00000000c002630a                guiGetMenuWindow
                0x00000000c002632a                guiGetInfoboxWindow
                0x00000000c002634a                guiGetTooltipWindow
                0x00000000c002636a                guiGetMessageboxWindow
                0x00000000c002638a                guiGetDialogboxWindow
                0x00000000c00263aa                guiGetDebugWindow
                0x00000000c00263ca                guiGetMbhWindowWindow
                0x00000000c00263ea                guiGetTopbarWindow
                0x00000000c002640a                guiGetNavigationbarWindow
                0x00000000c002642a                guiGetShellWindowWindow
                0x00000000c002644a                guiGetShellClientWindowWindow
                0x00000000c002646a                guiSetUpMainWindow
                0x00000000c0026505                init_gui
                0x00000000c0026559                gramado
                0x00000000c002655f                init_gramado
 .text          0x00000000c0026569       0x3a object.o
                0x00000000c0026569                init_object_manager
 .text          0x00000000c00265a3      0x2fa userenv.o
                0x00000000c00265a3                startUserEnvironment
                0x00000000c00265da                ShowUserInfo
                0x00000000c0026639                config_user
                0x00000000c0026649                CreateUser
                0x00000000c0026716                SetCurrentUserId
                0x00000000c0026744                GetCurrentUserId
                0x00000000c002674e                SetCurrentGroupId
                0x00000000c002677c                GetCurrentGroupId
                0x00000000c0026786                UpdateUserInfo
                0x00000000c00267dc                init_user_info
                0x00000000c0026889                init_user_environment_manager
 .text          0x00000000c002689d      0x989 proc.o
                0x00000000c002689d                procTestF6
                0x00000000c00268d9                ldisc_dialog
                0x00000000c0026a21                terminal_dialog
                0x00000000c0026a2b                system_procedure
                0x00000000c0026c9d                registra_procedimento
                0x00000000c0026cb8                SetProcedure
                0x00000000c0026cce                SendMessage
                0x00000000c0026cea                procedureHelp
                0x00000000c0027026                procedureLinkDriverTest
                0x00000000c0027066                procedureMakeTests
                0x00000000c0027140                procedureWindowWithFocusTest
                0x00000000c00271e9                procedureGrid
 .text          0x00000000c0027226       0x41 syscall.o
                0x00000000c0027226                systemcall
                0x00000000c0027247                jmp_address
 .text          0x00000000c0027267       0x1e install.o
                0x00000000c0027267                install_os
                0x00000000c002726d                install_boot_manager
                0x00000000c0027273                install_bootmanager_stage1
                0x00000000c0027279                install_bootmanager_stage2
                0x00000000c002727f                install_bootmanager_metafile
 .text          0x00000000c0027285       0xe5 serial.o
                0x00000000c0027285                serial_write_char
                0x00000000c00272c4                init_serial
 .text          0x00000000c002736a      0x19e debug.o
                0x00000000c002736a                debug_check_inicialization
                0x00000000c0027416                debug_check_drivers
                0x00000000c0027428                debug_breakpoint
                0x00000000c0027446                debug_compute_checksum
                0x00000000c0027476                debug
                0x00000000c00274c9                debug_print
 .text          0x00000000c0027508      0x158 abort.o
                0x00000000c0027508                KeAbort
                0x00000000c0027526                systemAbort
                0x00000000c0027534                KiAbort
                0x00000000c0027542                abort
 .text          0x00000000c0027660      0x2fd x86fault.o
                0x00000000c0027660                faults
                0x00000000c0027878                KiCpuFaults
                0x00000000c002788f                do_pagefault
 .text          0x00000000c002795d     0x11b4 services.o
                0x00000000c002795d                services
                0x00000000c0028a7e                servicesPutChar
                0x00000000c0028b0b                servicesChangeProcedure
                0x00000000c0028b11                _code_end = .
                0x00000000c0029000                . = ALIGN (0x1000)
 *fill*         0x00000000c0028b11      0x4ef 

.eh_frame       0x00000000c0029000     0x8560
 .eh_frame      0x00000000c0029000       0x9c x86main.o
 .eh_frame      0x00000000c002909c       0x58 io.o
 .eh_frame      0x00000000c00290f4      0x2c4 hal.o
 .eh_frame      0x00000000c00293b8      0x1b8 mk.o
 .eh_frame      0x00000000c0029570       0x98 execve.o
 .eh_frame      0x00000000c0029608       0xb8 video.o
 .eh_frame      0x00000000c00296c0       0xdc screen.o
 .eh_frame      0x00000000c002979c       0x58 runtime.o
 .eh_frame      0x00000000c00297f4      0x318 portsx86.o
 .eh_frame      0x00000000c0029b0c      0x258 x86.o
 .eh_frame      0x00000000c0029d64      0x290 stdio.o
 .eh_frame      0x00000000c0029ff4       0x78 stdlib.o
 .eh_frame      0x00000000c002a06c      0x1f8 string.o
 .eh_frame      0x00000000c002a264       0x58 tty.o
 .eh_frame      0x00000000c002a2bc       0xd8 init.o
 .eh_frame      0x00000000c002a394      0x238 logon.o
 .eh_frame      0x00000000c002a5cc       0x58 logoff.o
 .eh_frame      0x00000000c002a624       0xc4 detect.o
 .eh_frame      0x00000000c002a6e8       0x58 cpuamd.o
 .eh_frame      0x00000000c002a740      0x1fc memory.o
 .eh_frame      0x00000000c002a93c      0x204 pages.o
 .eh_frame      0x00000000c002ab40      0x2f8 timer.o
 .eh_frame      0x00000000c002ae38      0x13c rtc.o
 .eh_frame      0x00000000c002af74       0x78 keyboard.o
 .eh_frame      0x00000000c002afec       0x38 mouse.o
 .eh_frame      0x00000000c002b024       0x98 ldisc.o
 .eh_frame      0x00000000c002b0bc      0x160 hdd.o
 .eh_frame      0x00000000c002b21c      0x270 pci.o
 .eh_frame      0x00000000c002b48c       0x38 usb.o
 .eh_frame      0x00000000c002b4c4       0x38 devmgr.o
 .eh_frame      0x00000000c002b4fc       0x78 spawn.o
 .eh_frame      0x00000000c002b574       0x38 callout.o
 .eh_frame      0x00000000c002b5ac       0x38 callfar.o
 .eh_frame      0x00000000c002b5e4      0x7fc process.o
 .eh_frame      0x00000000c002bde0      0x158 thread.o
 .eh_frame      0x00000000c002bf38      0x428 threadi.o
 .eh_frame      0x00000000c002c360       0x38 theap.o
 .eh_frame      0x00000000c002c398       0x38 tstack.o
 .eh_frame      0x00000000c002c3d0       0xf8 create.o
 .eh_frame      0x00000000c002c4c8      0x158 x86start.o
 .eh_frame      0x00000000c002c620      0x138 x86cont.o
 .eh_frame      0x00000000c002c758       0x88 tasks.o
 .eh_frame      0x00000000c002c7e0       0xfc ts.o
 .eh_frame      0x00000000c002c8dc       0xf8 queue.o
 .eh_frame      0x00000000c002c9d4       0xf8 sched.o
 .eh_frame      0x00000000c002cacc      0x478 schedi.o
 .eh_frame      0x00000000c002cf44      0x218 dispatch.o
 .eh_frame      0x00000000c002d15c      0x138 sem.o
 .eh_frame      0x00000000c002d294       0x38 modules.o
 .eh_frame      0x00000000c002d2cc      0x1bc nicintel.o
 .eh_frame      0x00000000c002d488      0x108 network.o
 .eh_frame      0x00000000c002d590       0x98 socket.o
 .eh_frame      0x00000000c002d628       0x38 sm.o
 .eh_frame      0x00000000c002d660       0x98 channel.o
 .eh_frame      0x00000000c002d6f8       0x98 ipc.o
 .eh_frame      0x00000000c002d790      0x178 read.o
 .eh_frame      0x00000000c002d908      0x118 write.o
 .eh_frame      0x00000000c002da20       0xb8 cf.o
 .eh_frame      0x00000000c002dad8       0xd8 search.o
 .eh_frame      0x00000000c002dbb0       0x78 format.o
 .eh_frame      0x00000000c002dc28      0x494 disk1.o
 .eh_frame      0x00000000c002e0bc      0x1bc diskvol.o
 .eh_frame      0x00000000c002e278      0x520 fs.o
 .eh_frame      0x00000000c002e798       0x9c vfs.o
 .eh_frame      0x00000000c002e834       0x64 cedge.o
 .eh_frame      0x00000000c002e898       0x58 request.o
 .eh_frame      0x00000000c002e8f0       0x68 info.o
 .eh_frame      0x00000000c002e958       0x58 signal.o
 .eh_frame      0x00000000c002e9b0      0x4b8 system.o
 .eh_frame      0x00000000c002ee68       0xb8 bg.o
 .eh_frame      0x00000000c002ef20       0x78 grid.o
 .eh_frame      0x00000000c002ef98       0x38 sbar.o
 .eh_frame      0x00000000c002efd0      0x12c menubar.o
 .eh_frame      0x00000000c002f0fc      0x158 menu.o
 .eh_frame      0x00000000c002f254       0x78 i8042.o
 .eh_frame      0x00000000c002f2cc      0x1d8 ps2mouse.o
 .eh_frame      0x00000000c002f4a4      0x2b8 ps2kbd.o
 .eh_frame      0x00000000c002f75c       0x58 button.o
 .eh_frame      0x00000000c002f7b4       0xf8 char.o
 .eh_frame      0x00000000c002f8ac       0xd8 pixel.o
 .eh_frame      0x00000000c002f984       0x58 line.o
 .eh_frame      0x00000000c002f9dc      0x140 rect.o
 .eh_frame      0x00000000c002fb1c       0x58 dtext.o
 .eh_frame      0x00000000c002fb74       0x78 font.o
 .eh_frame      0x00000000c002fbec       0x58 vsync.o
 .eh_frame      0x00000000c002fc44       0x98 bmp.o
 .eh_frame      0x00000000c002fcdc       0x44 createw.o
 .eh_frame      0x00000000c002fd20      0x838 window.o
 .eh_frame      0x00000000c0030558      0x238 desktop.o
 .eh_frame      0x00000000c0030790       0xd8 room.o
 .eh_frame      0x00000000c0030868       0xb8 usession.o
 .eh_frame      0x00000000c0030920      0x518 gws.o
 .eh_frame      0x00000000c0030e38       0x38 object.o
 .eh_frame      0x00000000c0030e70      0x178 userenv.o
 .eh_frame      0x00000000c0030fe8      0x19c proc.o
 .eh_frame      0x00000000c0031184       0x5c syscall.o
 .eh_frame      0x00000000c00311e0       0xb8 install.o
 .eh_frame      0x00000000c0031298       0x58 serial.o
 .eh_frame      0x00000000c00312f0       0xd8 debug.o
 .eh_frame      0x00000000c00313c8       0x94 abort.o
 .eh_frame      0x00000000c003145c       0x78 x86fault.o
 .eh_frame      0x00000000c00314d4       0x8c services.o

.data           0x00000000c0031560    0x14aa0
                0x00000000c0031560                _data_begin = .
 *(.data)
 .data          0x00000000c0031560        0x2 head.o
                0x00000000c0031560                data_start
 *fill*         0x00000000c0031562       0x1e 
 .data          0x00000000c0031580      0x23c x86main.o
                0x00000000c0031780                copyright
 *fill*         0x00000000c00317bc        0x4 
 .data          0x00000000c00317c0      0x1f0 io.o
 *fill*         0x00000000c00319b0       0x10 
 .data          0x00000000c00319c0      0x1f0 hal.o
 *fill*         0x00000000c0031bb0       0x10 
 .data          0x00000000c0031bc0      0x1f0 mk.o
 *fill*         0x00000000c0031db0       0x10 
 .data          0x00000000c0031dc0      0x1f0 execve.o
 *fill*         0x00000000c0031fb0       0x10 
 .data          0x00000000c0031fc0      0x1f0 video.o
 *fill*         0x00000000c00321b0       0x10 
 .data          0x00000000c00321c0      0x1f0 screen.o
 *fill*         0x00000000c00323b0       0x10 
 .data          0x00000000c00323c0      0x1f0 runtime.o
 *fill*         0x00000000c00325b0       0x10 
 .data          0x00000000c00325c0      0x1f0 portsx86.o
 *fill*         0x00000000c00327b0       0x10 
 .data          0x00000000c00327c0      0x1f0 x86.o
 *fill*         0x00000000c00329b0       0x10 
 .data          0x00000000c00329c0      0x1f0 stdio.o
 *fill*         0x00000000c0032bb0       0x10 
 .data          0x00000000c0032bc0      0x1f4 stdlib.o
 *fill*         0x00000000c0032db4        0xc 
 .data          0x00000000c0032dc0      0x1f0 string.o
 *fill*         0x00000000c0032fb0       0x10 
 .data          0x00000000c0032fc0      0x1f0 tty.o
 *fill*         0x00000000c00331b0       0x10 
 .data          0x00000000c00331c0      0x1f0 init.o
 *fill*         0x00000000c00333b0       0x10 
 .data          0x00000000c00333c0      0x1f0 logon.o
 *fill*         0x00000000c00335b0       0x10 
 .data          0x00000000c00335c0      0x1f0 logoff.o
 *fill*         0x00000000c00337b0       0x10 
 .data          0x00000000c00337c0      0x1f0 detect.o
 *fill*         0x00000000c00339b0       0x10 
 .data          0x00000000c00339c0      0x1f0 cpuamd.o
 *fill*         0x00000000c0033bb0       0x10 
 .data          0x00000000c0033bc0      0x1f0 memory.o
 *fill*         0x00000000c0033db0       0x10 
 .data          0x00000000c0033dc0      0x1f0 pages.o
 *fill*         0x00000000c0033fb0       0x10 
 .data          0x00000000c0033fc0      0x1f0 apic.o
 *fill*         0x00000000c00341b0       0x10 
 .data          0x00000000c00341c0      0x1f0 pic.o
 *fill*         0x00000000c00343b0       0x10 
 .data          0x00000000c00343c0      0x1f0 timer.o
 *fill*         0x00000000c00345b0       0x10 
 .data          0x00000000c00345c0      0x1f0 rtc.o
 *fill*         0x00000000c00347b0       0x10 
 .data          0x00000000c00347c0      0x1f0 keyboard.o
 *fill*         0x00000000c00349b0       0x10 
 .data          0x00000000c00349c0      0x1f0 mouse.o
 *fill*         0x00000000c0034bb0       0x10 
 .data          0x00000000c0034bc0      0x1f0 ldisc.o
 *fill*         0x00000000c0034db0       0x10 
 .data          0x00000000c0034dc0      0x1f0 hdd.o
 *fill*         0x00000000c0034fb0       0x10 
 .data          0x00000000c0034fc0      0x2c4 pci.o
 .data          0x00000000c0035284        0x0 usb.o
 *fill*         0x00000000c0035284       0x1c 
 .data          0x00000000c00352a0      0x1f0 devmgr.o
 *fill*         0x00000000c0035490       0x10 
 .data          0x00000000c00354a0      0x1f0 spawn.o
 *fill*         0x00000000c0035690       0x10 
 .data          0x00000000c00356a0      0x1f0 callout.o
 .data          0x00000000c0035890        0x0 callfar.o
 *fill*         0x00000000c0035890       0x10 
 .data          0x00000000c00358a0      0x1f0 process.o
 *fill*         0x00000000c0035a90       0x10 
 .data          0x00000000c0035aa0      0x1f0 pheap.o
 *fill*         0x00000000c0035c90       0x10 
 .data          0x00000000c0035ca0      0x1f0 thread.o
 *fill*         0x00000000c0035e90       0x10 
 .data          0x00000000c0035ea0      0x1f0 threadi.o
 *fill*         0x00000000c0036090       0x10 
 .data          0x00000000c00360a0      0x1f0 theap.o
 *fill*         0x00000000c0036290       0x10 
 .data          0x00000000c00362a0      0x1f0 tstack.o
 *fill*         0x00000000c0036490       0x10 
 .data          0x00000000c00364a0      0x1f0 create.o
 *fill*         0x00000000c0036690       0x10 
 .data          0x00000000c00366a0      0x1f0 x86start.o
 *fill*         0x00000000c0036890       0x10 
 .data          0x00000000c00368a0      0x1f0 x86cont.o
 *fill*         0x00000000c0036a90       0x10 
 .data          0x00000000c0036aa0      0x1f0 tasks.o
 *fill*         0x00000000c0036c90       0x10 
 .data          0x00000000c0036ca0      0x1f0 ts.o
 *fill*         0x00000000c0036e90       0x10 
 .data          0x00000000c0036ea0      0x1f0 queue.o
 *fill*         0x00000000c0037090       0x10 
 .data          0x00000000c00370a0      0x1f0 sched.o
 *fill*         0x00000000c0037290       0x10 
 .data          0x00000000c00372a0      0x1f0 schedi.o
 *fill*         0x00000000c0037490       0x10 
 .data          0x00000000c00374a0      0x1f0 dispatch.o
 *fill*         0x00000000c0037690       0x10 
 .data          0x00000000c00376a0      0x1f0 sem.o
 *fill*         0x00000000c0037890       0x10 
 .data          0x00000000c00378a0      0x1f0 modules.o
 *fill*         0x00000000c0037a90       0x10 
 .data          0x00000000c0037aa0      0x1f0 nicintel.o
 *fill*         0x00000000c0037c90       0x10 
 .data          0x00000000c0037ca0      0x1f0 network.o
 *fill*         0x00000000c0037e90       0x10 
 .data          0x00000000c0037ea0      0x1f0 socket.o
 *fill*         0x00000000c0038090       0x10 
 .data          0x00000000c00380a0      0x1f0 sm.o
 *fill*         0x00000000c0038290       0x10 
 .data          0x00000000c00382a0      0x1f0 channel.o
 *fill*         0x00000000c0038490       0x10 
 .data          0x00000000c00384a0      0x1f0 ipc.o
 *fill*         0x00000000c0038690       0x10 
 .data          0x00000000c00386a0      0x1f0 read.o
 *fill*         0x00000000c0038890       0x10 
 .data          0x00000000c00388a0      0x1f0 write.o
 *fill*         0x00000000c0038a90       0x10 
 .data          0x00000000c0038aa0      0x1f0 cf.o
 *fill*         0x00000000c0038c90       0x10 
 .data          0x00000000c0038ca0      0x1f0 search.o
 *fill*         0x00000000c0038e90       0x10 
 .data          0x00000000c0038ea0      0x1f0 format.o
 *fill*         0x00000000c0039090       0x10 
 .data          0x00000000c00390a0      0x620 disk1.o
                0x00000000c00392ac                dev_type
                0x00000000c00392c0                pci_classes
 .data          0x00000000c00396c0      0x1f0 diskvol.o
 *fill*         0x00000000c00398b0       0x10 
 .data          0x00000000c00398c0      0x1f0 fs.o
 *fill*         0x00000000c0039ab0       0x10 
 .data          0x00000000c0039ac0      0x1f0 vfs.o
 *fill*         0x00000000c0039cb0       0x10 
 .data          0x00000000c0039cc0      0x1f0 cedge.o
 *fill*         0x00000000c0039eb0       0x10 
 .data          0x00000000c0039ec0      0x1f0 ctype.o
 *fill*         0x00000000c003a0b0       0x10 
 .data          0x00000000c003a0c0      0x1f0 request.o
 *fill*         0x00000000c003a2b0       0x10 
 .data          0x00000000c003a2c0      0x1f0 info.o
 *fill*         0x00000000c003a4b0       0x10 
 .data          0x00000000c003a4c0      0x1f0 signal.o
 *fill*         0x00000000c003a6b0       0x10 
 .data          0x00000000c003a6c0      0x248 system.o
 *fill*         0x00000000c003a908       0x18 
 .data          0x00000000c003a920      0x1f0 bg.o
 *fill*         0x00000000c003ab10       0x10 
 .data          0x00000000c003ab20      0x1f0 grid.o
 *fill*         0x00000000c003ad10       0x10 
 .data          0x00000000c003ad20      0x1f0 sbar.o
 *fill*         0x00000000c003af10       0x10 
 .data          0x00000000c003af20      0x1f0 menubar.o
 *fill*         0x00000000c003b110       0x10 
 .data          0x00000000c003b120      0x1f0 menu.o
 *fill*         0x00000000c003b310       0x10 
 .data          0x00000000c003b320      0x1f0 i8042.o
 *fill*         0x00000000c003b510       0x10 
 .data          0x00000000c003b520      0x1f0 ps2mouse.o
 *fill*         0x00000000c003b710       0x10 
 .data          0x00000000c003b720      0x1f0 ps2kbd.o
 *fill*         0x00000000c003b910       0x10 
 .data          0x00000000c003b920      0x1f0 button.o
 *fill*         0x00000000c003bb10       0x10 
 .data          0x00000000c003bb20      0x1f0 char.o
 *fill*         0x00000000c003bd10       0x10 
 .data          0x00000000c003bd20      0x1f0 pixel.o
 *fill*         0x00000000c003bf10       0x10 
 .data          0x00000000c003bf20      0x1f0 line.o
 *fill*         0x00000000c003c110       0x10 
 .data          0x00000000c003c120      0x1f0 rect.o
 *fill*         0x00000000c003c310       0x10 
 .data          0x00000000c003c320      0x1f0 dtext.o
 *fill*         0x00000000c003c510       0x10 
 .data          0x00000000c003c520      0x1f0 font.o
 *fill*         0x00000000c003c710       0x10 
 .data          0x00000000c003c720      0x1f0 vsync.o
 *fill*         0x00000000c003c910       0x10 
 .data          0x00000000c003c920      0x1f0 bmp.o
 *fill*         0x00000000c003cb10       0x10 
 .data          0x00000000c003cb20      0x1f0 createw.o
 *fill*         0x00000000c003cd10       0x10 
 .data          0x00000000c003cd20      0x1f0 window.o
 *fill*         0x00000000c003cf10       0x10 
 .data          0x00000000c003cf20      0x1f0 desktop.o
 *fill*         0x00000000c003d110       0x10 
 .data          0x00000000c003d120      0x1f0 room.o
 *fill*         0x00000000c003d310       0x10 
 .data          0x00000000c003d320      0x1f0 usession.o
 *fill*         0x00000000c003d510       0x10 
 .data          0x00000000c003d520      0x1f0 gws.o
 *fill*         0x00000000c003d710       0x10 
 .data          0x00000000c003d720      0x1f0 object.o
 *fill*         0x00000000c003d910       0x10 
 .data          0x00000000c003d920      0x1f0 userenv.o
 *fill*         0x00000000c003db10       0x10 
 .data          0x00000000c003db20      0x1f0 proc.o
 *fill*         0x00000000c003dd10       0x10 
 .data          0x00000000c003dd20      0x1f0 syscall.o
 *fill*         0x00000000c003df10       0x10 
 .data          0x00000000c003df20      0x1f0 install.o
 *fill*         0x00000000c003e110       0x10 
 .data          0x00000000c003e120      0x1f0 serial.o
 *fill*         0x00000000c003e310       0x10 
 .data          0x00000000c003e320      0x1f0 debug.o
 *fill*         0x00000000c003e510       0x10 
 .data          0x00000000c003e520      0x1f0 abort.o
 *fill*         0x00000000c003e710       0x10 
 .data          0x00000000c003e720      0x1f0 x86fault.o
 *fill*         0x00000000c003e910       0x10 
 .data          0x00000000c003e920      0x1f0 services.o
 *(.rdata)
 *(.rodata)
 .rodata        0x00000000c003eb10      0x3ea x86main.o
 .rodata        0x00000000c003eefa        0xf io.o
 *fill*         0x00000000c003ef09        0x3 
 .rodata        0x00000000c003ef0c       0xe2 hal.o
 *fill*         0x00000000c003efee        0x2 
 .rodata        0x00000000c003eff0       0x4e mk.o
 *fill*         0x00000000c003f03e        0x2 
 .rodata        0x00000000c003f040      0x1dc execve.o
 .rodata        0x00000000c003f21c       0x28 video.o
 .rodata        0x00000000c003f244       0x1b screen.o
 .rodata        0x00000000c003f25f       0x1e runtime.o
 .rodata        0x00000000c003f27d        0xf portsx86.o
 .rodata        0x00000000c003f28c      0x24c x86.o
 .rodata        0x00000000c003f4d8      0x13b stdio.o
 .rodata        0x00000000c003f613        0xf stdlib.o
 .rodata        0x00000000c003f622        0xf string.o
 .rodata        0x00000000c003f631       0x3a tty.o
 *fill*         0x00000000c003f66b        0x1 
 .rodata        0x00000000c003f66c      0x29a init.o
 *fill*         0x00000000c003f906        0x2 
 .rodata        0x00000000c003f908      0x142 logon.o
 .rodata        0x00000000c003fa4a       0x2b logoff.o
 *fill*         0x00000000c003fa75        0x3 
 .rodata        0x00000000c003fa78       0x4f detect.o
 .rodata        0x00000000c003fac7        0xf cpuamd.o
 *fill*         0x00000000c003fad6        0x2 
 .rodata        0x00000000c003fad8      0x505 memory.o
 *fill*         0x00000000c003ffdd        0x3 
 .rodata        0x00000000c003ffe0      0x191 pages.o
 .rodata        0x00000000c0040171        0xf apic.o
 .rodata        0x00000000c0040180        0xf pic.o
 *fill*         0x00000000c004018f        0x1 
 .rodata        0x00000000c0040190      0x10c timer.o
 .rodata        0x00000000c004029c       0x4b rtc.o
 *fill*         0x00000000c00402e7        0x1 
 .rodata        0x00000000c00402e8       0x31 keyboard.o
 .rodata        0x00000000c0040319        0xf mouse.o
 .rodata        0x00000000c0040328      0x35d ldisc.o
 .rodata        0x00000000c0040685       0x42 hdd.o
 *fill*         0x00000000c00406c7        0x1 
 .rodata        0x00000000c00406c8      0x385 pci.o
 .rodata        0x00000000c0040a4d        0xf devmgr.o
 .rodata        0x00000000c0040a5c       0xdc spawn.o
 .rodata        0x00000000c0040b38        0xf callout.o
 *fill*         0x00000000c0040b47        0x1 
 .rodata        0x00000000c0040b48      0x3a7 process.o
 .rodata        0x00000000c0040eef        0xf pheap.o
 *fill*         0x00000000c0040efe        0x2 
 .rodata        0x00000000c0040f00       0xf6 thread.o
 *fill*         0x00000000c0040ff6        0x2 
 .rodata        0x00000000c0040ff8      0x1ff threadi.o
 .rodata        0x00000000c00411f7        0xf theap.o
 .rodata        0x00000000c0041206        0xf tstack.o
 *fill*         0x00000000c0041215        0x3 
 .rodata        0x00000000c0041218      0x235 create.o
 *fill*         0x00000000c004144d        0x3 
 .rodata        0x00000000c0041450       0xcd x86start.o
 *fill*         0x00000000c004151d        0x3 
 .rodata        0x00000000c0041520       0xee x86cont.o
 .rodata        0x00000000c004160e        0xf tasks.o
 *fill*         0x00000000c004161d        0x3 
 .rodata        0x00000000c0041620      0x237 ts.o
 *fill*         0x00000000c0041857        0x1 
 .rodata        0x00000000c0041858      0x181 queue.o
 .rodata        0x00000000c00419d9        0xf sched.o
 .rodata        0x00000000c00419e8       0x30 schedi.o
 .rodata        0x00000000c0041a18      0x178 dispatch.o
 .rodata        0x00000000c0041b90        0xf sem.o
 .rodata        0x00000000c0041b9f        0xf modules.o
 *fill*         0x00000000c0041bae        0x2 
 .rodata        0x00000000c0041bb0      0x261 nicintel.o
 *fill*         0x00000000c0041e11        0x3 
 .rodata        0x00000000c0041e14      0x286 network.o
 *fill*         0x00000000c004209a        0x2 
 .rodata        0x00000000c004209c       0x31 socket.o
 .rodata        0x00000000c00420cd        0xf sm.o
 .rodata        0x00000000c00420dc        0xf channel.o
 .rodata        0x00000000c00420eb        0xf ipc.o
 *fill*         0x00000000c00420fa        0x2 
 .rodata        0x00000000c00420fc      0x168 read.o
 .rodata        0x00000000c0042264      0x16e write.o
 *fill*         0x00000000c00423d2        0x2 
 .rodata        0x00000000c00423d4      0x126 cf.o
 *fill*         0x00000000c00424fa        0x2 
 .rodata        0x00000000c00424fc       0x60 search.o
 .rodata        0x00000000c004255c        0xf format.o
 *fill*         0x00000000c004256b        0x1 
 .rodata        0x00000000c004256c      0x4ad disk1.o
 *fill*         0x00000000c0042a19        0x3 
 .rodata        0x00000000c0042a1c      0x416 diskvol.o
 *fill*         0x00000000c0042e32        0x2 
 .rodata        0x00000000c0042e34      0x4fa fs.o
 *fill*         0x00000000c004332e        0x2 
 .rodata        0x00000000c0043330       0xf0 vfs.o
 .rodata        0x00000000c0043420       0x34 cedge.o
 *fill*         0x00000000c0043454        0xc 
 .rodata        0x00000000c0043460      0x120 ctype.o
                0x00000000c0043480                _ctype
 .rodata        0x00000000c0043580       0x98 request.o
 .rodata        0x00000000c0043618      0x292 info.o
 .rodata        0x00000000c00438aa        0xf signal.o
 *fill*         0x00000000c00438b9        0x3 
 .rodata        0x00000000c00438bc      0x801 system.o
 .rodata        0x00000000c00440bd        0xf bg.o
 .rodata        0x00000000c00440cc       0xba grid.o
 *fill*         0x00000000c0044186        0x2 
 .rodata        0x00000000c0044188       0xb6 sbar.o
 *fill*         0x00000000c004423e        0x2 
 .rodata        0x00000000c0044240      0x11d menubar.o
 *fill*         0x00000000c004435d        0x3 
 .rodata        0x00000000c0044360      0x234 menu.o
 .rodata        0x00000000c0044594        0xf i8042.o
 *fill*         0x00000000c00445a3        0x1 
 .rodata        0x00000000c00445a4       0xbd ps2mouse.o
 *fill*         0x00000000c0044661        0x3 
 .rodata        0x00000000c0044664       0x52 ps2kbd.o
 *fill*         0x00000000c00446b6        0x2 
 .rodata        0x00000000c00446b8       0x2c button.o
 .rodata        0x00000000c00446e4       0x4d char.o
 *fill*         0x00000000c0044731        0x3 
 .rodata        0x00000000c0044734       0x34 pixel.o
 .rodata        0x00000000c0044768        0xf line.o
 *fill*         0x00000000c0044777        0x1 
 .rodata        0x00000000c0044778       0x70 rect.o
 .rodata        0x00000000c00447e8       0x2f dtext.o
 .rodata        0x00000000c0044817       0x45 font.o
 .rodata        0x00000000c004485c        0xf vsync.o
 .rodata        0x00000000c004486b       0x45 bmp.o
 .rodata        0x00000000c00448b0       0xcc createw.o
 .rodata        0x00000000c004497c      0x5eb window.o
 .rodata        0x00000000c0044f67       0x3b desktop.o
 *fill*         0x00000000c0044fa2        0x2 
 .rodata        0x00000000c0044fa4       0x53 room.o
 *fill*         0x00000000c0044ff7        0x1 
 .rodata        0x00000000c0044ff8       0xaa usession.o
 *fill*         0x00000000c00450a2        0x2 
 .rodata        0x00000000c00450a4      0x1ab gws.o
 .rodata        0x00000000c004524f        0xf object.o
 *fill*         0x00000000c004525e        0x2 
 .rodata        0x00000000c0045260       0xa0 userenv.o
 .rodata        0x00000000c0045300      0x352 proc.o
 .rodata        0x00000000c0045652        0xf syscall.o
 .rodata        0x00000000c0045661        0xf install.o
 .rodata        0x00000000c0045670        0xf serial.o
 *fill*         0x00000000c004567f        0x1 
 .rodata        0x00000000c0045680      0x143 debug.o
 *fill*         0x00000000c00457c3        0x1 
 .rodata        0x00000000c00457c4       0x99 abort.o
 *fill*         0x00000000c004585d        0x3 
 .rodata        0x00000000c0045860      0x1b2 x86fault.o
 *fill*         0x00000000c0045a12        0x2 
 .rodata        0x00000000c0045a14      0x507 services.o
                0x00000000c0045f1b                _data_end = .
                0x00000000c0046000                . = ALIGN (0x1000)
 *fill*         0x00000000c0045f1b       0xe5 

.bss            0x00000000c0046000    0x4e000
                0x00000000c0046000                _bss_begin = .
 *(.bss)
 .bss           0x00000000c0046000        0x0 head.o
                0x00000000c0046000                bss_start
 .bss           0x00000000c0046000       0x10 x86main.o
 .bss           0x00000000c0046010       0x10 io.o
 .bss           0x00000000c0046020       0x10 hal.o
 .bss           0x00000000c0046030       0x10 mk.o
 .bss           0x00000000c0046040       0x10 execve.o
 .bss           0x00000000c0046050       0x10 video.o
 .bss           0x00000000c0046060       0x10 screen.o
 .bss           0x00000000c0046070       0x10 runtime.o
 .bss           0x00000000c0046080       0x10 portsx86.o
 .bss           0x00000000c0046090       0x10 x86.o
 .bss           0x00000000c00460a0       0x10 stdio.o
 .bss           0x00000000c00460b0       0x10 stdlib.o
 .bss           0x00000000c00460c0       0x14 string.o
 .bss           0x00000000c00460d4       0x10 tty.o
 .bss           0x00000000c00460e4       0x10 init.o
 .bss           0x00000000c00460f4       0x10 logon.o
 .bss           0x00000000c0046104       0x10 logoff.o
 .bss           0x00000000c0046114       0x10 detect.o
 .bss           0x00000000c0046124       0x10 cpuamd.o
 .bss           0x00000000c0046134       0x10 memory.o
 .bss           0x00000000c0046144       0x10 pages.o
 .bss           0x00000000c0046154       0x10 apic.o
 .bss           0x00000000c0046164       0x10 pic.o
 .bss           0x00000000c0046174       0x10 timer.o
 .bss           0x00000000c0046184       0x10 rtc.o
 .bss           0x00000000c0046194       0x10 keyboard.o
 .bss           0x00000000c00461a4       0x10 mouse.o
 .bss           0x00000000c00461b4       0x10 ldisc.o
 .bss           0x00000000c00461c4       0x10 hdd.o
 .bss           0x00000000c00461d4       0x10 pci.o
 .bss           0x00000000c00461e4        0x0 usb.o
 .bss           0x00000000c00461e4       0x10 devmgr.o
 .bss           0x00000000c00461f4       0x10 spawn.o
 .bss           0x00000000c0046204       0x10 callout.o
 .bss           0x00000000c0046214        0x0 callfar.o
 .bss           0x00000000c0046214       0x10 process.o
 .bss           0x00000000c0046224       0x10 pheap.o
 .bss           0x00000000c0046234       0x10 thread.o
 .bss           0x00000000c0046244       0x10 threadi.o
 .bss           0x00000000c0046254       0x10 theap.o
 .bss           0x00000000c0046264       0x10 tstack.o
 .bss           0x00000000c0046274       0x10 create.o
 .bss           0x00000000c0046284       0x10 x86start.o
 .bss           0x00000000c0046294       0x10 x86cont.o
 .bss           0x00000000c00462a4       0x10 tasks.o
 .bss           0x00000000c00462b4       0x10 ts.o
 .bss           0x00000000c00462c4       0x10 queue.o
 .bss           0x00000000c00462d4       0x10 sched.o
 .bss           0x00000000c00462e4       0x10 schedi.o
 .bss           0x00000000c00462f4       0x10 dispatch.o
 .bss           0x00000000c0046304       0x10 sem.o
 .bss           0x00000000c0046314       0x10 modules.o
 .bss           0x00000000c0046324       0x10 nicintel.o
 .bss           0x00000000c0046334       0x10 network.o
 .bss           0x00000000c0046344       0x10 socket.o
 .bss           0x00000000c0046354       0x10 sm.o
 .bss           0x00000000c0046364       0x10 channel.o
 .bss           0x00000000c0046374       0x10 ipc.o
 .bss           0x00000000c0046384       0x10 read.o
 .bss           0x00000000c0046394       0x10 write.o
 .bss           0x00000000c00463a4       0x10 cf.o
 .bss           0x00000000c00463b4       0x10 search.o
 .bss           0x00000000c00463c4       0x10 format.o
 .bss           0x00000000c00463d4       0x30 disk1.o
                0x00000000c00463d4                dev_next_pid
 .bss           0x00000000c0046404       0x10 diskvol.o
 .bss           0x00000000c0046414       0x10 fs.o
 .bss           0x00000000c0046424       0x10 vfs.o
 .bss           0x00000000c0046434       0x11 cedge.o
 *fill*         0x00000000c0046445        0x3 
 .bss           0x00000000c0046448       0x10 ctype.o
 .bss           0x00000000c0046458       0x10 request.o
 .bss           0x00000000c0046468       0x10 info.o
 .bss           0x00000000c0046478       0x10 signal.o
 .bss           0x00000000c0046488       0x10 system.o
 .bss           0x00000000c0046498       0x10 bg.o
 .bss           0x00000000c00464a8       0x10 grid.o
 .bss           0x00000000c00464b8       0x10 sbar.o
 .bss           0x00000000c00464c8       0x10 menubar.o
 .bss           0x00000000c00464d8       0x10 menu.o
 .bss           0x00000000c00464e8       0x10 i8042.o
 .bss           0x00000000c00464f8       0x17 ps2mouse.o
 *fill*         0x00000000c004650f        0x1 
 .bss           0x00000000c0046510       0x10 ps2kbd.o
 .bss           0x00000000c0046520       0x10 button.o
 .bss           0x00000000c0046530       0x10 char.o
 .bss           0x00000000c0046540       0x10 pixel.o
 .bss           0x00000000c0046550       0x10 line.o
 .bss           0x00000000c0046560       0x10 rect.o
 .bss           0x00000000c0046570       0x10 dtext.o
 .bss           0x00000000c0046580       0x10 font.o
 .bss           0x00000000c0046590       0x10 vsync.o
 .bss           0x00000000c00465a0       0x14 bmp.o
 .bss           0x00000000c00465b4       0x10 createw.o
 .bss           0x00000000c00465c4       0x10 window.o
 .bss           0x00000000c00465d4       0x10 desktop.o
 .bss           0x00000000c00465e4       0x10 room.o
 .bss           0x00000000c00465f4       0x10 usession.o
 .bss           0x00000000c0046604       0x10 gws.o
 .bss           0x00000000c0046614       0x10 object.o
 .bss           0x00000000c0046624       0x10 userenv.o
 .bss           0x00000000c0046634       0x10 proc.o
 .bss           0x00000000c0046644       0x10 syscall.o
 .bss           0x00000000c0046654       0x10 install.o
 .bss           0x00000000c0046664       0x10 serial.o
 .bss           0x00000000c0046674       0x10 debug.o
 .bss           0x00000000c0046684       0x10 abort.o
 .bss           0x00000000c0046694       0x10 x86fault.o
 .bss           0x00000000c00466a4       0x10 services.o
 *(COMMON)
 *fill*         0x00000000c00466b4        0xc 
 COMMON         0x00000000c00466c0    0x3cc20 x86main.o
                0x00000000c00466c0                framepoolBackBuffer3
                0x00000000c00466c4                guiMenu
                0x00000000c00466e0                usessionList
                0x00000000c0046720                terminalOffsetMax
                0x00000000c0046724                g_backbuffer_va
                0x00000000c0046728                g_module_volume_initialized
                0x00000000c004672c                server_stdio
                0x00000000c0046740                menuList
                0x00000000c0046b40                Graphics
                0x00000000c0046b60                framepoolList
                0x00000000c0047b60                dispatcherType
                0x00000000c0047b64                pci_handler_address
                0x00000000c0047b68                mainButton3
                0x00000000c0047b6c                zicaaaaadasf
                0x00000000c0047b70                IdleThread
                0x00000000c0047b74                Irq9
                0x00000000c0047b78                g_frontbuffer_va
                0x00000000c0047b7c                clientCW
                0x00000000c0047b80                userconfig_Status
                0x00000000c0047ba0                prompt
                0x00000000c0047ca0                MenuBar
                0x00000000c0047ca4                semaforo_color
                0x00000000c0047ca8                g_module_debug_initialized
                0x00000000c0047cc0                threadList
                0x00000000c0048cc0                pci_device
                0x00000000c0048cc4                g_module_disk_initialized
                0x00000000c0048cc8                terminalOffset
                0x00000000c0048ccc                kernel_heap_end
                0x00000000c0048cd0                scrolllock_status
                0x00000000c0048ce0                screenGrid
                0x00000000c0048ee0                windowzoneStart
                0x00000000c0048ee4                partition
                0x00000000c0048ee8                input_line
                0x00000000c0048eec                fatbits
                0x00000000c0048ef0                g9x14fontAddress
                0x00000000c0048ef4                framepoolBackBuffer2
                0x00000000c0048ef8                CurrentChannel
                0x00000000c0048efc                task_switch_status
                0x00000000c0048f00                ata_record_dev
                0x00000000c0048f04                systemzoneEnd
                0x00000000c0048f08                CurrentConsole
                0x00000000c0048f0c                lineOffsetMax
                0x00000000c0048f10                delta_x
                0x00000000c0048f14                serverSP
                0x00000000c0048f18                LocalHostHTTPSocket
                0x00000000c0048f1c                ioControl_mouse
                0x00000000c0048f20                GRID
                0x00000000c0048f24                cursorIconBuffer
                0x00000000c0048f28                ip_address
                0x00000000c0048f2c                preempted_task
                0x00000000c0048f30                ActiveWindow
                0x00000000c0048f34                mouse_buttom_3
                0x00000000c0048f38                capslock_status
                0x00000000c0048f3c                KernelArgs
                0x00000000c0048f4c                Irq5
                0x00000000c0048f50                Irq13
                0x00000000c0048f54                terminalWindowWithFocus
                0x00000000c0048f58                Irq2
                0x00000000c0048f60                pcideviceList
                0x00000000c0048fe0                IpcProcedure
                0x00000000c0048fe4                fullscreen_window
                0x00000000c0048fe8                g_navigationbar_height
                0x00000000c0048fec                keyboard_message_head
                0x00000000c0048ff0                windowstations_count
                0x00000000c0048ff4                textcursorStatus
                0x00000000c0048ff8                pmiMemoryInfo
                0x00000000c0048ffc                SavedRect
                0x00000000c0049000                TaskManThread
                0x00000000c0049004                current_volume_string
                0x00000000c0049008                mouse_button_action
                0x00000000c004900c                Irq15
                0x00000000c0049010                g_module_fs_initialized
                0x00000000c0049014                bmp_change_color_flag
                0x00000000c0049018                framepoolBackBuffer4
                0x00000000c004901c                g_driver_hdd_initialized
                0x00000000c0049020                g9x16fontAddress
                0x00000000c0049024                storage
                0x00000000c0049028                systemzoneStart
                0x00000000c004902c                waiting_procs
                0x00000000c0049030                running_tasks
                0x00000000c0049034                desktop_Conductor2
                0x00000000c0049038                g_device_screen_width
                0x00000000c004903c                desktop_rootConductor
                0x00000000c0049040                extra
                0x00000000c0049060                fsbFrames
                0x00000000c004a060                g_user_space_framepool_index
                0x00000000c004a064                Initialization
                0x00000000c004a07c                Console
                0x00000000c004a080                next_thread
                0x00000000c004a0a0                GUI_CONFIG
                0x00000000c004a0dc                systemzoneSize
                0x00000000c004a0e0                zorderCounter
                0x00000000c004a0e4                mmFramesSuperBlockTotalUsed
                0x00000000c004a0e8                quantum
                0x00000000c004a0ec                stderr
                0x00000000c004a0f0                g_mainwindow_width
                0x00000000c004a0f4                cur_process
                0x00000000c004a0f8                current_target_volume
                0x00000000c004a0fc                waiting_list_head
                0x00000000c004a100                FileAccess
                0x00000000c004a104                g_logged
                0x00000000c004a108                file_TaskMan
                0x00000000c004a10c                RGBA
                0x00000000c004a110                desktop0
                0x00000000c004a114                blocked_list_head
                0x00000000c004a120                nicList
                0x00000000c004a140                gui
                0x00000000c004a144                CurrentUserSession
                0x00000000c004a148                g_device_screen_height
                0x00000000c004a14c                g_mousepointer_height
                0x00000000c004a150                g_module_uem_initialized
                0x00000000c004a154                processor
                0x00000000c004a160                userList
                0x00000000c004a1a0                prompt_pos
                0x00000000c004a1a4                saved_mouse_x
                0x00000000c004a1a8                Irq10
                0x00000000c004a1ac                Conductor
                0x00000000c004a1b0                ide_handler_address
                0x00000000c004a1b4                RemoteRequests
                0x00000000c004a1b8                Process
                0x00000000c004a1bc                mbr
                0x00000000c004a1c0                CurrentTerminal
                0x00000000c004a1c4                current_mmblock
                0x00000000c004a1e0                deviceList
                0x00000000c004a5e0                ASpace
                0x00000000c004a600                objects_um
                0x00000000c00566c0                mmFramesSuperBlockSize
                0x00000000c00566c4                kernel_stack_start
                0x00000000c00566c8                Rtc
                0x00000000c00566cc                start_new_task_address
                0x00000000c00566d0                g_module_gui_initialized
                0x00000000c00566d4                file_Init
                0x00000000c00566d8                KeInitPhase
                0x00000000c00566dc                windows_count
                0x00000000c00566e0                pagetableList
                0x00000000c00576e0                combobox_window
                0x00000000c00576e4                framepoolBackBuffer1
                0x00000000c00576e8                g_driver_video_initialized
                0x00000000c00576ec                active_window
                0x00000000c0057700                objects_km
                0x00000000c00637c0                vfs
                0x00000000c00637c4                current_pci_device
                0x00000000c00637c8                file_InitTXT
                0x00000000c00637cc                g_show_text_cursor
                0x00000000c00637d0                Hardware
                0x00000000c00637d4                DefaultUserSession
                0x00000000c00637d8                current_process
                0x00000000c00637dc                mmglobalInitialingVAR
                0x00000000c00637e0                appIconBuffer
                0x00000000c00637e4                current_desktop
                0x00000000c00637e8                Cursor
                0x00000000c00637ec                numlock_status
                0x00000000c0063800                requestList
                0x00000000c0063880                usession0
                0x00000000c0063884                g_gramadocore_shell_heap_size
                0x00000000c0063888                CurrentSocket
                0x00000000c006388c                TaskBar
                0x00000000c0063890                g_module_logoff_initialized
                0x00000000c0063894                pagetableCurrent
                0x00000000c00638a0                terminalList
                0x00000000c00638c0                usession_Conductor
                0x00000000c00638c4                g8x14fontAddress
                0x00000000c00638c8                Irq12
                0x00000000c00638cc                mainButton1
                0x00000000c00638d0                scStatus
                0x00000000c00638d4                stdin
                0x00000000c00638e0                buffer_dir_entry
                0x00000000c0063ae0                g_frontbuffer_pa
                0x00000000c0063ae4                old_mouse_buttom_1
                0x00000000c0063ae8                gStreams
                0x00000000c0063aec                mmFramesSuperBlockTotalFree
                0x00000000c0063af0                gcharWidth
                0x00000000c0063af4                logonMenu
                0x00000000c0063af8                gTaskmanPageDirectoryAddress
                0x00000000c0063afc                savedmouseoverwindowY
                0x00000000c0063b00                file_BootLoader
                0x00000000c0063b20                socketList
                0x00000000c0063ba0                g_module_logon_initialized
                0x00000000c0063ba4                client_stderr
                0x00000000c0063ba8                next_address
                0x00000000c0063bac                destroy_window
                0x00000000c0063bb0                dispatcherQueueIndex
                0x00000000c0063bb4                fileIconBuffer
                0x00000000c0063bb8                room0
                0x00000000c0063bbc                kernel_heap_start
                0x00000000c0063bc0                g8x16fontAddress
                0x00000000c0063bc4                g_current_object
                0x00000000c0063bc8                PrideColorScheme
                0x00000000c0063bcc                current_room
                0x00000000c0063bd0                mac_address
                0x00000000c0063bd4                queue
                0x00000000c0063bd8                system_disk
                0x00000000c0063bdc                DispatchCountBlock
                0x00000000c0063be0                current_dead_process
                0x00000000c0063be4                shift_status
                0x00000000c0063be8                current_directory
                0x00000000c0063c00                vfs_handle_list
                0x00000000c0064400                sys_time_ms
                0x00000000c0064404                kernel_stack_start_pa
                0x00000000c0064408                rect
                0x00000000c006440c                partition_chars
                0x00000000c0064410                logonStatus
                0x00000000c0064414                framepoolFrontBuffer3
                0x00000000c0064418                current_window
                0x00000000c006441c                terminalIconBuffer
                0x00000000c0064420                g_available_heap
                0x00000000c0064424                start_new_task_id
                0x00000000c0064428                process_Conductor2
                0x00000000c006442c                g_heap_count
                0x00000000c0064430                alt_status
                0x00000000c0064434                schedulerType
                0x00000000c0064438                g_cursor_width
                0x00000000c006443c                current_disk
                0x00000000c0064440                volume1_rootdir
                0x00000000c0064444                g_new_message
                0x00000000c0064448                pwd_initialized
                0x00000000c006444c                Firmware
                0x00000000c0064450                volume_bootpartition
                0x00000000c0064454                file_BootManager
                0x00000000c0064458                current_dead_thread
                0x00000000c006445c                current_keyboard_responder
                0x00000000c0064460                system_message_write
                0x00000000c0064464                semaforo_priority
                0x00000000c0064468                mouseover_window
                0x00000000c006446c                kbMsgStatus
                0x00000000c0064470                g_module_objectmanager_initialized
                0x00000000c0064474                terminalActiveWindow
                0x00000000c0064478                ata_record_channel
                0x00000000c006447c                zorderTopWindow
                0x00000000c0064480                gKernelPageDirectoryAddress
                0x00000000c0064484                current_taskman_server
                0x00000000c0064488                g_current_framepool
                0x00000000c006448c                DefaultUser
                0x00000000c0064490                task_color
                0x00000000c0064494                framepoolFrontBuffer1
                0x00000000c0064498                heapCount
                0x00000000c006449c                windowzoneEnd
                0x00000000c00644a0                current_filesystem
                0x00000000c00644a4                Thread
                0x00000000c00644a8                g_pagedpool_va
                0x00000000c00644c0                ProcessorBlock
                0x00000000c00644f0                current_mouse_responder
                0x00000000c00644f4                pagedirectoryIdleProcess
                0x00000000c00644f8                client_stdio
                0x00000000c00644fc                KernelRequests
                0x00000000c0064500                volume_vfs
                0x00000000c0064504                g_mousepointer_x
                0x00000000c0064508                usersession_start
                0x00000000c006450c                g_cursor_top
                0x00000000c0064510                CurrentProcedure
                0x00000000c0064514                mmFramesSuperBlockTotal
                0x00000000c0064518                periodic_procs
                0x00000000c006451c                g_inputmode
                0x00000000c0064520                UserHeap
                0x00000000c0064524                keyboard_handler_address
                0x00000000c0064528                kernel_stack_end
                0x00000000c006452c                file_Kernel
                0x00000000c0064530                g_object_manager_status
                0x00000000c0064534                g_cursor_right
                0x00000000c0064538                desktop_Conductor
                0x00000000c006453c                InitProcess
                0x00000000c0064540                system_volume
                0x00000000c0064544                microkernelStatus
                0x00000000c0064548                zones
                0x00000000c006454c                lineBuffer
                0x00000000c0064550                miMemoryInfo
                0x00000000c0064554                desktopDefault
                0x00000000c0064558                g_module_runtime_initialized
                0x00000000c006455c                ioControl_keyboard
                0x00000000c0064560                file_LA
                0x00000000c0064564                VersionInfo
                0x00000000c0064580                inode_list
                0x00000000c0064d80                file_CFE
                0x00000000c0064d84                system_procs
                0x00000000c0064d88                window_with_focus
                0x00000000c0064d8c                g_proc_status
                0x00000000c0064d90                framepoolCurrent
                0x00000000c0064da0                desktopList
                0x00000000c0064de0                gNextKeyboardMessage
                0x00000000c0064de4                pagedirectoryShared
                0x00000000c0064de8                g_heappool_va
                0x00000000c0064dec                idle
                0x00000000c0064df0                g_spc
                0x00000000c0064df4                KernelHeap
                0x00000000c0064df8                pagedirectoryCurrent
                0x00000000c0064dfc                gLogonPID
                0x00000000c0064e00                CurrentWindow
                0x00000000c0064e04                g_product_type
                0x00000000c0064e08                vbr
                0x00000000c0064e0c                Irq14
                0x00000000c0064e10                g_nstream
                0x00000000c0064e14                g_heap_pointer
                0x00000000c0064e18                LineShell
                0x00000000c0064e1c                mouse_pos_x
                0x00000000c0064e20                ipcStatus
                0x00000000c0064e24                WindowWithFocus
                0x00000000c0064e28                task_count
                0x00000000c0064e2c                Screen
                0x00000000c0064e30                pipe_gramadocore_init_execve
                0x00000000c0064e40                channelList
                0x00000000c0064ec0                g_kernel_nonpaged_memory
                0x00000000c0064ec4                timer_handler_address
                0x00000000c0064ec8                kernel_switch
                0x00000000c0064ecc                old_mouse_buttom_3
                0x00000000c0064ed0                guiStatus
                0x00000000c0064ed4                window_rootConductor
                0x00000000c0064ed8                terminalLineMax
                0x00000000c0064ee0                heapList
                0x00000000c0064f00                ttyCurrentX
                0x00000000c0064f04                volume2_rootdir
                0x00000000c0064f08                CurrentDesktop
                0x00000000c0064f0c                DriveContext
                0x00000000c0064f20                prompt_err
                0x00000000c0065020                abnt2
                0x00000000c0065024                gFocusBlocked
                0x00000000c0065028                current_socket
                0x00000000c006502c                sata_handler_address
                0x00000000c0065030                desktops_count
                0x00000000c0065034                KernelPages
                0x00000000c0065040                directory_entry_list
                0x00000000c0065840                g_driver_apic_initialized
                0x00000000c0065844                _lockfocus
                0x00000000c0065848                file_download
                0x00000000c006584c                saved_mouse_y
                0x00000000c0065850                current_usersession
                0x00000000c0065854                g_video_mode
                0x00000000c0065858                fat
                0x00000000c006585c                ttyCurrentY
                0x00000000c0065860                stdio_verbosemode_flag
                0x00000000c0065864                file_bin
                0x00000000c0065868                mmFramesSuperBlockEnd
                0x00000000c0065880                processList
                0x00000000c0066880                memorysizeExtendedMemory
                0x00000000c0066884                Irq8
                0x00000000c0066888                lineLine
                0x00000000c006688c                gPagedPollStart
                0x00000000c00668a0                roomList
                0x00000000c00668e0                g_backbuffer_pa
                0x00000000c00668e4                systemzone
                0x00000000c0066900                KernelLogBuffer
                0x00000000c0066b00                keyboard_message_tail
                0x00000000c0066b20                ata_pci
                0x00000000c0066b54                ATAFlag
                0x00000000c0066b58                sys_time_hz
                0x00000000c0066b5c                gLogoffPID
                0x00000000c0066b60                gfontSize
                0x00000000c0066b80                pageframeList
                0x00000000c0067b80                start_new_task_status
                0x00000000c0067b84                CurrentProcess
                0x00000000c0067b88                framepoolFrontBuffer4
                0x00000000c0067b8c                current_semaphore
                0x00000000c0067ba0                realtimeprocessorList
                0x00000000c0067c20                timer_cursor_used
                0x00000000c0067c24                g_gramadocore_init_heap_size
                0x00000000c0067c28                clientCP
                0x00000000c0067c2c                g_gramadocore_init_heap_va
                0x00000000c0067c30                g_total_physical_memory
                0x00000000c0067c34                ready_list_head
                0x00000000c0067c38                g_mousepointer_width
                0x00000000c0067c3c                usession_rootConductor
                0x00000000c0067c40                current_terminal
                0x00000000c0067c44                line_stderr
                0x00000000c0067c48                lineOffset
                0x00000000c0067c4c                window_Conductor2
                0x00000000c0067c50                g_machine_type
                0x00000000c0067c54                client_stdout
                0x00000000c0067c58                eventStatus
                0x00000000c0067c5c                Irq11
                0x00000000c0067c60                pageframeCurrent
                0x00000000c0067c64                ipcBuffer
                0x00000000c0067c68                newtask_EIP
                0x00000000c0067c6c                top_window
                0x00000000c0067c70                menuitemDefault
                0x00000000c0067c74                g_scheduler_status
                0x00000000c0067c78                FULLSCREEN_TABWINDOW
                0x00000000c0067c7c                quit_message
                0x00000000c0067c80                TaskManProcess
                0x00000000c0067c84                LineHead
                0x00000000c0067ca0                ide_ports
                0x00000000c0067d00                SystemUser
                0x00000000c0067d04                current_quantum
                0x00000000c0067d08                __ipc_kernel_spinlock
                0x00000000c0067d0c                stdout
                0x00000000c0067d10                windowzoneSize
                0x00000000c0067d14                g_driver_rtc_initialized
                0x00000000c0067d18                SystemClasses
                0x00000000c0067d40                objects_gui
                0x00000000c0073e00                g_navigationbar_width
                0x00000000c0073e04                gws_currentfont_address
                0x00000000c0073e20                windowList
                0x00000000c0074e20                gPagedPollEnd
                0x00000000c0074e24                windowzone
                0x00000000c0074e28                ShellThread
                0x00000000c0074e2c                file_CS
                0x00000000c0074e40                Streams
                0x00000000c0074ec0                Irq6
                0x00000000c0074ec4                gInitPageDirectoryAddress
                0x00000000c0074ec8                IDE
                0x00000000c0074edc                g_cursor_left
                0x00000000c0074ee0                g_system_color
                0x00000000c0074ee4                defaultChannel
                0x00000000c0074ee8                g_cursor_bottom
                0x00000000c0074eec                Irq3
                0x00000000c0074ef0                realtimeStatus
                0x00000000c0074ef4                editbox_window
                0x00000000c0074ef8                kernel_request
                0x00000000c0074efc                idle_thread
                0x00000000c0074f00                g_pageable_framepool_index_max
                0x00000000c0074f04                current_thread
                0x00000000c0074f20                Pipes
                0x00000000c0074f40                Bank
                0x00000000c0074f44                fileBuffer
                0x00000000c0074f48                timer_cursor_status
                0x00000000c0074f4c                g_current_vm
                0x00000000c0074f50                rectClientArea
                0x00000000c0074f54                file_Shell
                0x00000000c0074f58                schedulerQueue
                0x00000000c0074f68                systemSize
                0x00000000c0074f6c                object
                0x00000000c0074f70                gDeveloperOptions
                0x00000000c0074f80                keybuffer
                0x00000000c0075000                zorder
                0x00000000c0075020                keyboard_queue
                0x00000000c0075140                forkid
                0x00000000c0075144                menus_count
                0x00000000c0075148                current_volume
                0x00000000c007514c                shutdown_address
                0x00000000c0075160                ioControl
                0x00000000c00751e0                devices
                0x00000000c00751e4                terminalLine
                0x00000000c00751e8                serialportError
                0x00000000c00751ec                desktop1
                0x00000000c00751f0                gcharHeight
                0x00000000c00751f4                g_use_default_user
                0x00000000c00751f8                mouse_buttom_1
                0x00000000c00751fc                RING0IDLEThread
                0x00000000c0075200                mouse_status
                0x00000000c0075204                framepoolFrontBuffer2
                0x00000000c0075208                pipe_execve
                0x00000000c007520c                g_gramadocore_taskman_heap_va
                0x00000000c0075220                diskList
                0x00000000c0076220                server_stderr
                0x00000000c0076224                Conductor2
                0x00000000c0076228                KernelClasses
                0x00000000c0076240                fsbFreeFrames
                0x00000000c0077240                old_mouse_buttom_2
                0x00000000c0077244                screenBuffers
                0x00000000c0077248                current_process_pagedirectory_address
                0x00000000c007724c                rr_procs
                0x00000000c0077250                KernelProcess
                0x00000000c0077254                delta_y
                0x00000000c0077258                framepoolPageableSpace
                0x00000000c007725c                lineLineMax
                0x00000000c0077260                KernelHeapSize
                0x00000000c0077264                HostDeviceInfo
                0x00000000c0077280                prompt_out
                0x00000000c0077380                bmp_selected_color
                0x00000000c0077384                g_driver_pci_initialized
                0x00000000c00773a0                file_cluster_list
                0x00000000c0077ba0                escape_status
                0x00000000c0077ba4                memorysizeOtherMemory
                0x00000000c0077ba8                IpcProcedureEx
                0x00000000c0077bc0                mmblockList
                0x00000000c007fbc0                g_driver_timer_initialized
                0x00000000c007fbc4                HostInfo
                0x00000000c007fbc8                ata_identify_dev_buf
                0x00000000c007fbcc                Irq0
                0x00000000c007fbd0                file_dd
                0x00000000c007fbd4                DSpace
                0x00000000c007fbd8                g_next_app
                0x00000000c007fbdc                g_gramadocore_taskman_heap_size
                0x00000000c007fbe0                timerList
                0x00000000c007fc60                pageframeAllocList
                0x00000000c0080c60                file_libs
                0x00000000c0080c64                idle_proc
                0x00000000c0080c68                clientCR
                0x00000000c0080c6c                g_useGUI
                0x00000000c0080c70                g_filesystem_type
                0x00000000c0080c74                Irq4
                0x00000000c0080c78                dirCount
                0x00000000c0080c7c                ShellProcess
                0x00000000c0080c80                keybuffer_head
                0x00000000c0080c84                CurrentBuffer
                0x00000000c0080c88                CurrentColorScheme
                0x00000000c0080c8c                next_quantum
                0x00000000c0080c90                process_rootConductor
                0x00000000c0080ca0                dev_nport
                0x00000000c0080cc0                stdio_terminalmode_flag
                0x00000000c0080cc4                menuDefault
                0x00000000c0080cc8                framepoolSmallSystemUserSpace
                0x00000000c0080ccc                ata
                0x00000000c0080ce4                zicaaa
                0x00000000c0080ce8                rootConductor
                0x00000000c0080cec                mouse_pos_y
                0x00000000c0080cf0                gSystemStatus
                0x00000000c0080cf4                DeveloperWindowCursor
                0x00000000c0080cf8                tab_status
                0x00000000c0080cfc                Version
                0x00000000c0080d00                file_pwd
                0x00000000c0080d04                userenvironmentStatus
                0x00000000c0080d08                g_guiMinimal
                0x00000000c0080d0c                time_out
                0x00000000c0080d10                current_file
                0x00000000c0080d14                pagedirectoryKernelProcess
                0x00000000c0080d18                g_mainwindow_height
                0x00000000c0080d1c                VideoBlock
                0x00000000c0080d38                System
                0x00000000c0080d3c                KernelSize
                0x00000000c0080d40                Line
                0x00000000c0080d60                dispatcherReadyList
                0x00000000c0080d88                ScreenInfo
                0x00000000c0080d8c                CurrentCursor
                0x00000000c0080d90                g8x8fontAddress
                0x00000000c0080d94                KernelStackSize
                0x00000000c0080d98                zica
                0x00000000c0080d9c                keybuffer_index
                0x00000000c0080da0                g_cursor_color
                0x00000000c0080da4                memorysizeTotal
                0x00000000c0080da8                g_system_mode
                0x00000000c0080dac                Irq1
                0x00000000c0080db0                g_current_video_mode
                0x00000000c0080db4                g_heap_count_max
                0x00000000c0080db8                cur_thread
                0x00000000c0080dbc                current_group
                0x00000000c0080dc0                process_Conductor
                0x00000000c0080dc4                BackBufferInfo
                0x00000000c0080dc8                file_users
                0x00000000c0080dcc                conductorIndex
                0x00000000c0080dd0                g_mousepointer_y
                0x00000000c0080dd4                g_framepool_max
                0x00000000c0080dd8                task_waiting
                0x00000000c0080ddc                keybuffer_tail
                0x00000000c0080de0                g_cursor_y
                0x00000000c0080de4                volume_systempartition
                0x00000000c0080de8                Irq7
                0x00000000c0080dec                banksCount
                0x00000000c0080df0                Pic
                0x00000000c0080df4                Platform
                0x00000000c0080df8                system_message_read
                0x00000000c0080dfc                errno
                0x00000000c0080e00                old
                0x00000000c0080e04                g_heap_size
                0x00000000c0080e20                zorderList
                0x00000000c0081020                gSystemEdition
                0x00000000c0081040                pagedirectoryList
                0x00000000c0082040                framepoolMediumSystemUserSpace
                0x00000000c0082044                menubarDefault
                0x00000000c0082048                filesystem
                0x00000000c008204c                logoffStatus
                0x00000000c0082050                current_user
                0x00000000c0082054                WindowProcedure
                0x00000000c0082058                framepoolKernelSpace
                0x00000000c008205c                memorysizeBaseMemory
                0x00000000c0082060                key_status
                0x00000000c0082064                server_stdout
                0x00000000c0082068                g_file_system_type
                0x00000000c008206c                currentNIC
                0x00000000c0082070                g_gramadocore_shell_heap_va
                0x00000000c0082074                mmblockCount
                0x00000000c0082078                prompt_status
                0x00000000c008207c                pagedirectoryTaskmanProcess
                0x00000000c0082080                ambiente
                0x00000000c0082084                framepoolLargeSystemUserSpace
                0x00000000c0082088                g_platform_type
                0x00000000c008208c                folderIconBuffer
                0x00000000c0082090                line_stdin
                0x00000000c0082094                g_kernel_paged_memory
                0x00000000c0082098                mmFramesSuperBlockStart
                0x00000000c008209c                mouseBMPBuffer
                0x00000000c00820a0                g_driver_keyboard_initialized
                0x00000000c00820a4                rtc
                0x00000000c00820a8                bmp_substitute_color
                0x00000000c00820ac                window_Conductor
                0x00000000c00820b0                lastBank
                0x00000000c00820b4                e1000_interrupt_flag
                0x00000000c00820b8                g_mm_system_type
                0x00000000c00820bc                g_kernel_lfb
                0x00000000c00820c0                PciDrivers
                0x00000000c00820e0                system_message_queue
                0x00000000c0082160                usession_Conductor2
                0x00000000c0082164                terminal_window
                0x00000000c0082168                mainButton2
                0x00000000c008216c                CurrentScreen
                0x00000000c0082170                sys_time_ticks_total
                0x00000000c0082180                queueList
                0x00000000c00821a0                ttyLineCounter
                0x00000000c00821a4                g_char_attrib
                0x00000000c00821a8                HumilityColorScheme
                0x00000000c00821ac                window_mouse_over
                0x00000000c00821b0                file_tmp
                0x00000000c00821b4                ctrl_status
                0x00000000c00821b8                g_module_shell_initialized
                0x00000000c00821bc                g_next_proc
                0x00000000c00821c0                semaphoreList
                0x00000000c0082244                file_CWE
                0x00000000c0082248                winkey_status
                0x00000000c008224c                FrontBufferInfo
                0x00000000c0082250                g_current_list
                0x00000000c0082254                savedmouseoverwindowX
                0x00000000c0082258                line_stdout
                0x00000000c008225c                g_module_mm_initialized
                0x00000000c0082260                g_cursor_height
                0x00000000c0082280                current_workingdiretory_string
                0x00000000c00822a0                gShellPageDirectoryAddress
                0x00000000c00822c0                volumeList
                0x00000000c00832c0                g_nova_mensagem
                0x00000000c00832c4                current_menu
                0x00000000c00832c8                pmiCurrent
                0x00000000c00832cc                Pci
                0x00000000c00832d0                g_cursor_x
                0x00000000c00832d4                UserRequests
                0x00000000c00832d8                mouse_buttom_2
                0x00000000c00832dc                CurrentUser
 COMMON         0x00000000c00832e0        0x4 mk.o
                0x00000000c00832e0                localsstuff1
 COMMON         0x00000000c00832e4        0x8 video.o
                0x00000000c00832e4                videoError
                0x00000000c00832e8                videoStatus
 COMMON         0x00000000c00832ec        0x8 screen.o
                0x00000000c00832ec                screen_height
                0x00000000c00832f0                screen_width
 COMMON         0x00000000c00832f4        0xc memory.o
                0x00000000c00832f4                mm_prev_pointer
                0x00000000c00832f8                last_size
                0x00000000c00832fc                last_valid
 COMMON         0x00000000c0083300        0x8 pic.o
                0x00000000c0083300                picError
                0x00000000c0083304                picStatus
 COMMON         0x00000000c0083308       0x20 timer.o
                0x00000000c0083308                timerShowTextCursor
                0x00000000c008330c                timerColor
                0x00000000c0083310                timerTextCursorStatus
                0x00000000c0083314                timerStatus
                0x00000000c0083318                timerIdleState
                0x00000000c008331c                timerError
                0x00000000c0083320                timerLock
                0x00000000c0083324                timerLine
 COMMON         0x00000000c0083328        0xc rtc.o
                0x00000000c0083328                rtcError
                0x00000000c008332c                rtcTicks
                0x00000000c0083330                rtcStatus
 *fill*         0x00000000c0083334        0xc 
 COMMON         0x00000000c0083340       0x40 keyboard.o
                0x00000000c0083340                _write_offset
                0x00000000c0083344                _read_offset
                0x00000000c0083360                _keyboard_queue
 COMMON         0x00000000c0083380        0x8 hdd.o
                0x00000000c0083380                hddError
                0x00000000c0083384                hddStatus
 COMMON         0x00000000c0083388        0x4 pci.o
                0x00000000c0083388                pci_supported
 COMMON         0x00000000c008338c        0x8 process.o
                0x00000000c008338c                processNewPID
                0x00000000c0083390                caller_process_id
 COMMON         0x00000000c0083394       0x40 x86cont.o
                0x00000000c0083394                contextESP
                0x00000000c0083398                contextEDX
                0x00000000c008339c                contextFS
                0x00000000c00833a0                contextDS
                0x00000000c00833a4                contextESI
                0x00000000c00833a8                contextEIP
                0x00000000c00833ac                contextGS
                0x00000000c00833b0                contextEFLAGS
                0x00000000c00833b4                contextECX
                0x00000000c00833b8                contextEBP
                0x00000000c00833bc                contextCS
                0x00000000c00833c0                contextEAX
                0x00000000c00833c4                contextEBX
                0x00000000c00833c8                contextEDI
                0x00000000c00833cc                contextES
                0x00000000c00833d0                contextSS
 COMMON         0x00000000c00833d4        0x4 ts.o
                0x00000000c00833d4                lock_taskswitch
 COMMON         0x00000000c00833d8        0x5 nicintel.o
                0x00000000c00833d8                nic_idt_entry_new_address
                0x00000000c00833dc                nic_idt_entry_new_number
 *fill*         0x00000000c00833dd        0x3 
 COMMON         0x00000000c00833e0        0x4 network.o
                0x00000000c00833e0                network_status
 *fill*         0x00000000c00833e4       0x1c 
 COMMON         0x00000000c0083400    0x10000 write.o
                0x00000000c0083400                list
 COMMON         0x00000000c0093400       0x44 disk1.o
                0x00000000c0093400                dma_addr
                0x00000000c0093404                current_dev
                0x00000000c0093420                ide_dma_prdt
                0x00000000c0093440                ready_queue_dev
 COMMON         0x00000000c0093444        0x4 signal.o
                0x00000000c0093444                Signal
 COMMON         0x00000000c0093448        0x4 ps2mouse.o
                0x00000000c0093448                flagRefreshMouseOver
 COMMON         0x00000000c009344c       0x18 window.o
                0x00000000c009344c                save_client_rect_top
                0x00000000c0093450                fsStatus
                0x00000000c0093454                xxxxsavemessage
                0x00000000c0093458                save_client_rect_left
                0x00000000c009345c                save_client_rect_height
                0x00000000c0093460                save_client_rect_width
 COMMON         0x00000000c0093464        0xc gws.o
                0x00000000c0093464                gws_status
                0x00000000c0093468                gws_wm_PID
                0x00000000c009346c                gws_wm_status
 COMMON         0x00000000c0093470       0x10 debug.o
                0x00000000c0093470                Mind
 COMMON         0x00000000c0093480        0xc x86fault.o
                0x00000000c0093480                thread_failed_flag
                0x00000000c0093484                demand_paging_flag
                0x00000000c0093488                fatal_error_flag
 COMMON         0x00000000c009348c       0x34 services.o
                0x00000000c009348c                cwArg1
                0x00000000c0093490                cwArg2
                0x00000000c0093494                cwArg11
                0x00000000c0093498                cwArg8
                0x00000000c009349c                cwArg3
                0x00000000c00934a0                cwArg9
                0x00000000c00934a4                cwArg10
                0x00000000c00934a8                cwFlag
                0x00000000c00934ac                cwArg12
                0x00000000c00934b0                cwArg5
                0x00000000c00934b4                cwArg7
                0x00000000c00934b8                cwArg4
                0x00000000c00934bc                cwArg6
                0x00000000c00934c0                _bss_end = .
                0x00000000c0094000                . = ALIGN (0x1000)
 *fill*         0x00000000c00934c0      0xb40 
                0x00000000c0094000                _kernel_end = .
LOAD head.o
LOAD x86main.o
LOAD io.o
LOAD hal.o
LOAD mk.o
LOAD execve.o
LOAD video.o
LOAD screen.o
LOAD runtime.o
LOAD portsx86.o
LOAD x86.o
LOAD stdio.o
LOAD stdlib.o
LOAD string.o
LOAD tty.o
LOAD init.o
LOAD logon.o
LOAD logoff.o
LOAD detect.o
LOAD cpuamd.o
LOAD memory.o
LOAD pages.o
LOAD apic.o
LOAD pic.o
LOAD timer.o
LOAD rtc.o
LOAD keyboard.o
LOAD mouse.o
LOAD ldisc.o
LOAD hdd.o
LOAD pci.o
LOAD usb.o
LOAD devmgr.o
LOAD spawn.o
LOAD callout.o
LOAD callfar.o
LOAD process.o
LOAD pheap.o
LOAD thread.o
LOAD threadi.o
LOAD theap.o
LOAD tstack.o
LOAD create.o
LOAD x86start.o
LOAD x86cont.o
LOAD tasks.o
LOAD ts.o
LOAD queue.o
LOAD sched.o
LOAD schedi.o
LOAD dispatch.o
LOAD sem.o
LOAD modules.o
LOAD nicintel.o
LOAD network.o
LOAD socket.o
LOAD sm.o
LOAD channel.o
LOAD ipc.o
LOAD read.o
LOAD write.o
LOAD cf.o
LOAD search.o
LOAD format.o
LOAD disk1.o
LOAD diskvol.o
LOAD fs.o
LOAD vfs.o
LOAD cedge.o
LOAD ctype.o
LOAD request.o
LOAD info.o
LOAD signal.o
LOAD system.o
LOAD bg.o
LOAD grid.o
LOAD sbar.o
LOAD menubar.o
LOAD menu.o
LOAD i8042.o
LOAD ps2mouse.o
LOAD ps2kbd.o
LOAD button.o
LOAD char.o
LOAD pixel.o
LOAD line.o
LOAD rect.o
LOAD dtext.o
LOAD font.o
LOAD vsync.o
LOAD bmp.o
LOAD createw.o
LOAD window.o
LOAD desktop.o
LOAD room.o
LOAD usession.o
LOAD gws.o
LOAD object.o
LOAD userenv.o
LOAD proc.o
LOAD syscall.o
LOAD install.o
LOAD serial.o
LOAD debug.o
LOAD abort.o
LOAD x86fault.o
LOAD services.o
OUTPUT(KERNEL.BIN pe-i386)

.comment        0x0000000000000000      0xb30
 .comment       0x0000000000000000       0x1b x86main.o
 .comment       0x000000000000001b       0x1b io.o
 .comment       0x0000000000000036       0x1b hal.o
 .comment       0x0000000000000051       0x1b mk.o
 .comment       0x000000000000006c       0x1b execve.o
 .comment       0x0000000000000087       0x1b video.o
 .comment       0x00000000000000a2       0x1b screen.o
 .comment       0x00000000000000bd       0x1b runtime.o
 .comment       0x00000000000000d8       0x1b portsx86.o
 .comment       0x00000000000000f3       0x1b x86.o
 .comment       0x000000000000010e       0x1b stdio.o
 .comment       0x0000000000000129       0x1b stdlib.o
 .comment       0x0000000000000144       0x1b string.o
 .comment       0x000000000000015f       0x1b tty.o
 .comment       0x000000000000017a       0x1b init.o
 .comment       0x0000000000000195       0x1b logon.o
 .comment       0x00000000000001b0       0x1b logoff.o
 .comment       0x00000000000001cb       0x1b detect.o
 .comment       0x00000000000001e6       0x1b cpuamd.o
 .comment       0x0000000000000201       0x1b memory.o
 .comment       0x000000000000021c       0x1b pages.o
 .comment       0x0000000000000237       0x1b apic.o
 .comment       0x0000000000000252       0x1b pic.o
 .comment       0x000000000000026d       0x1b timer.o
 .comment       0x0000000000000288       0x1b rtc.o
 .comment       0x00000000000002a3       0x1b keyboard.o
 .comment       0x00000000000002be       0x1b mouse.o
 .comment       0x00000000000002d9       0x1b ldisc.o
 .comment       0x00000000000002f4       0x1b hdd.o
 .comment       0x000000000000030f       0x1b pci.o
 .comment       0x000000000000032a       0x1b usb.o
 .comment       0x0000000000000345       0x1b devmgr.o
 .comment       0x0000000000000360       0x1b spawn.o
 .comment       0x000000000000037b       0x1b callout.o
 .comment       0x0000000000000396       0x1b callfar.o
 .comment       0x00000000000003b1       0x1b process.o
 .comment       0x00000000000003cc       0x1b pheap.o
 .comment       0x00000000000003e7       0x1b thread.o
 .comment       0x0000000000000402       0x1b threadi.o
 .comment       0x000000000000041d       0x1b theap.o
 .comment       0x0000000000000438       0x1b tstack.o
 .comment       0x0000000000000453       0x1b create.o
 .comment       0x000000000000046e       0x1b x86start.o
 .comment       0x0000000000000489       0x1b x86cont.o
 .comment       0x00000000000004a4       0x1b tasks.o
 .comment       0x00000000000004bf       0x1b ts.o
 .comment       0x00000000000004da       0x1b queue.o
 .comment       0x00000000000004f5       0x1b sched.o
 .comment       0x0000000000000510       0x1b schedi.o
 .comment       0x000000000000052b       0x1b dispatch.o
 .comment       0x0000000000000546       0x1b sem.o
 .comment       0x0000000000000561       0x1b modules.o
 .comment       0x000000000000057c       0x1b nicintel.o
 .comment       0x0000000000000597       0x1b network.o
 .comment       0x00000000000005b2       0x1b socket.o
 .comment       0x00000000000005cd       0x1b sm.o
 .comment       0x00000000000005e8       0x1b channel.o
 .comment       0x0000000000000603       0x1b ipc.o
 .comment       0x000000000000061e       0x1b read.o
 .comment       0x0000000000000639       0x1b write.o
 .comment       0x0000000000000654       0x1b cf.o
 .comment       0x000000000000066f       0x1b search.o
 .comment       0x000000000000068a       0x1b format.o
 .comment       0x00000000000006a5       0x1b disk1.o
 .comment       0x00000000000006c0       0x1b diskvol.o
 .comment       0x00000000000006db       0x1b fs.o
 .comment       0x00000000000006f6       0x1b vfs.o
 .comment       0x0000000000000711       0x1b cedge.o
 .comment       0x000000000000072c       0x1b ctype.o
 .comment       0x0000000000000747       0x1b request.o
 .comment       0x0000000000000762       0x1b info.o
 .comment       0x000000000000077d       0x1b signal.o
 .comment       0x0000000000000798       0x1b system.o
 .comment       0x00000000000007b3       0x1b bg.o
 .comment       0x00000000000007ce       0x1b grid.o
 .comment       0x00000000000007e9       0x1b sbar.o
 .comment       0x0000000000000804       0x1b menubar.o
 .comment       0x000000000000081f       0x1b menu.o
 .comment       0x000000000000083a       0x1b i8042.o
 .comment       0x0000000000000855       0x1b ps2mouse.o
 .comment       0x0000000000000870       0x1b ps2kbd.o
 .comment       0x000000000000088b       0x1b button.o
 .comment       0x00000000000008a6       0x1b char.o
 .comment       0x00000000000008c1       0x1b pixel.o
 .comment       0x00000000000008dc       0x1b line.o
 .comment       0x00000000000008f7       0x1b rect.o
 .comment       0x0000000000000912       0x1b dtext.o
 .comment       0x000000000000092d       0x1b font.o
 .comment       0x0000000000000948       0x1b vsync.o
 .comment       0x0000000000000963       0x1b bmp.o
 .comment       0x000000000000097e       0x1b createw.o
 .comment       0x0000000000000999       0x1b window.o
 .comment       0x00000000000009b4       0x1b desktop.o
 .comment       0x00000000000009cf       0x1b room.o
 .comment       0x00000000000009ea       0x1b usession.o
 .comment       0x0000000000000a05       0x1b gws.o
 .comment       0x0000000000000a20       0x1b object.o
 .comment       0x0000000000000a3b       0x1b userenv.o
 .comment       0x0000000000000a56       0x1b proc.o
 .comment       0x0000000000000a71       0x1b syscall.o
 .comment       0x0000000000000a8c       0x1b install.o
 .comment       0x0000000000000aa7       0x1b serial.o
 .comment       0x0000000000000ac2       0x1b debug.o
 .comment       0x0000000000000add       0x1b abort.o
 .comment       0x0000000000000af8       0x1b x86fault.o
 .comment       0x0000000000000b13       0x1b services.o

.note.GNU-stack
                0x0000000000000000        0x0
 .note.GNU-stack
                0x0000000000000000        0x0 x86main.o
 .note.GNU-stack
                0x0000000000000000        0x0 io.o
 .note.GNU-stack
                0x0000000000000000        0x0 hal.o
 .note.GNU-stack
                0x0000000000000000        0x0 mk.o
 .note.GNU-stack
                0x0000000000000000        0x0 execve.o
 .note.GNU-stack
                0x0000000000000000        0x0 video.o
 .note.GNU-stack
                0x0000000000000000        0x0 screen.o
 .note.GNU-stack
                0x0000000000000000        0x0 runtime.o
 .note.GNU-stack
                0x0000000000000000        0x0 portsx86.o
 .note.GNU-stack
                0x0000000000000000        0x0 x86.o
 .note.GNU-stack
                0x0000000000000000        0x0 stdio.o
 .note.GNU-stack
                0x0000000000000000        0x0 stdlib.o
 .note.GNU-stack
                0x0000000000000000        0x0 string.o
 .note.GNU-stack
                0x0000000000000000        0x0 tty.o
 .note.GNU-stack
                0x0000000000000000        0x0 init.o
 .note.GNU-stack
                0x0000000000000000        0x0 logon.o
 .note.GNU-stack
                0x0000000000000000        0x0 logoff.o
 .note.GNU-stack
                0x0000000000000000        0x0 detect.o
 .note.GNU-stack
                0x0000000000000000        0x0 cpuamd.o
 .note.GNU-stack
                0x0000000000000000        0x0 memory.o
 .note.GNU-stack
                0x0000000000000000        0x0 pages.o
 .note.GNU-stack
                0x0000000000000000        0x0 apic.o
 .note.GNU-stack
                0x0000000000000000        0x0 pic.o
 .note.GNU-stack
                0x0000000000000000        0x0 timer.o
 .note.GNU-stack
                0x0000000000000000        0x0 rtc.o
 .note.GNU-stack
                0x0000000000000000        0x0 keyboard.o
 .note.GNU-stack
                0x0000000000000000        0x0 mouse.o
 .note.GNU-stack
                0x0000000000000000        0x0 ldisc.o
 .note.GNU-stack
                0x0000000000000000        0x0 hdd.o
 .note.GNU-stack
                0x0000000000000000        0x0 pci.o
 .note.GNU-stack
                0x0000000000000000        0x0 usb.o
 .note.GNU-stack
                0x0000000000000000        0x0 devmgr.o
 .note.GNU-stack
                0x0000000000000000        0x0 spawn.o
 .note.GNU-stack
                0x0000000000000000        0x0 callout.o
 .note.GNU-stack
                0x0000000000000000        0x0 callfar.o
 .note.GNU-stack
                0x0000000000000000        0x0 process.o
 .note.GNU-stack
                0x0000000000000000        0x0 pheap.o
 .note.GNU-stack
                0x0000000000000000        0x0 thread.o
 .note.GNU-stack
                0x0000000000000000        0x0 threadi.o
 .note.GNU-stack
                0x0000000000000000        0x0 theap.o
 .note.GNU-stack
                0x0000000000000000        0x0 tstack.o
 .note.GNU-stack
                0x0000000000000000        0x0 create.o
 .note.GNU-stack
                0x0000000000000000        0x0 x86start.o
 .note.GNU-stack
                0x0000000000000000        0x0 x86cont.o
 .note.GNU-stack
                0x0000000000000000        0x0 tasks.o
 .note.GNU-stack
                0x0000000000000000        0x0 ts.o
 .note.GNU-stack
                0x0000000000000000        0x0 queue.o
 .note.GNU-stack
                0x0000000000000000        0x0 sched.o
 .note.GNU-stack
                0x0000000000000000        0x0 schedi.o
 .note.GNU-stack
                0x0000000000000000        0x0 dispatch.o
 .note.GNU-stack
                0x0000000000000000        0x0 sem.o
 .note.GNU-stack
                0x0000000000000000        0x0 modules.o
 .note.GNU-stack
                0x0000000000000000        0x0 nicintel.o
 .note.GNU-stack
                0x0000000000000000        0x0 network.o
 .note.GNU-stack
                0x0000000000000000        0x0 socket.o
 .note.GNU-stack
                0x0000000000000000        0x0 sm.o
 .note.GNU-stack
                0x0000000000000000        0x0 channel.o
 .note.GNU-stack
                0x0000000000000000        0x0 ipc.o
 .note.GNU-stack
                0x0000000000000000        0x0 read.o
 .note.GNU-stack
                0x0000000000000000        0x0 write.o
 .note.GNU-stack
                0x0000000000000000        0x0 cf.o
 .note.GNU-stack
                0x0000000000000000        0x0 search.o
 .note.GNU-stack
                0x0000000000000000        0x0 format.o
 .note.GNU-stack
                0x0000000000000000        0x0 disk1.o
 .note.GNU-stack
                0x0000000000000000        0x0 diskvol.o
 .note.GNU-stack
                0x0000000000000000        0x0 fs.o
 .note.GNU-stack
                0x0000000000000000        0x0 vfs.o
 .note.GNU-stack
                0x0000000000000000        0x0 cedge.o
 .note.GNU-stack
                0x0000000000000000        0x0 ctype.o
 .note.GNU-stack
                0x0000000000000000        0x0 request.o
 .note.GNU-stack
                0x0000000000000000        0x0 info.o
 .note.GNU-stack
                0x0000000000000000        0x0 signal.o
 .note.GNU-stack
                0x0000000000000000        0x0 system.o
 .note.GNU-stack
                0x0000000000000000        0x0 bg.o
 .note.GNU-stack
                0x0000000000000000        0x0 grid.o
 .note.GNU-stack
                0x0000000000000000        0x0 sbar.o
 .note.GNU-stack
                0x0000000000000000        0x0 menubar.o
 .note.GNU-stack
                0x0000000000000000        0x0 menu.o
 .note.GNU-stack
                0x0000000000000000        0x0 i8042.o
 .note.GNU-stack
                0x0000000000000000        0x0 ps2mouse.o
 .note.GNU-stack
                0x0000000000000000        0x0 ps2kbd.o
 .note.GNU-stack
                0x0000000000000000        0x0 button.o
 .note.GNU-stack
                0x0000000000000000        0x0 char.o
 .note.GNU-stack
                0x0000000000000000        0x0 pixel.o
 .note.GNU-stack
                0x0000000000000000        0x0 line.o
 .note.GNU-stack
                0x0000000000000000        0x0 rect.o
 .note.GNU-stack
                0x0000000000000000        0x0 dtext.o
 .note.GNU-stack
                0x0000000000000000        0x0 font.o
 .note.GNU-stack
                0x0000000000000000        0x0 vsync.o
 .note.GNU-stack
                0x0000000000000000        0x0 bmp.o
 .note.GNU-stack
                0x0000000000000000        0x0 createw.o
 .note.GNU-stack
                0x0000000000000000        0x0 window.o
 .note.GNU-stack
                0x0000000000000000        0x0 desktop.o
 .note.GNU-stack
                0x0000000000000000        0x0 room.o
 .note.GNU-stack
                0x0000000000000000        0x0 usession.o
 .note.GNU-stack
                0x0000000000000000        0x0 gws.o
 .note.GNU-stack
                0x0000000000000000        0x0 object.o
 .note.GNU-stack
                0x0000000000000000        0x0 userenv.o
 .note.GNU-stack
                0x0000000000000000        0x0 proc.o
 .note.GNU-stack
                0x0000000000000000        0x0 syscall.o
 .note.GNU-stack
                0x0000000000000000        0x0 install.o
 .note.GNU-stack
                0x0000000000000000        0x0 serial.o
 .note.GNU-stack
                0x0000000000000000        0x0 debug.o
 .note.GNU-stack
                0x0000000000000000        0x0 abort.o
 .note.GNU-stack
                0x0000000000000000        0x0 x86fault.o
 .note.GNU-stack
                0x0000000000000000        0x0 services.o
