
Allocating common symbols
Common symbol       size              file

_SMALL_extraheap2_pa
                    0x8               main.o
_timerShowTextCursor
                    0x4               pit.o
_framepoolBackBuffer3
                    0x8               main.o
_heap_pointer_last_valid
                    0x8               memory.o
_MEDIUM_extraheap2_pa
                    0x8               main.o
_g_backbuffer_va    0x8               main.o
_shared_buffer_terminal_icon
                    0x8               main.o
_blSavedCylinders   0x8               main.o
_g_module_volume_initialized
                    0x4               main.o
_Graphics           0x8               main.o
_framepoolList      0x2000            main.o
_dispatcherType     0x4               main.o
_pci_handler_address
                    0x8               main.o
_WindowServer_virtual_console
                    0x4               main.o
_PS2                0x14              main.o
_dummmmkdsfmsd      0x4               main.o
_PS2MouseDeviceTTY  0x8               main.o
___gpidSecurityServer
                    0x4               main.o
_SMALL_pagedpool_pa
                    0x8               main.o
_g_profiler_ints_irq13
                    0x8               main.o
_g_frontbuffer_va   0x8               main.o
_userconfig_Status  0x4               main.o
_prompt             0x100             main.o
_g_module_debug_initialized
                    0x4               main.o
_threadList         0x2000            main.o
_active_process     0x4               main.o
_pci_device         0x8               main.o
_Windows            0x2000            main.o
_g_module_disk_initialized
                    0x4               main.o
___packed           0x4               main.o
_current_runlevel   0x4               main.o
_search_path_dir_entries
                    0x8               main.o
_kernel_heap_end    0x8               main.o
___gpidInclude      0x4               main.o
_g_currentvolume_fatbits
                    0x4               main.o
_contextRCX         0x8               x64cont.o
_kgws_ws_status     0x4               kgws.o
_scrolllock_status  0x8               main.o
_contextR12         0x8               x64cont.o
_wait_queue         0x8               main.o
_windowzoneStart    0x8               main.o
_mm_used_extraheap1
                    0x8               main.o
_partition          0x8               main.o
_SavedBPP           0x8               main.o
_g_boottime_ide_channel
                    0x4               main.o
___gpidLogoff       0x4               main.o
_g9x14fontAddress   0x8               main.o
_framepoolBackBuffer2
                    0x8               main.o
_task_switch_status
                    0x8               main.o
_ata_record_dev     0x1               main.o
_systemzoneEnd      0x8               main.o
_g_is_qemu          0x4               main.o
_LocalHostHTTPSocket
                    0x8               main.o
_MEDIUM_user_pa     0x8               main.o
_SMALL_user_pa      0x8               main.o
_directory_facility_ProgramsDir
                    0x20              main.o
___gpidSCI          0x4               main.o
_preempted_task     0x8               main.o
_ActiveWindow       0x8               main.o
_mouse_buttom_3     0x4               main.o
_current_screen     0x4               main.o
_screen_height      0x8               screen.o
_capslock_status    0x8               main.o
_KernelArgs         0x20              main.o
_contextFS          0x8               x64cont.o
_contextDS          0x8               x64cont.o
_pcideviceList      0x400             main.o
_memorysizeAvailablePhysicalMemory
                    0x8               main.o
_PS2MouseDeviceObject
                    0x8               main.o
_fullscreen_window  0x4               main.o
_desktopdummmy      0x4               desktop.o
_textcursorStatus   0x4               main.o
_pmiMemoryInfo      0x8               main.o
_mm_used_heappool   0x8               main.o
_current_volume_string
                    0x8               main.o
_mouse_button_action
                    0x4               main.o
_g_module_fs_initialized
                    0x4               main.o
_framepoolBackBuffer4
                    0x8               main.o
_g_driver_hdd_initialized
                    0x4               main.o
_g9x16fontAddress   0x8               main.o
_storage            0x8               main.o
_systemzoneStart    0x8               main.o
_running_tasks      0x8               main.o
_g_extraheap1_size  0x8               main.o
_pciListOffset      0x4               pci.o
_g_device_screen_width
                    0x8               main.o
_InitThread         0x8               main.o
___breaker_com2_initialized
                    0x4               main.o
_extra              0x4               main.o
_g_profiler_ints_irq2
                    0x8               main.o
_fsbFrames          0x2000            main.o
_g_user_space_framepool_index
                    0x4               main.o
_____network_file   0x8               network.o
_Initialization     0x1c              main.o
_next_thread        0x4               main.o
_systemzoneSize     0x8               main.o
___breaker_timer_initialized
                    0x4               main.o
_zorderCounter      0x4               main.o
_mmFramesSuperBlockTotalUsed
                    0x8               main.o
_quantum            0x8               main.o
_stderr             0x8               main.o
_MEDIUM_heappool_pa
                    0x8               main.o
_tmpConductor       0x8               main.o
_g_logged           0x4               main.o
_RGBA               0x8               main.o
_processNewPID      0x4               process.o
___frontbuffer_pa   0x8               video.o
_____whatchdog_ps2_keyboard
                    0x4               main.o
_current_dev        0x8               ata.o
___breaker_com3_initialized
                    0x4               main.o
_____IDLE           0x8               main.o
_gui                0x8               main.o
_CurrentUserSession
                    0x8               main.o
_g_device_screen_height
                    0x8               main.o
_g_mousepointer_height
                    0x8               main.o
_g_module_uem_initialized
                    0x4               main.o
___gpidInit         0x4               main.o
_fat_cache_loaded   0x4               main.o
_processor          0x8               main.o
___gpidSysIO        0x4               main.o
_foreground_thread  0x4               main.o
_userList           0x80              main.o
_LARGE_cga_pa       0x8               main.o
_contextRFLAGS      0x8               x64cont.o
_prompt_pos         0x8               main.o
_saved_mouse_x      0x4               main.o
_Conductor          0x8               main.o
_ide_handler_address
                    0x8               main.o
_MEDIUM_extraheap1_pa
                    0x8               main.o
_mbr                0x8               main.o
_current_mmblock    0x8               main.o
_deviceList         0x1000            main.o
___spinlock_ipc     0x4               main.o
_ASpace             0x8               main.o
_mmFramesSuperBlockSize
                    0x8               main.o
_g_driver_ps2keyboard_initialized
                    0x4               main.o
_kernel_stack_start
                    0x8               main.o
_xBootBlock         0x20              main.o
_Rtc                0x8               main.o
_blSavedDiskNumber  0x8               main.o
_mm_used_extraheap3
                    0x8               main.o
_caller_process_id  0x4               process.o
_start_new_task_address
                    0x8               main.o
_g_module_gui_initialized
                    0x4               main.o
_KeInitPhase        0x8               main.o
_g_driver_ps2mouse_initialized
                    0x4               main.o
_windows_count      0x4               main.o
_timerColor         0x4               pit.o
_pagetableList      0x2000            main.o
_combobox_window    0x4               main.o
_framepoolBackBuffer1
                    0x8               main.o
_g_driver_video_initialized
                    0x4               main.o
_active_window      0x4               main.o
_vtList             0x100             main.o
_root               0x8               main.o
_vfs                0x8               main.o
_current_pci_device
                    0x8               main.o
_directory_facility_EFIDir
                    0x20              main.o
_g_show_text_cursor
                    0x4               main.o
_Hardware           0x8               main.o
_g_profiler_ints_irq10
                    0x8               main.o
_mm_prev_pointer    0x8               memory.o
_directory_facility_ubaseDir
                    0x20              main.o
_contextRSP         0x8               x64cont.o
_current_process    0x4               main.o
_SMALL_cga_pa       0x8               main.o
_current_desktop    0x4               main.o
_gKernelPML4Address
                    0x8               main.o
_numlock_status     0x8               main.o
_usession0          0x8               main.o
_g_extraheap2_size  0x8               main.o
_videoError         0x4               video.o
_CurrentSocket      0x8               main.o
_g_module_logoff_initialized
                    0x4               main.o
_pagetableCurrent   0x8               main.o
_____boot____disk   0x8               main.o
_g8x14fontAddress   0x8               main.o
___gpidWindowManager
                    0x4               main.o
_usessiondummmy     0x4               usession.o
_g_profiler_ints_irq1
                    0x8               main.o
_kstdio_standard_streams_initialized
                    0x4               main.o
_timerStatus        0x4               pit.o
_g_profiler_ints_irq7
                    0x8               main.o
_stdin              0x8               main.o
_g_frontbuffer_pa   0x8               main.o
_old_mouse_buttom_1
                    0x4               main.o
_mmFramesSuperBlockTotalFree
                    0x8               main.o
_CONSOLE_TTYS       0xb40             main.o
_gcharWidth         0x4               main.o
_savedmouseoverwindowY
                    0x8               main.o
_socketList         0x100             main.o
_contextR13         0x8               x64cont.o
_contextR10         0x8               x64cont.o
___breaker_com1_initialized
                    0x4               main.o
_g_module_logon_initialized
                    0x4               main.o
_CurrentTTYBUFFER   0x8               main.o
_CWD                0x28              main.o
_next_address       0x8               main.o
_____whatchdog_ps2_mouse
                    0x4               main.o
_dispatcherQueueIndex
                    0x4               main.o
_kernel_heap_start  0x8               main.o
_directory_facility_RootDir
                    0x20              main.o
_contextRDX         0x8               x64cont.o
_g_profiler_ints_irq11
                    0x8               main.o
_g8x16fontAddress   0x8               main.o
_g_current_object   0x4               main.o
_PrideColorScheme   0x8               main.o
_CurrentTSS         0x8               main.o
_current_room       0x4               main.o
_mac_address        0x8               main.o
_contextR8          0x8               x64cont.o
_queue              0x8               main.o
_UPProcessorBlock   0x60              main.o
_inode_table        0x100             main.o
_system_disk        0x4               main.o
_DispatchCountBlock
                    0x8               main.o
_current_dead_process
                    0x4               main.o
_shift_status       0x8               main.o
_ide_dma_prdt       0x20              main.o
_current_directory  0x4               main.o
_MEDIUM_backbuffer_pa
                    0x8               main.o
_kernel_stack_start_pa
                    0x8               main.o
_sys_time_ms        0x8               main.o
_logonStatus        0x4               main.o
___breaker_ps2mouse_initialized
                    0x4               main.o
_PS2KeyboardDevice  0x8               main.o
___breaker_ata2_initialized
                    0x4               main.o
_framepoolFrontBuffer3
                    0x8               main.o
_current_window     0x4               main.o
_g_available_heap   0x8               main.o
_start_new_task_id  0x4               main.o
_g_heap_count       0x4               main.o
_alt_status         0x8               main.o
_schedulerType      0x4               main.o
_current_disk       0x4               main.o
_volume1_rootdir    0x8               main.o
_g_new_message      0x8               main.o
_LARGE_pagedpool_pa
                    0x8               main.o
_blSavedHeads       0x8               main.o
_contextRIP         0x8               x64cont.o
_Firmware           0x8               main.o
_volume_bootpartition
                    0x8               main.o
___gpidNotificationServer
                    0x4               main.o
_current_dead_thread
                    0x4               main.o
_SMALL_frontbuffer_pa
                    0x8               main.o
_WindowManager      0x8               main.o
_mouseover_window   0x4               main.o
_g_device_screen_bpp
                    0x8               main.o
_kbMsgStatus        0x4               main.o
_RootUser           0x8               main.o
_g_module_objectmanager_initialized
                    0x4               main.o
_ata_record_channel
                    0x1               main.o
_zorderTopWindow    0x4               main.o
_g_current_framepool
                    0x4               main.o
_current_taskman_server
                    0x4               main.o
_task_color         0x4               main.o
_g_profiler_ints_irq4
                    0x8               main.o
_framepoolFrontBuffer1
                    0x8               main.o
_heapCount          0x8               main.o
_windowzoneEnd      0x8               main.o
_g_pagedpool_va     0x8               main.o
_g_profiler_ints_irq14
                    0x8               main.o
_pagedirectoryIdleProcess
                    0x8               main.o
_volume_vfs         0x8               main.o
_g_mousepointer_x   0x8               main.o
_usersession_start  0x8               main.o
_profiler_percentage_idle_thread
                    0x8               main.o
_processors_count   0x4               main.o
_mmFramesSuperBlockTotal
                    0x8               main.o
_g_inputmode        0x4               main.o
_RawGraphics        0x8               main.o
_keyboard_handler_address
                    0x8               main.o
_kernel_stack_end   0x8               main.o
_g_extraheap2_va    0x8               main.o
_SMALL_heappool_pa  0x8               main.o
_g_object_manager_status
                    0x4               main.o
_SMALL_origin_pa    0x8               main.o
_InitProcess        0x8               main.o
_system_volume      0x4               main.o
_zones              0x8               main.o
_miMemoryInfo       0x8               main.o
_contextRBP         0x8               x64cont.o
_g_module_runtime_initialized
                    0x4               main.o
_screen_width       0x8               screen.o
_pci_supported      0x4               pci.o
___gpidSysSM        0x4               main.o
_FT                 0x38              main.o
_VersionInfo        0x8               main.o
_MEDIUM_frontbuffer_pa
                    0x8               main.o
_window_with_focus  0x4               main.o
_g_proc_status      0x8               main.o
_framepoolCurrent   0x8               main.o
_gNextKeyboardMessage
                    0x4               main.o
_pagedirectoryShared
                    0x8               main.o
_SMALL_extraheap3_pa
                    0x8               main.o
_g_currentvolume_filesystem_type
                    0x4               main.o
___cga_va           0x8               video.o
_directory_facility_usersDir
                    0x20              main.o
_g_heappool_va      0x8               main.o
_g_current_ide_channel
                    0x4               main.o
_current_display    0x4               main.o
_pagedirectoryCurrent
                    0x8               main.o
_gLogonPID          0x4               main.o
___frontbuffer_va   0x8               video.o
_VECTORS            0x800             main.o
_CurrentWindow      0x8               main.o
_g_product_type     0x4               main.o
_vbr                0x8               main.o
_profiler_ticks_count
                    0x8               main.o
_g_heap_pointer     0x8               main.o
_WindowWithFocus    0x8               main.o
_task_count         0x8               main.o
_Screen             0x8               main.o
_PS2KeyboardDeviceObject
                    0x8               main.o
_pipe_gramadocore_init_execve
                    0x8               main.o
_g_kernel_nonpaged_memory
                    0x8               main.o
_timer_handler_address
                    0x8               main.o
_kernel_switch      0x8               main.o
_old_mouse_buttom_3
                    0x4               main.o
_guiStatus          0x4               main.o
_window_rootConductor
                    0x8               main.o
_heapList           0x40              main.o
_ttyCurrentX        0x4               main.o
_volume2_rootdir    0x8               main.o
_DriveContext       0x8               main.o
_file_table         0x100             main.o
_prompt_err         0x100             main.o
_abnt2              0x4               main.o
_gFocusBlocked      0x4               main.o
_MEDIUM_kernel_base_pa
                    0x8               main.o
_current_socket     0x4               main.o
_fat16ClustersToSave
                    0x10000           fs.o
_SavedX             0x8               main.o
___gpidBoot         0x4               main.o
_desktops_count     0x4               main.o
_fat_cache_saved    0x4               main.o
_KernelPages        0x8               main.o
_g_driver_apic_initialized
                    0x4               main.o
_FREE_FRAMES        0x8000            main.o
__lockfocus         0x4               main.o
_saved_mouse_y      0x4               main.o
_contextGS          0x8               x64cont.o
_current_usersession
                    0x4               main.o
_g_video_mode       0x8               main.o
_ttyCurrentY        0x4               main.o
_fat                0x8               main.o
_mm_used_pagedpool  0x8               main.o
_stdio_verbosemode_flag
                    0x4               main.o
_mmFramesSuperBlockEnd
                    0x8               main.o
_processList        0x2000            main.o
_memorysizeAvailableVirtualMemory
                    0x8               main.o
_memorysizeExtendedMemory
                    0x8               main.o
_gPagedPollStart    0x8               main.o
_criticalsection_pid
                    0x4               main.o
_g_backbuffer_pa    0x8               main.o
_systemzone         0x8               main.o
_SMALL_extraheap1_pa
                    0x8               main.o
_dead_thread_collector_status
                    0x4               main.o
_ATAFlag            0x4               main.o
_sys_time_hz        0x8               main.o
_gLogoffPID         0x4               main.o
_profiler_ticks_limit
                    0x8               main.o
_gfontSize          0x4               main.o
_contextR14         0x8               x64cont.o
_start_new_task_status
                    0x8               main.o
_framepoolFrontBuffer4
                    0x8               main.o
_gramado_ports      0x80              main.o
___cga_pa           0x8               video.o
_timer_cursor_used  0x4               main.o
_consoleTextCursorStatus
                    0x4               console.o
_CurrentTTYLDISC    0x8               main.o
_profiler_percentage_all_normal_threads
                    0x8               main.o
_SWAPPED_FRAMES     0x8000            main.o
_SMALL_kernel_base_pa
                    0x8               main.o
_g_total_physical_memory
                    0x8               main.o
_IOControl          0xc               main.o
_zzcgftgrtgrt       0x4               sci.o
_g_mousepointer_width
                    0x8               main.o
_HANDLERS           0x840             main.o
_current_terminal   0x4               main.o
_window_Conductor2  0x8               main.o
_LARGE_origin_pa    0x8               main.o
_g_machine_type     0x8               main.o
_current_tty        0x4               main.o
_roomdummmy         0x4               room.o
_newtask_EIP        0x8               main.o
_MEDIUM_pagedpool_pa
                    0x8               main.o
_g_profiler_ints_irq5
                    0x8               main.o
_memorysizeTotalVirtualMemory
                    0x8               main.o
_top_window         0x4               main.o
_g_scheduler_status
                    0x8               main.o
___gpidInstall      0x4               main.o
_SMALL_backbuffer_pa
                    0x8               main.o
_network_status     0x4               network.o
_contextR15         0x8               x64cont.o
_ide_ports          0x80              main.o
___gpidWindowServer
                    0x4               main.o
_mm_used_backbuffer
                    0x8               main.o
_kgws_ws_PID        0x4               kgws.o
_current_quantum    0x8               main.o
_stdout             0x8               main.o
_dead_thread_collector_flag
                    0x4               main.o
_windowzoneSize     0x8               main.o
_g_driver_rtc_initialized
                    0x4               main.o
_NETWORK_BUFFER     0x1f8             main.o
_SystemClasses      0x18              main.o
_refresh_screen_flag
                    0x4               main.o
_mm_used_frame_table
                    0x8               main.o
_CurrentTTYDRV      0x8               main.o
_timerIdleState     0x8               pit.o
_gws_currentfont_address
                    0x8               main.o
_PS2MouseDevice     0x8               main.o
_windowList         0x2000            main.o
_SavedY             0x8               main.o
_gPagedPollEnd      0x8               main.o
_windowzone         0x8               main.o
_WindowServer       0x8               main.o
_memorysizeFree     0x8               main.o
_timerError         0x4               pit.o
_IDE                0x28              main.o
_g_system_color     0x8               main.o
_editbox_window     0x4               main.o
_kernel_request     0x8               main.o
_g_pageable_framepool_index_max
                    0x4               main.o
_current_thread     0x4               main.o
_blSavedMetafileAddress
                    0x8               main.o
_Pipes              0x40              main.o
_processorsList     0x100             main.o
_Bank               0x8               main.o
_BootBlock          0x70              main.o
_timer_cursor_status
                    0x4               main.o
_g_current_vm       0x8               main.o
_g_extraheap3_va    0x8               main.o
_current_target_dir
                    0x38              main.o
_mm_used_kernel_area
                    0x8               main.o
_schedulerQueue     0x20              main.o
_search_path_dir_address
                    0x8               main.o
_systemSize         0x4               main.o
_PS2KeyboardDeviceTTY
                    0x8               main.o
_WindowServer_pid   0x4               main.o
_gDeveloperOptions  0x4               main.o
_contextR9          0x8               x64cont.o
_g_profiler_ints_irq12
                    0x8               main.o
_zorder             0x4               main.o
_mm_used_extraheap2
                    0x8               main.o
_last_size          0x8               memory.o
_forkid             0x8               main.o
_current_volume     0x4               main.o
_shutdown_address   0x8               main.o
_shared_buffer_folder_icon
                    0x8               main.o
_devices            0x8               main.o
_screen_size_in_kb  0x8               main.o
_xxx_fault_number   0x8               x64fault.o
_gcharHeight        0x4               main.o
_g_profiler_ints_irq8
                    0x8               main.o
_mouse_buttom_1     0x4               main.o
_foreground_process
                    0x4               main.o
_g_profiler_ints_irq3
                    0x8               main.o
_framepoolFrontBuffer2
                    0x8               main.o
_pipe_execve        0x8               main.o
_diskList           0x2000            main.o
_magic              0x8               main.o
_PAINT              0xc8              main.o
_ready_queue_dev    0x8               ata.o
___breaker_ata1_initialized
                    0x4               main.o
_KernelClasses      0x8               main.o
_fsbFreeFrames      0x2000            main.o
_old_mouse_buttom_2
                    0x4               main.o
_current_process_pagedirectory_address
                    0x8               main.o
_SavedLFB           0x8               main.o
_KernelProcess      0x8               main.o
_framepoolPageableSpace
                    0x8               main.o
_LARGE_extraheap1_pa
                    0x8               main.o
_KernelHeapSize     0x8               main.o
___gpidNetServer    0x4               main.o
_HostDeviceInfo     0x8               main.o
_prompt_out         0x100             main.o
_g_driver_pci_initialized
                    0x4               main.o
_file_cluster_list  0x800             main.o
_g_profiler_ints_gde_services
                    0x8               main.o
___breaker_rtc_initialized
                    0x4               main.o
_LARGE_frontbuffer_pa
                    0x8               main.o
_EarlyRING0IDLEThread
                    0x8               main.o
_jiffies            0x8               main.o
_escape_status      0x8               main.o
_DesktopEnvironment
                    0x8               main.o
_memorysizeOtherMemory
                    0x8               main.o
_mmblockList        0x10000           main.o
_kgws_status        0x4               kgws.o
_directory_facility_GramadoDir
                    0x20              main.o
_g_driver_timer_initialized
                    0x4               main.o
_blSavedSPT         0x8               main.o
_ClonedThread       0x8               main.o
_HostInfo           0x8               main.o
_ata_identify_dev_buf
                    0x8               main.o
___gpidSysLib       0x4               main.o
_blSavedLastValidAddress
                    0x8               main.o
_g_next_app         0x8               main.o
_timerList          0x100             main.o
_contextR11         0x8               x64cont.o
_g_boottime_ide_device
                    0x4               main.o
___gpidSysMK        0x4               main.o
_contextRDI         0x8               x64cont.o
_WindowServer_type  0x4               main.o
_g_useGUI           0x4               main.o
_PS2KeyboardDeviceTTYDriver
                    0x8               main.o
_contextCS          0x8               x64cont.o
_CurrentColorScheme
                    0x8               main.o
_LARGE_backbuffer_pa
                    0x8               main.o
_LARGE_heappool_pa  0x8               main.o
_next_quantum       0x8               main.o
_dev_nport          0x20              main.o
_stdio_terminalmode_flag
                    0x4               main.o
_MEDIUM_cga_pa      0x8               main.o
_framepoolSmallSystemUserSpace
                    0x8               main.o
_memorysizeTotalPhysicalMemory
                    0x8               main.o
_ata                0x18              main.o
_rootConductor      0x8               main.o
_gSystemStatus      0x4               main.o
_____network_late_flag
                    0x4               main.o
_videoStatus        0x4               video.o
_tab_status         0x8               main.o
_LARGE_kernel_base_pa
                    0x8               main.o
_Version            0x8               main.o
_REQUEST            0x58              main.o
_userenvironmentStatus
                    0x4               main.o
_shared_buffer_file_icon
                    0x8               main.o
_time_out           0x8               main.o
_current_file       0x4               main.o
_pagedirectoryKernelProcess
                    0x8               main.o
_VideoBlock         0x28              main.o
_System             0x8               main.o
_KernelSize         0x8               main.o
_shared_buffer_app_icon
                    0x8               main.o
_dispatcherReadyList
                    0x50              main.o
_ScreenInfo         0x8               main.o
_g_profiler_ints_irq0
                    0x8               main.o
_g8x8fontAddress    0x8               main.o
_KernelStackSize    0x8               main.o
_contextRBX         0x8               x64cont.o
_memorysizeInstalledPhysicalMemory
                    0x8               main.o
_memorysizeTotal    0x8               main.o
_pageAllocList      0x2000            main.o
_g_system_mode      0x4               main.o
_g_current_video_mode
                    0x8               main.o
_g_heap_count_max   0x4               main.o
_current_group      0x4               main.o
_BackBufferInfo     0x8               main.o
_conductorIndex     0x4               main.o
_g_mousepointer_y   0x8               main.o
_g_framepool_max    0x8               main.o
_task_waiting       0x8               main.o
_mm_used_user_area  0x8               main.o
___breaker_com4_initialized
                    0x4               main.o
_QUEUES             0x18              main.o
_volume_systempartition
                    0x8               main.o
_KernelStatus       0x8               main.o
_PS2MouseDeviceTTYDriver
                    0x8               main.o
_banksCount         0x4               main.o
_Pic                0x8               main.o
_g_profiler_ints_irq15
                    0x8               main.o
_shared_buffer_cursor_icon
                    0x8               main.o
_errno              0x8               main.o
_old                0x8               main.o
_MEDIUM_origin_pa   0x8               main.o
_g_heap_size        0x8               main.o
___gpidLogon        0x4               main.o
_gSystemEdition     0x4               main.o
_pagedirectoryList  0x2000            main.o
_framepoolMediumSystemUserSpace
                    0x8               main.o
_mm_used_lfb        0x8               main.o
_logoffStatus       0x4               main.o
_current_user       0x4               main.o
_active_thread      0x4               main.o
_framepoolKernelSpace
                    0x8               main.o
_memorysizeBaseMemory
                    0x8               main.o
_g_current_ide_device
                    0x4               main.o
_rooms_count        0x4               main.o
_key_status         0x8               main.o
_timerLock          0x4               pit.o
___breaker_ps2keyboard_initialized
                    0x4               main.o
_MEDIUM_extraheap3_pa
                    0x8               main.o
_PCIDeviceATA       0x8               main.o
_mmblockCount       0x8               main.o
_prompt_status      0x8               main.o
_framepoolLargeSystemUserSpace
                    0x8               main.o
_fg_console         0x4               vt.o
_g_platform_type    0x4               main.o
_g_kernel_paged_memory
                    0x8               main.o
_mmFramesSuperBlockStart
                    0x8               main.o
_current_mode       0x4               main.o
_contextES          0x8               x64cont.o
_rtc                0x8               main.o
_window_Conductor   0x8               main.o
_lastBank           0x4               main.o
_g_mm_system_type   0x4               main.o
_g_kernel_lfb       0x8               main.o
_LARGE_user_pa      0x8               main.o
_PciDrivers         0x8               main.o
_terminal_window    0x4               main.o
_contextRSI         0x8               x64cont.o
_CurrentScreen      0x8               main.o
_g_extraheap1_va    0x8               main.o
_notification_status
                    0x4               network.o
_g_profiler_ints_irq6
                    0x8               main.o
_ttyLineCounter     0x4               main.o
_g_char_attrib      0x8               main.o
_current_arch       0x4               main.o
_HumilityColorScheme
                    0x8               main.o
_memorysizeUsed     0x8               main.o
_window_mouse_over  0x4               main.o
_contextRAX         0x8               x64cont.o
_ctrl_status        0x8               main.o
_g_module_shell_initialized
                    0x4               main.o
_winkey_status      0x8               main.o
_FrontBufferInfo    0x8               main.o
_g_extraheap3_size  0x8               main.o
_g_current_list     0x4               main.o
_LARGE_extraheap3_pa
                    0x8               main.o
_savedmouseoverwindowX
                    0x8               main.o
_LARGE_extraheap2_pa
                    0x8               main.o
_g_module_mm_initialized
                    0x4               main.o
_contextSS          0x8               x64cont.o
_g_kernel_symbols_available
                    0x4               main.o
_volumeList         0x2000            main.o
_seconds            0x8               main.o
_WindowServer_initialized
                    0x4               main.o
_current_menu       0x4               main.o
_pmiCurrent         0x8               main.o
_g_profiler_ints_irq9
                    0x8               main.o
_Pci                0x8               main.o
_timerLine          0x8               pit.o
_mouse_buttom_2     0x4               main.o
_CurrentUser        0x8               main.o
_WindowServer_name  0x40              main.o

Memory Configuration

Name             Origin             Length             Attributes
*default*        0x0000000000000000 0xffffffffffffffff

Linker script and memory map

                0x0000000030001000                . = 0x30001000
                0x0000000030001000                _kernel_begin = .

.text           0x0000000030001000    0x25000
                0x0000000030001000                _code_begin = .
 *(.head_x86_64)
 .head_x86_64   0x0000000030001000     0x1e70 head_64.o
                0x00000000300010f1                _x84_64_initialize_machine
                0x0000000030001130                _idt
                0x0000000030002138                _IDT_register
                0x0000000030002220                _x64_clear_nt_flag
                0x0000000030002234                _gdt_flush
                0x00000000300022de                _setup_system_interrupt
                0x00000000300026ab                _asm_reboot
                0x00000000300026bb                _irq0
                0x000000003000280f                _irq1
                0x0000000030002860                _irq3
                0x00000000300028a2                _irq4
                0x00000000300028e4                _irq7
                0x0000000030002933                _irq8
                0x000000003000297b                _irq9
                0x00000000300029ca                _irq10
                0x0000000030002a19                _nic_handler
                0x0000000030002a58                _irq11
                0x0000000030002aa7                _irq12
                0x0000000030002aef                _irq13
                0x0000000030002b3e                _irq14
                0x0000000030002b8e                _irq15
                0x0000000030002c00                _fault_N0
                0x0000000030002c11                _fault_N1
                0x0000000030002c22                _fault_N2
                0x0000000030002c33                _fault_N3
                0x0000000030002c44                _fault_N4
                0x0000000030002c55                _fault_N5
                0x0000000030002c66                _fault_INTRUCAO_INVALIDA
                0x0000000030002c77                _fault_N7
                0x0000000030002c88                _fault_DOUBLE
                0x0000000030002c99                _fault_N9
                0x0000000030002caa                _fault_N10
                0x0000000030002cbb                _fault_N11
                0x0000000030002ccc                _fault_STACK
                0x0000000030002cdd                _fault_GP
                0x0000000030002cee                _fault_N14
                0x0000000030002cff                _fault_N15
                0x0000000030002d10                _fault_N16
                0x0000000030002d21                _fault_N17
                0x0000000030002d32                _fault_N18
                0x0000000030002d43                _fault_N19
                0x0000000030002d54                _fault_N20
                0x0000000030002d65                _fault_N21
                0x0000000030002d76                _fault_N22
                0x0000000030002d84                _fault_N23
                0x0000000030002d92                _fault_N24
                0x0000000030002da0                _fault_N25
                0x0000000030002dae                _fault_N26
                0x0000000030002dbc                _fault_N27
                0x0000000030002dca                _fault_N28
                0x0000000030002dd8                _fault_N29
                0x0000000030002de6                _fault_N30
                0x0000000030002df4                _fault_N31
                0x0000000030002e16                _save_fault_number
                0x0000000030002e21                _turn_task_switch_on
                0x0000000030002e43                _turn_task_switch_off
                0x0000000030002e66                _int128
 *(.text)
 .text          0x0000000030002e70      0x5a8 main.o
                0x0000000030002e70                _preinit_Globals
                0x0000000030002e7b                _preinit_Serial
                0x0000000030002eaf                _preinit_OutputSupport
                0x0000000030002ecf                _kernel_main
                0x00000000300033c9                _xxxxIRQ0_DEBUG_MESSAGE
                0x00000000300033da                _xxxxIRQ1_DEBUG_MESSAGE
                0x00000000300033ff                _xxxxINT128_DEBUG_MESSAGE
                0x0000000030003410                _early_ring0_IdleThread
 .text          0x0000000030003418      0x70c x64init.o
                0x0000000030003418                _x64init_load_pml4_table
                0x000000003000342a                ___x64StartInit
                0x00000000300035dd                _x64initStartFirstThread
                0x0000000030003860                _x64main
 .text          0x0000000030003b24        0x0 ctype.o
 .text          0x0000000030003b24     0x20ea kstdio.o
                0x0000000030003b24                _input
                0x0000000030003cce                _printchar
                0x0000000030003d11                _putchar
                0x0000000030003d33                _prints
                0x0000000030003e23                _printi
                0x0000000030003f4f                _print
                0x00000000300041e0                _printk_old
                0x000000003000425b                _kinguio_i2hex
                0x000000003000437a                _kinguio_itoa
                0x00000000300044e3                _kinguio_vsprintf
                0x00000000300048a6                _kinguio_puts
                0x00000000300048fd                _kinguio_printf
                0x00000000300049e3                _kputs
                0x0000000030004a07                _sprintf_old
                0x0000000030004a87                _mysprintf
                0x0000000030004b45                _k_ungetc
                0x0000000030004b8f                _k_ftell
                0x0000000030004bc5                _k_fileno
                0x0000000030004be9                _k_fgetc
                0x0000000030004c8e                _k_feof
                0x0000000030004cd2                _k_ferror
                0x0000000030004cf9                _k_fseek
                0x0000000030004ea1                _k_fputc
                0x0000000030004f37                _k_fscanf
                0x0000000030004f94                _k_rewind
                0x0000000030004fbb                _k_fclose
                0x00000000300050a3                _k_fputs
                0x0000000030005141                _k_setbuf
                0x0000000030005191                _k_setbuffer
                0x00000000300051ce                _k_setlinebuf
                0x00000000300051eb                _k_setvbuf
                0x0000000030005234                _regularfile_ioctl
                0x0000000030005258                _stdioInitialize
 .text          0x0000000030005c0e      0x126 stdlib.o
                0x0000000030005c0e                _rand
                0x0000000030005c2f                ___ptsname
                0x0000000030005cac                _kmalloc
                0x0000000030005d07                _kfree
 .text          0x0000000030005d34      0x75a string.o
                0x0000000030005d34                _strcmp
                0x0000000030005dad                _strncmp
                0x0000000030005e1f                _str_cmp
                0x0000000030005eb1                _memcpy
                0x0000000030005f08                _memcpy64
                0x0000000030005f60                _memcpy32
                0x0000000030005fb1                _strcpy
                0x0000000030005fef                _strncpy
                0x000000003000605b                _strcat
                0x000000003000609e                _bcopy
                0x00000000300060dc                _bzero
                0x0000000030006109                _strlen
                0x0000000030006137                _memset
                0x0000000030006187                _strcspn
                0x000000003000623d                _strspn
                0x00000000300062f5                _k_strtok_r
                0x0000000030006404                _k_strtok
                0x000000003000642e                _strdup
 .text          0x000000003000648e      0x1da unistd.o
                0x000000003000648e                ___gethostname
                0x00000000300064ea                ___sethostname
                0x0000000030006554                _fpathconf
                0x0000000030006575                _pathconf
                0x0000000030006597                _sys_lseek
 .text          0x0000000030006668       0xe9 runtime.o
                0x0000000030006668                _init_runtime
                0x00000000300066f7                _Runtime_initialize
 .text          0x0000000030006751      0x275 system.o
                0x0000000030006751                _a_soft_place_to_fall
                0x0000000030006759                _die
                0x0000000030006789                _system_get_pid
                0x00000000300067c7                _systemShutdownViaAPM
                0x00000000300067dd                _systemShutdown
                0x00000000300067fd                _systemShowDevicesInfo
                0x0000000030006809                _systemSetupVersion
                0x00000000300068fe                _systemReboot
                0x0000000030006952                _systemNull
                0x000000003000695d                _init_executive
 .text          0x00000000300069c6        0x0 signal.o
 .text          0x00000000300069c6      0x4d6 init.o
                0x00000000300069c6                _init_globals
                0x0000000030006ba7                _init
 .text          0x0000000030006e9c      0x221 debug.o
                0x0000000030006e9c                _debug_compute_checksum
                0x0000000030006eda                _debug_print
                0x0000000030006f42                _PROGRESS
                0x0000000030006f7e                _debug_check_inicialization
                0x0000000030007031                _debug_check_drivers
                0x000000003000704f                _debug
                0x00000000300070a2                _debug_breakpoint
 .text          0x00000000300070bd       0x64 info.o
                0x00000000300070bd                _info_get_boot_info
 .text          0x0000000030007121      0x186 ports64.o
                0x0000000030007121                _in8
                0x000000003000713b                _in16
                0x0000000030007159                _in32
                0x0000000030007175                _out8
                0x000000003000718c                _out16
                0x00000000300071a5                _out32
                0x00000000300071b9                ___x86_io_delay
                0x00000000300071c4                _wait_ns
                0x00000000300071f7                _portsx86_IN
                0x0000000030007248                _portsx86_OUT
 .text          0x00000000300072a7      0x5ef pit.o
                0x00000000300072a7                _irq0_TIMER
                0x00000000300072b3                _DeviceInterface_PIT
                0x00000000300072ba                _timerTimer
                0x0000000030007307                _timerInit8253
                0x0000000030007374                _set_timeout
                0x000000003000738a                _get_timeout
                0x0000000030007397                _set_quantum
                0x00000000300073ad                _get_quantum
                0x00000000300073ba                _set_current_quantum
                0x00000000300073d0                _get_current_quantum
                0x00000000300073dd                _set_next_quantum
                0x00000000300073f3                _get_next_quantum
                0x0000000030007400                _set_systime_hz
                0x0000000030007416                _get_systime_hz
                0x0000000030007423                _get_systime_ms
                0x0000000030007430                _get_systime_totalticks
                0x000000003000743d                _get_systime_info
                0x0000000030007476                _new_timer_id
                0x00000000300074c0                _timerEnableTextCursor
                0x00000000300074d1                _timerDisableTextCursor
                0x00000000300074e2                _now
                0x00000000300074ed                _sleep
                0x0000000030007529                _timerInit
                0x00000000300075dc                _early_timer_init
                0x000000003000768e                _create_timer
 .text          0x0000000030007896      0x3f6 rtc.o
                0x0000000030007896                _irq8_RTC
                0x00000000300078ac                _DeviceInterface_RTC
                0x00000000300078bd                _read_cmos_bcd
                0x000000003000794d                _get_date
                0x00000000300079a1                _get_time
                0x00000000300079f9                _rtcGetBaseMemory
                0x0000000030007a5e                _rtcGetExtendedMemory
                0x0000000030007ac3                _init_clock
                0x0000000030007b00                _get_cmos_info
 .text          0x0000000030007c8c      0xa23 x64.o
                0x0000000030007c8c                _x64_init_gdt
                0x0000000030007ebd                _set_gdt_entry
                0x00000000300080f3                _x64_load_ltr
                0x0000000030008106                _get_cpu_intel_parameters
                0x0000000030008647                _x64_init_fpu
                0x0000000030008650                _x64_disable_interrupts
                0x0000000030008658                _x64_enable_interrupts
                0x0000000030008660                _x64_iretq
                0x0000000030008669                _x64_iret
                0x0000000030008671                _x64_lret
                0x0000000030008679                _x64_cli_hlt
                0x0000000030008682                _x64_stop_cpu
                0x000000003000868e                _x64_enable_cache
                0x0000000030008695                _x64_init_intel
 .text          0x00000000300086af      0x27f x64info.o
                0x00000000300086af                _x64_info
                0x00000000300086bb                _show_cpu_intel_parameters
 .text          0x000000003000892e      0x16e hal.o
                0x000000003000892e                _hal_set_machine_type
                0x0000000030008944                _hal_get_machine_type
                0x0000000030008951                _hal_reboot
                0x0000000030008971                _hal_shutdown
                0x000000003000898c                _hal_vsync
                0x0000000030008998                _hal_speaker_on
                0x00000000300089d6                _hal_speaker_off
                0x0000000030008a01                _hal_test_speaker
                0x0000000030008a3d                _init_hal
                0x0000000030008a76                _hal_hardware_detect
                0x0000000030008a8b                _init_cpu
 .text          0x0000000030008a9c      0x2a2 detect.o
                0x0000000030008a9c                _detect_IsQEMU
                0x0000000030008b0b                _hal_probe_cpu
                0x0000000030008bea                _hal_probe_processor_type
                0x0000000030008ca1                _cpuHasMSR
                0x0000000030008cf0                _cpuGetMSR
                0x0000000030008d1d                _cpuSetMSR
 .text          0x0000000030008d3e      0x8a8 pci.o
                0x0000000030008d3e                _pciConfigReadByte
                0x0000000030008ddb                _pciConfigReadWord
                0x0000000030008e7b                _pciConfigReadDWord
                0x0000000030008f08                _pciGetBAR
                0x0000000030009016                _pciGetClassCode
                0x0000000030009043                _pciGetHeaderType
                0x0000000030009070                _pciGetInterruptLine
                0x000000003000909d                _pciGetInterruptPin
                0x00000000300090ca                _pciGetSubClass
                0x00000000300090f7                _pciCheckDevice
                0x0000000030009124                _pciCheckVendor
                0x0000000030009151                _init_pci
                0x0000000030009233                _irq_SHARED0
                0x000000003000923a                _irq_SHARED1
                0x0000000030009241                _irq_SHARED2
                0x0000000030009248                _irq_SHARED3
                0x000000003000924f                _pciHandleDevice
 .text          0x00000000300095e6      0x1c8 pciinfo.o
                0x00000000300095e6                _pciInfo
                0x000000003000970d                _pciShowDeviceInfo
 .text          0x00000000300097ae      0x1fe pciscan.o
                0x00000000300097ae                _pci_setup_devices
                0x00000000300098ac                _scan_pci_device_list
                0x000000003000992b                _scan_pci_device_list2
 .text          0x00000000300099ac      0x3be devmgr.o
                0x00000000300099ac                _devmgr_init_device_list
                0x00000000300099f1                _devmgr_show_device_list
                0x0000000030009aa8                _init_device_manager
                0x0000000030009abe                _devmgr_device_object
                0x0000000030009b94                _devmgr_register_device
 .text          0x0000000030009d6a     0x20ba console.o
                0x0000000030009d6a                ___local_ri
                0x0000000030009d71                ___local_gotoxy
                0x0000000030009e15                ___local_save_cur
                0x0000000030009e55                ___local_restore_cur
                0x0000000030009e9d                ___local_insert_line
                0x0000000030009f63                ___local_delete_line
                0x000000003000a01b                _csi_J
                0x000000003000a025                _csi_K
                0x000000003000a02f                _csi_m
                0x000000003000a0c0                _csi_M
                0x000000003000a0cd                _csi_L
                0x000000003000a0da                _console_interrupt
                0x000000003000a152                _console_init_virtual_console
                0x000000003000a584                _console_set_current_virtual_console
                0x000000003000a5b2                _console_get_current_virtual_console
                0x000000003000a5be                _jobcontrol_switch_console
                0x000000003000a5ed                _set_up_cursor
                0x000000003000a642                _get_cursor_x
                0x000000003000a660                _get_cursor_y
                0x000000003000a67e                _console_scroll
                0x000000003000a80c                _console_outbyte
                0x000000003000ad9e                __console_outbyte
                0x000000003000aefe                _console_putchar
                0x000000003000afc8                ___console_write
                0x000000003000b07e                _console_read
                0x000000003000b0a1                _console_write
                0x000000003000b924                ___respond
                0x000000003000b962                ___local_insert_char
                0x000000003000b987                ___local_delete_char
                0x000000003000b9ac                _csi_P
                0x000000003000ba36                _csi_at
                0x000000003000bac0                _VirtualConsole_initialize
                0x000000003000bb2a                _console_ioctl
                0x000000003000bc69                _REFRESH_STREAM
                0x000000003000bd8a                _kclear
                0x000000003000bdfb                _kclearClientArea
 .text          0x000000003000be24     0x104a tty.o
                0x000000003000be24                ___tty_read
                0x000000003000bf63                ___tty_write
                0x000000003000c137                _tty_read
                0x000000003000c233                _tty_write
                0x000000003000c32f                _tty_reset_termios
                0x000000003000c3e5                _tty_create
                0x000000003000c9b3                _file_tty
                0x000000003000c9d6                _tty_flush
                0x000000003000c9ef                _tty_start
                0x000000003000ca29                _tty_stop
                0x000000003000ca64                _tty_delete
                0x000000003000caa6                _tty_gets
                0x000000003000cb0c                _tty_sets
                0x000000003000cbad                _tty_init_module
                0x000000003000cbc2                _tty_ioctl
 .text          0x000000003000ce6e      0x23d video.o
                0x000000003000ce6e                _videoInit
                0x000000003000cf3a                _videoVideo
                0x000000003000cf59                _Video_initialize
                0x000000003000cf8c                _videoGetMode
                0x000000003000cf99                _videoSetMode
                0x000000003000d095                _videoSetupCGAStartAddress
 .text          0x000000003000d0ab       0xb9 vsync.o
                0x000000003000d0ab                _vsync
                0x000000003000d13e                _vsync_inb
 .text          0x000000003000d164      0x208 screen.o
                0x000000003000d164                _screenGetWidth
                0x000000003000d171                _screenGetHeight
                0x000000003000d17e                _screenSetSize
                0x000000003000d1a3                _refresh_screen
                0x000000003000d270                _screenInit
 .text          0x000000003000d36c      0x313 serial.o
                0x000000003000d36c                _serial1_handler
                0x000000003000d37d                _serial2_handler
                0x000000003000d38e                _serial3_handler
                0x000000003000d39f                _serial4_handler
                0x000000003000d3b0                _serial_in
                0x000000003000d3d2                _serial_out
                0x000000003000d3ff                _serial_init_port
                0x000000003000d4cb                _serial_init
                0x000000003000d549                _serial_read_char
                0x000000003000d578                _serial_write_char
                0x000000003000d5b6                _serial_print
                0x000000003000d60a                _debug_print_string
                0x000000003000d65b                _serial_ioctl
 .text          0x000000003000d67f      0xa95 storage.o
                0x000000003000d67f                _disk_init
                0x000000003000d838                _diskShowDiskInfo
                0x000000003000d94d                _diskShowCurrentDiskInfo
                0x000000003000d984                _disk_show_info
                0x000000003000dafd                _disk_get_disk_handle
                0x000000003000db29                _volume_init
                0x000000003000df06                _volumeShowVolumeInfo
                0x000000003000e07a                _volume_show_info
                0x000000003000e0bd                _volume_get_volume_handle
                0x000000003000e0e9                _volume_get_current_volume_info
 .text          0x000000003000e114     0x1732 ata.o
                0x000000003000e114                _ata_wait
                0x000000003000e157                _ata_delay
                0x000000003000e181                ___local_io_delay
                0x000000003000e18c                _ata_status_read
                0x000000003000e1a2                _ata_cmd_write
                0x000000003000e1d7                _ata_soft_reset
                0x000000003000e225                _ata_wait_drq
                0x000000003000e257                _ata_wait_no_drq
                0x000000003000e289                _ata_wait_busy
                0x000000003000e2b5                _ata_wait_not_busy
                0x000000003000e2e1                _set_ata_addr
                0x000000003000e34d                _ata_assert_dever
                0x000000003000e3ee                _ata_pio_read
                0x000000003000e41b                _ata_pio_write
                0x000000003000e448                _ata_get_current_ide_channel
                0x000000003000e454                _ata_get_current_ide_device
                0x000000003000e460                _ata_set_current_ide_channel
                0x000000003000e473                _ata_set_current_ide_device
                0x000000003000e486                _ata_get_boottime_ide_channel
                0x000000003000e492                _ata_get_boottime_ide_device
                0x000000003000e49e                _ata_set_boottime_ide_channel
                0x000000003000e4b1                _ata_set_boottime_ide_device
                0x000000003000e4c4                _ata_ioctl
                0x000000003000e4e8                _ata_initialize
                0x000000003000e924                _ide_identify_device
                0x000000003000f0ca                _ide_dev_init
                0x000000003000f58e                _ide_mass_storage_initialize
                0x000000003000f6e4                _nport_ajuste
                0x000000003000f73e                _show_ide_info
 .text          0x000000003000f846      0x192 atadma.o
                0x000000003000f846                _ide_dma_start
                0x000000003000f87a                _ide_dma_stop
                0x000000003000f8df                _ide_dma_read_status
                0x000000003000f8f8                _ide_dma_data
 .text          0x000000003000f9d8      0x4c1 atahdd.o
                0x000000003000f9d8                _hdd_ata_status_read
                0x000000003000fa19                _hdd_ata_wait_not_busy
                0x000000003000fa56                _hdd_ata_cmd_write
                0x000000003000fab9                _hdd_ata_wait_no_drq
                0x000000003000fb3b                _hdd_ata_pio_write
                0x000000003000fb7a                _pio_rw_sector
                0x000000003000fdfe                _my_read_hd_sector
                0x000000003000fe41                _my_write_hd_sector
                0x000000003000fe84                _init_hdd
 .text          0x000000003000fe99       0x62 atainit.o
                0x000000003000fe99                _ataDialog
 .text          0x000000003000fefb      0x1a4 atairq.o
                0x000000003000fefb                _DeviceInterface_PrimaryIDE
                0x000000003000ff2b                _DeviceInterface_SecondaryIDE
                0x000000003000ff5b                _irq14_PRIMARY_IDE
                0x000000003000ff6c                _irq15_SECONDARY_IDE
                0x000000003000ff7d                _disk_get_ata_irq_invoked
                0x000000003000ff8a                _disk_reset_ata_irq_invoked
                0x000000003000ff9c                _ata_wait_irq
                0x000000003001001b                _disk_ata_wait_irq
 .text          0x000000003001009f      0xb43 atapci.o
                0x000000003001009f                _diskReadPCIConfigAddr
                0x0000000030010101                _diskWritePCIConfigAddr
                0x000000003001016d                _diskPCIScanDevice
                0x000000003001029b                _diskATAPCIConfigurationSpace
 .text          0x0000000030010be2      0x5a1 i8042.o
                0x0000000030010be2                _I8042Controller_do_drain
                0x0000000030010c15                _kbdc_wait
                0x0000000030010c68                _prepare_for_input
                0x0000000030010c79                _prepare_for_output
                0x0000000030010c8a                _wait_then_read
                0x0000000030010ca6                _wait_then_write
                0x0000000030010cce                _PS2_initialize
                0x0000000030010ce3                _PS2_early_initialization
                0x0000000030010cf8                _ps2_ioctl
                0x0000000030010d1c                _ps2
                0x0000000030011048                _early_ps2_init
 .text          0x0000000030011183      0x4e3 ps2kbd.o
                0x0000000030011183                _ps2kbd_initialize_device
                0x0000000030011194                _DeviceInterface_PS2Keyboard
                0x00000000300113ae                _ldisc_init_modifier_keys
                0x00000000300113e1                _ldisc_init_lock_keys
                0x0000000030011409                _keyboardDisable
                0x0000000030011434                _keyboardEnable
                0x000000003001145f                _keyboard_set_leds
                0x00000000300114cf                _keyboardGetKeyState
                0x00000000300115d2                _get_alt_status
                0x00000000300115df                _get_ctrl_status
                0x00000000300115ec                _get_shift_status
                0x00000000300115f9                _xxx_keyboard_read
                0x000000003001162d                _xxx_keyboard_write
 .text          0x0000000030011666       0x11 ps2mouse.o
                0x0000000030011666                _ps2mouse_initialize_device
 .text          0x0000000030011677       0x4a keyboard.o
                0x0000000030011677                _irq1_KEYBOARD
 .text          0x00000000300116c1        0x7 mouse.o
                0x00000000300116c1                _irq12_MOUSE
 .text          0x00000000300116c8      0x105 font.o
                0x00000000300116c8                _gwsGetCurrentFontCharWidth
                0x00000000300116d3                _gwsSetCurrentFontCharWidth
                0x00000000300116eb                _gwsGetCurrentFontCharHeight
                0x00000000300116f6                _gwsSetCurrentFontCharHeight
                0x000000003001170e                _gwsGetCurrentFontAddress
                0x000000003001171b                _gwsSetCurrentFontAddress
                0x0000000030011731                _gwsInstallFont
 .text          0x00000000300117cd     0x395a fs.o
                0x00000000300117cd                _get_free_slots_in_the_file_table
                0x0000000030011830                _get_free_slots_in_the_inode_table
                0x0000000030011893                _from_FAT_name
                0x0000000030011a4b                _to_FAT_name
                0x0000000030011ba1                _get_filesystem_type
                0x0000000030011bad                _set_filesystem_type
                0x0000000030011bc0                _fs_count_path_levels
                0x0000000030011c3d                _get_file
                0x0000000030011c60                _set_file
                0x0000000030011c91                _fsInit
                0x0000000030012113                _init_directory_facilities
                0x0000000030012209                _fat16Init
                0x0000000030012250                _fs_init_structures
                0x00000000300123e3                _fs_init_fat
                0x00000000300124a1                _file_close
                0x00000000300124be                _file_get_len
                0x00000000300124e9                _file_inode
                0x000000003001250c                _file_truncate
                0x0000000030012547                _fsCheckELFFile
                0x00000000300125be                _fsFAT16ListFiles
                0x00000000300126f9                _fsInitializeWorkingDiretoryString
                0x0000000030012899                _fsInitTargetDir
                0x000000003001296f                _fsList
                0x0000000030012ab8                _fsListFiles
                0x0000000030012b44                _fsRootDirGetFileSize
                0x0000000030012d4e                _fsLoadFile
                0x000000003001325e                _fsLoadFile2
                0x0000000030013305                _fsLoadFileFromCurrentTargetDir
                0x00000000300133f7                _fsUpdateWorkingDiretoryString
                0x0000000030013590                _fs_fat16_cache_not_saved
                0x00000000300135a1                _fs_fntos
                0x0000000030013747                _fs_get_free_fd_from_pid
                0x00000000300137fe                _fs_initialize_process_cwd
                0x00000000300138f5                _fs_load_path
                0x0000000030013d45                _fs_pathname_backup
                0x0000000030013eba                _fs_print_process_cwd
                0x0000000030013fbd                _fs_show_file_info
                0x0000000030014011                _fs_show_file_table
                0x000000003001406e                _fs_show_inode_info
                0x00000000300140c2                _fs_show_inode_table
                0x0000000030014137                _fs_show_root_fs_info
                0x0000000030014269                _sys_pwd
                0x0000000030014296                _fsSaveFile
                0x00000000300147f0                _sys_write_file_to_disk
                0x000000003001489a                _sys_read_file_from_disk
                0x0000000030014e97                _sys_create_empty_file
                0x0000000030014f71                _sys_create_empty_directory
                0x000000003001504b                _set_global_open_file
                0x000000003001507c                _get_global_open_file
                0x000000003001509f                _sys_cd_command
 .text          0x0000000030015127      0x222 network.o
                0x0000000030015127                _network_buffer_in
                0x000000003001521a                _network_buffer_out
                0x0000000030015307                _networkSetstatus
                0x0000000030015328                _networkGetStatus
                0x0000000030015334                _networkInit
 .text          0x0000000030015349     0x2452 socket.o
                0x0000000030015349                _create_socket_object
                0x0000000030015470                _getSocketIP
                0x0000000030015490                _getSocketPort
                0x00000000300154b3                _get_socket_from_fd
                0x0000000030015521                _is_socket
                0x0000000030015550                _is_virtual_console
                0x000000003001557f                _show_socket_for_a_process
                0x00000000300156ae                _socket_gramado
                0x0000000030015a3a                _socket_inet
                0x0000000030015daf                _socket_init
                0x0000000030015de5                _socket_ioctl
                0x0000000030015f4f                _socket_read
                0x0000000030015f72                _socket_write
                0x0000000030015f95                _socket_set_gramado_port
                0x0000000030015fed                _socket_unix
                0x000000003001636c                _sys_accept
                0x00000000300165ed                _sys_bind
                0x0000000030016845                _sys_connect
                0x0000000030016e70                _sys_getsockname
                0x000000003001702d                _sys_listen
                0x0000000030017204                _sys_socket_shutdown
                0x0000000030017357                _update_socket
                0x0000000030017396                _sys_socket
                0x0000000030017643                _sock_socketpair
                0x00000000300176f9                _socket_dialog
 .text          0x000000003001779b      0xa1e pipe.o
                0x000000003001779b                _sys_dup
                0x000000003001798d                _sys_dup2
                0x0000000030017b07                _sys_dup3
                0x0000000030017c84                _sys_pipe
                0x000000003001812d                _sys_read_pipe
                0x0000000030018150                _sys_write_pipe
                0x0000000030018173                _pipe_ioctl
 .text          0x00000000300181b9      0x4b0 search.o
                0x00000000300181b9                _search_in_dir
                0x0000000030018408                _search_in_root
                0x000000003001845b                _fs_find_n_empty_entries
                0x00000000300184de                _findEmptyDirectoryEntry
                0x000000003001854b                _fsSearchFile
                0x000000003001856f                _fs_find_empty_entry
                0x000000003001858c                _search_path_in_the_inode_table
 .text          0x0000000030018669      0x2be disk_r.o
                0x0000000030018669                ___load_sequential_sectors
                0x00000000300186e8                _fatClustToSect
                0x000000003001871c                _read_lba
                0x0000000030018784                _fatLoadCluster
                0x00000000300187de                _fs_load_fat
                0x0000000030018864                _fs_load_metafile
                0x00000000300188c1                _fs_load_rootdir
 .text          0x0000000030018927      0x2b2 disk_w.o
                0x0000000030018927                _write_lba
                0x00000000300189b7                _fatWriteCluster
                0x0000000030018a23                _fs_save_fat
                0x0000000030018b0d                _fs_save_rootdir
 .text          0x0000000030018bd9      0xd5d sys.o
                0x0000000030018bd9                _file_read_buffer
                0x0000000030018de0                _file_write_buffer
                0x00000000300190f2                _sys_close
                0x00000000300193c5                _sys_exit_thread
                0x00000000300193e5                _sys_fcntl
                0x000000003001951f                _sys_get_file_size
                0x000000003001957d                _sys_get_file_sync
                0x0000000030019674                _sys_getpid
                0x0000000030019680                _sys_getppid
                0x00000000300196f6                _sys_initialize_component
                0x0000000030019729                _sys_open
                0x0000000030019786                _sys_reboot
                0x00000000300197e7                _sys_serial_debug_printk
                0x0000000030019806                _sys_set_file_sync
                0x00000000300198e6                _sys_show_system_info
                0x000000003001992a                _sys_vsync
 .text          0x0000000030019936      0x1b5 io.o
                0x0000000030019936                _ioInit
                0x0000000030019954                _io_ioctl
 .text          0x0000000030019aeb       0xf6 ws.o
                0x0000000030019aeb                _ws_init
                0x0000000030019b41                _ws_ioctl
                0x0000000030019b65                _ws_show_info
 .text          0x0000000030019be1      0x117 pixel.o
                0x0000000030019be1                _backbuffer_putpixel
 .text          0x0000000030019cf8       0x8f bg.o
                0x0000000030019cf8                _backgroundDraw
                0x0000000030019d63                _Background_initialize
 .text          0x0000000030019d87      0x32d char.o
                0x0000000030019d87                _set_char_width
                0x0000000030019d9a                _set_char_height
                0x0000000030019dad                _get_char_width
                0x0000000030019db9                _get_char_height
                0x0000000030019dc5                _d_draw_char
                0x0000000030019f34                _d_drawchar_transparent
 .text          0x000000003001a0b4      0x118 dtext.o
                0x000000003001a0b4                _draw_string
                0x000000003001a139                _x_panic
                0x000000003001a1c1                _xxxDrawString
 .text          0x000000003001a1cc       0x4e line.o
                0x000000003001a1cc                _my_buffer_horizontal_line
 .text          0x000000003001a21a      0x779 rect.o
                0x000000003001a21a                _drawDataRectangle
                0x000000003001a3ed                _refresh_rectangle
                0x000000003001a5dd                _refresh_rectangle2
                0x000000003001a77f                _scroll_screen_rect
                0x000000003001a91a                _rectStrCopyMemory32
 .text          0x000000003001a993      0x12e kgws.o
                0x000000003001a993                _kgws_enable
                0x000000003001a9cc                _kgws_disable
                0x000000003001aa05                _KGWS_initialize
                0x000000003001aa1a                _kgwsRegisterWindowServer
                0x000000003001aa6b                _register_ws_process
 .text          0x000000003001aac1       0x15 kgwm.o
                0x000000003001aac1                _init_gramado
 .text          0x000000003001aad6        0x0 vt.o
 .text          0x000000003001aad6        0x0 desktop.o
 .text          0x000000003001aad6        0x0 room.o
 .text          0x000000003001aad6        0x0 usession.o
 .text          0x000000003001aad6       0xd7 logon.o
                0x000000003001aad6                _init_logon_manager
 .text          0x000000003001abad       0x64 logoff.o
                0x000000003001abad                _init_logoff
                0x000000003001abbb                _register_logoff_process
 .text          0x000000003001ac11      0x2f8 userenv.o
                0x000000003001ac11                _GetCurrentGroupId
                0x000000003001ac1d                _GetCurrentUserId
                0x000000003001ac29                _SetCurrentUserId
                0x000000003001ac5c                _is_superuser
                0x000000003001ac87                ___getusername
                0x000000003001acfe                ___setusername
                0x000000003001ad83                _CreateUser
 .text          0x000000003001af09      0x64b ts.o
                0x000000003001af09                _task_switch
                0x000000003001b48a                _psTaskSwitch
                0x000000003001b4fc                _get_task_status
                0x000000003001b509                _set_task_status
                0x000000003001b51f                _taskswitch_lock
                0x000000003001b531                _taskswitch_unlock
                0x000000003001b543                _tsCallExtraRoutines
 .text          0x000000003001b554      0x20c dispatch.o
                0x000000003001b554                _IncrementDispatcherCount
                0x000000003001b647                _dispatcher
 .text          0x000000003001b760       0x67 spawn.o
                0x000000003001b760                _spawn_thread
                0x000000003001b778                _KiSpawnThread
 .text          0x000000003001b7c7      0x842 x64cont.o
                0x000000003001b7c7                _save_current_context
                0x000000003001bb80                _restore_current_context
                0x000000003001bf50                _contextCheckThreadRing3Context
 .text          0x000000003001c009      0x240 x64fault.o
                0x000000003001c009                _faults
 .text          0x000000003001c249      0x250 sched.o
                0x000000003001c249                _scheduler
                0x000000003001c452                _scheduler_lock
                0x000000003001c464                _scheduler_unlock
                0x000000003001c476                _scheduler_get_status
                0x000000003001c483                _init_scheduler
 .text          0x000000003001c499      0x806 schedi.o
                0x000000003001c499                _KiScheduler
                0x000000003001c528                _do_thread_blocked
                0x000000003001c566                _do_thread_dead
                0x000000003001c5a4                _do_thread_initialized
                0x000000003001c5e2                _do_thread_ready
                0x000000003001c620                _do_thread_running
                0x000000003001c678                _do_thread_standby
                0x000000003001c6b6                _do_thread_waiting
                0x000000003001c6f4                _do_thread_zombie
                0x000000003001c73b                _do_waitpid
                0x000000003001c7f0                _get_current
                0x000000003001c7fc                _set_current
                0x000000003001c82e                _wait_for_a_reason
                0x000000003001c924                _wakeup_thread_reason
                0x000000003001cac2                _wakeup_scan_thread_reason
                0x000000003001cb43                _wakeup_thread
                0x000000003001cba9                _yield
                0x000000003001cc01                _check_for_standby
 .text          0x000000003001cc9f     0x1b27 process.o
                0x000000003001cc9f                ___GetProcessStats
                0x000000003001d010                _getprocessname
                0x000000003001d0b8                _processObject
                0x000000003001d0ea                _getNewPID
                0x000000003001d136                _processTesting
                0x000000003001d184                _processSendSignal
                0x000000003001d1c2                _init_processes
                0x000000003001d223                _CloseAllProcesses
                0x000000003001d2c3                _show_currentprocess_info
                0x000000003001d3e9                _show_process_information
                0x000000003001d581                _create_process
                0x000000003001dcce                _GetProcessPML4_PA
                0x000000003001dcf1                _GetProcessPML4_VA
                0x000000003001dd14                _GetProcessHeapStart
                0x000000003001dd74                _SetProcessPML4_VA
                0x000000003001dd99                _SetProcessPML4_PA
                0x000000003001ddbe                _get_caller_process_id
                0x000000003001ddca                _set_caller_process_id
                0x000000003001dddd                _init_process_manager
                0x000000003001ddfc                _processCopyMemory
                0x000000003001df72                _processCopyProcess
                0x000000003001e5fa                _process_close_gate
                0x000000003001e668                _process_open_gate
                0x000000003001e6d5                _process_get_file_from_pid
                0x000000003001e71f                _process_get_file
                0x000000003001e74b                _process_get_tty
 .text          0x000000003001e7c6     0x17d4 thread.o
                0x000000003001e7c6                ___GetThreadStats
                0x000000003001eabf                _getthreadname
                0x000000003001eb46                _FindReadyThread
                0x000000003001ebac                _GetThreadState
                0x000000003001ebcb                _GetThreadType
                0x000000003001ebea                _init_threads
                0x000000003001ec85                _GetCurrentThreadId
                0x000000003001ec91                _GetCurrentThread
                0x000000003001ecdb                _SelectForExecution
                0x000000003001ed22                _thread_show_profiler_info
                0x000000003001edd7                _thread_get_profiler_percentage
                0x000000003001ee06                _show_thread_information
                0x000000003001ef0c                _thread_profiler
                0x000000003001f0e9                _create_thread
                0x000000003001f822                _exit_thread
                0x000000003001f97e                _exit_current_thread
                0x000000003001f992                _threadCopyThread
                0x000000003001ff85                _thread_getchar
 .text          0x000000003001ff9a      0x7c9 threadi.o
                0x000000003001ff9a                _show_slot
                0x00000000300200c0                _show_slots
                0x0000000030020137                _show_reg
                0x0000000030020283                _set_thread_priority
                0x000000003002038f                _threadi_power
                0x00000000300203eb                _release
                0x000000003002043d                _SetThread_PML4PA
                0x0000000030020464                _check_for_dead_thread_collector
                0x0000000030020483                _dead_thread_collector
                0x00000000300205b8                _kill_thread
                0x0000000030020734                _kill_all_threads
 .text          0x0000000030020763      0xc3d create.o
                0x0000000030020763                _create_CreateEarlyRing0IdleThread
                0x0000000030020d8a                _create_CreateRing3InitThread
 .text          0x00000000300213a0     0x135c queue.o
                0x00000000300213a0                _init_queue
                0x0000000030021870                _queue_insert_data
                0x0000000030021dd0                _queue_get_data
                0x0000000030022174                _queue_insert_head
                0x000000003002238b                _ScanReadyQueue
                0x000000003002245f                _feed_ready_queue
                0x000000003002265b                _show_queue_information
 .text          0x00000000300226fc      0x320 mk.o
                0x00000000300226fc                _init_microkernel
                0x0000000030022815                _jobcheck
                0x00000000300228f1                _jobcontrol
 .text          0x0000000030022a1c      0x674 memory.o
                0x0000000030022a1c                _init_heap
                0x0000000030022b48                _init_stack
                0x0000000030022ba5                _kernel_gc
                0x0000000030022bb0                _memory_create_new_head
                0x0000000030022bc3                _memory_destroy_heap
                0x0000000030022bce                _mmInit
                0x0000000030022c6d                _heapAllocateMemory
                0x0000000030022ebd                _FreeHeap
                0x0000000030022fcc                _get_process_heap_pointer
 .text          0x0000000030023090      0x905 mminfo.o
                0x0000000030023090                _mmShow_PML4Entry
                0x00000000300230b4                _memoryShowMemoryInfo
                0x000000003002380f                _mmShowPML4EntryForAllProcesses
                0x000000003002386d                _showFreepagedMemory
                0x00000000300238f4                _show_memory_structs
                0x000000003002398e                _testingPageAlloc
 .text          0x0000000030023995      0x5d7 mmpool.o
                0x0000000030023995                _page
                0x0000000030023a5e                _newPage
                0x0000000030023bc6                _mm_alloc_single_page
                0x0000000030023bd1                _mm_alloc_contig_pages
                0x0000000030023c02                _firstSlotForAList
                0x0000000030023c76                _allocPages
                0x0000000030023ec1                _initializeFramesAlloc
 .text          0x0000000030023f6c      0xe9b pages.o
                0x0000000030023f6c                _get_new_frame
                0x0000000030024003                _get_table_pointer
                0x000000003002404c                _CloneKernelPML4
                0x00000000300240db                _clone_pml4
                0x0000000030024181                _initialize_frame_table
                0x000000003002427d                _pEmpty
                0x0000000030024292                _freePage
                0x00000000300242cb                _notfreePage
                0x0000000030024304                _virtual_to_physical
                0x0000000030024329                _virtual_to_physical2
                0x0000000030024501                _pages_calc_mem
                0x00000000300246ec                _load_pml4_table
                0x00000000300246fe                _enable_pae
                0x000000003002470e                _page_enable
                0x0000000030024720                _mmSetUpPaging
 .text          0x0000000030024e07       0x90 panic.o
                0x0000000030024e07                _panic
 .text          0x0000000030024e97        0x0 reboot.o
 .text          0x0000000030024e97      0x3f3 request.o
                0x0000000030024e97                _clear_request
                0x0000000030024f33                _create_request
                0x0000000030025021                _request
 .text          0x000000003002528a        0x0 sci.o
                0x0000000030026000                . = ALIGN (0x1000)
 *fill*         0x000000003002528a      0xd76 
                0x0000000030026000                _code_end = .

.iplt           0x0000000030026000        0x0
 .iplt          0x0000000030026000        0x0 head_64.o

.rodata         0x0000000030026000     0xd000
                0x0000000030026000                _rodata_begin = .
 *(.rdata)
 *(.rodata)
 .rodata        0x0000000030026000      0x39b main.o
 *fill*         0x000000003002639b        0x5 
 .rodata        0x00000000300263a0      0x52c x64init.o
 *fill*         0x00000000300268cc       0x14 
 .rodata        0x00000000300268e0      0x120 ctype.o
                0x0000000030026900                __ctype
 .rodata        0x0000000030026a00      0x425 kstdio.o
 .rodata        0x0000000030026e25       0x3b stdlib.o
 .rodata        0x0000000030026e60       0x11 string.o
 *fill*         0x0000000030026e71        0x7 
 .rodata        0x0000000030026e78       0xb2 unistd.o
 *fill*         0x0000000030026f2a        0x6 
 .rodata        0x0000000030026f30      0x1c3 runtime.o
 *fill*         0x00000000300270f3        0x5 
 .rodata        0x00000000300270f8      0x140 system.o
 .rodata        0x0000000030027238       0x11 signal.o
 *fill*         0x0000000030027249        0x7 
 .rodata        0x0000000030027250      0x39f init.o
 *fill*         0x00000000300275ef        0x1 
 .rodata        0x00000000300275f0      0x141 debug.o
 *fill*         0x0000000030027731        0x7 
 .rodata        0x0000000030027738       0x68 info.o
 .rodata        0x00000000300277a0       0x11 ports64.o
 .rodata        0x00000000300277b1       0xfc pit.o
 .rodata        0x00000000300278ad       0x93 rtc.o
 .rodata        0x0000000030027940       0xde x64.o
 *fill*         0x0000000030027a1e        0x2 
 .rodata        0x0000000030027a20      0x300 x64info.o
 .rodata        0x0000000030027d20       0x82 hal.o
 *fill*         0x0000000030027da2        0x6 
 .rodata        0x0000000030027da8       0xb8 detect.o
                0x0000000030027e58                _CPUID_FLAG_MSR
 .rodata        0x0000000030027e60      0x5b5 pci.o
 *fill*         0x0000000030028415        0x3 
 .rodata        0x0000000030028418      0x261 pciinfo.o
 .rodata        0x0000000030028679       0x4b pciscan.o
 *fill*         0x00000000300286c4        0x4 
 .rodata        0x00000000300286c8      0x28b devmgr.o
 *fill*         0x0000000030028953        0x5 
 .rodata        0x0000000030028958      0x864 console.o
 *fill*         0x00000000300291bc        0x4 
 .rodata        0x00000000300291c0      0x626 tty.o
 *fill*         0x00000000300297e6        0x2 
 .rodata        0x00000000300297e8       0x98 video.o
 .rodata        0x0000000030029880       0x11 vsync.o
 *fill*         0x0000000030029891        0x7 
 .rodata        0x0000000030029898       0xb9 screen.o
 .rodata        0x0000000030029951       0x6f serial.o
 .rodata        0x00000000300299c0      0x268 storage.o
 .rodata        0x0000000030029c28      0x42e ata.o
 .rodata        0x000000003002a056       0x11 atadma.o
 *fill*         0x000000003002a067        0x1 
 .rodata        0x000000003002a068       0xb1 atahdd.o
 .rodata        0x000000003002a119       0x40 atainit.o
 .rodata        0x000000003002a159       0x3b atairq.o
 *fill*         0x000000003002a194        0x4 
 .rodata        0x000000003002a198      0x359 atapci.o
 *fill*         0x000000003002a4f1        0x7 
 .rodata        0x000000003002a4f8      0x170 i8042.o
 .rodata        0x000000003002a668      0x10d ps2kbd.o
 *fill*         0x000000003002a775        0x3 
 .rodata        0x000000003002a778       0x3c ps2mouse.o
 .rodata        0x000000003002a7b4       0x28 keyboard.o
 .rodata        0x000000003002a7dc       0x11 mouse.o
 .rodata        0x000000003002a7ed       0x47 font.o
 *fill*         0x000000003002a834        0x4 
 .rodata        0x000000003002a838     0x1d6d fs.o
 *fill*         0x000000003002c5a5        0x3 
 .rodata        0x000000003002c5a8      0x139 network.o
 *fill*         0x000000003002c6e1        0x7 
 .rodata        0x000000003002c6e8     0x12d9 socket.o
 *fill*         0x000000003002d9c1        0x7 
 .rodata        0x000000003002d9c8      0x12a pipe.o
 *fill*         0x000000003002daf2        0x6 
 .rodata        0x000000003002daf8      0x297 search.o
 *fill*         0x000000003002dd8f        0x1 
 .rodata        0x000000003002dd90      0x162 disk_r.o
 *fill*         0x000000003002def2        0x6 
 .rodata        0x000000003002def8      0x120 disk_w.o
 .rodata        0x000000003002e018      0x848 sys.o
 .rodata        0x000000003002e860      0x149 io.o
 .rodata        0x000000003002e9a9       0x87 ws.o
 .rodata        0x000000003002ea30       0x37 pixel.o
 .rodata        0x000000003002ea67       0x4b bg.o
 *fill*         0x000000003002eab2        0x6 
 .rodata        0x000000003002eab8       0x4f char.o
 .rodata        0x000000003002eb07       0x36 dtext.o
 .rodata        0x000000003002eb3d       0x11 line.o
 *fill*         0x000000003002eb4e        0x2 
 .rodata        0x000000003002eb50       0xae rect.o
 *fill*         0x000000003002ebfe        0x2 
 .rodata        0x000000003002ec00       0xd8 kgws.o
 .rodata        0x000000003002ecd8       0x2b kgwm.o
 .rodata        0x000000003002ed03       0x11 vt.o
 .rodata        0x000000003002ed14       0x11 desktop.o
 .rodata        0x000000003002ed25       0x11 room.o
 .rodata        0x000000003002ed36       0x11 usession.o
 *fill*         0x000000003002ed47        0x1 
 .rodata        0x000000003002ed48       0xf4 logon.o
 *fill*         0x000000003002ee3c        0x4 
 .rodata        0x000000003002ee40       0x55 logoff.o
 *fill*         0x000000003002ee95        0x3 
 .rodata        0x000000003002ee98      0x149 userenv.o
 *fill*         0x000000003002efe1        0x7 
 .rodata        0x000000003002efe8      0x2b7 ts.o
 *fill*         0x000000003002f29f        0x1 
 .rodata        0x000000003002f2a0      0x1f0 dispatch.o
 .rodata        0x000000003002f490       0x4e spawn.o
 *fill*         0x000000003002f4de        0x2 
 .rodata        0x000000003002f4e0      0x1a7 x64cont.o
 *fill*         0x000000003002f687        0x1 
 .rodata        0x000000003002f688      0x2c8 x64fault.o
 .rodata        0x000000003002f950      0x100 sched.o
 .rodata        0x000000003002fa50      0x263 schedi.o
 *fill*         0x000000003002fcb3        0x5 
 .rodata        0x000000003002fcb8      0xae0 process.o
 .rodata        0x0000000030030798      0x6a5 thread.o
 *fill*         0x0000000030030e3d        0x3 
 .rodata        0x0000000030030e40      0x380 threadi.o
 .rodata        0x00000000300311c0      0x264 create.o
 *fill*         0x0000000030031424        0x4 
 .rodata        0x0000000030031428      0x235 queue.o
 *fill*         0x000000003003165d        0x3 
 .rodata        0x0000000030031660       0x99 mk.o
 *fill*         0x00000000300316f9        0x7 
 .rodata        0x0000000030031700      0x37d memory.o
 *fill*         0x0000000030031a7d        0x3 
 .rodata        0x0000000030031a80      0x53b mminfo.o
 *fill*         0x0000000030031fbb        0x5 
 .rodata        0x0000000030031fc0      0x1c6 mmpool.o
 *fill*         0x0000000030032186        0x2 
 .rodata        0x0000000030032188      0x315 pages.o
 .rodata        0x000000003003249d       0x26 panic.o
 .rodata        0x00000000300324c3       0x11 reboot.o
 *fill*         0x00000000300324d4        0x4 
 .rodata        0x00000000300324d8      0x290 request.o
 .rodata        0x0000000030032768       0x11 sci.o
                0x0000000030033000                . = ALIGN (0x1000)
 *fill*         0x0000000030032779      0x887 
                0x0000000030033000                _rodata_end = .

.eh_frame       0x0000000030033000     0x5710
 .eh_frame      0x0000000030033000      0x118 main.o
 .eh_frame      0x0000000030033118       0x80 x64init.o
                                         0x98 (size before relaxing)
 .eh_frame      0x0000000030033198      0x468 kstdio.o
                                        0x480 (size before relaxing)
 .eh_frame      0x0000000030033600       0x80 stdlib.o
                                         0x98 (size before relaxing)
 .eh_frame      0x0000000030033680      0x268 string.o
                                        0x280 (size before relaxing)
 .eh_frame      0x00000000300338e8       0xa0 unistd.o
                                         0xb8 (size before relaxing)
 .eh_frame      0x0000000030033988       0x40 runtime.o
                                         0x58 (size before relaxing)
 .eh_frame      0x00000000300339c8      0x140 system.o
                                        0x158 (size before relaxing)
 .eh_frame      0x0000000030033b08       0x40 init.o
                                         0x58 (size before relaxing)
 .eh_frame      0x0000000030033b48       0xe8 debug.o
                                        0x100 (size before relaxing)
 .eh_frame      0x0000000030033c30       0x20 info.o
                                         0x38 (size before relaxing)
 .eh_frame      0x0000000030033c50      0x140 ports64.o
                                        0x158 (size before relaxing)
 .eh_frame      0x0000000030033d90      0x320 pit.o
                                        0x338 (size before relaxing)
 .eh_frame      0x00000000300340b0      0x128 rtc.o
                                        0x140 (size before relaxing)
 .eh_frame      0x00000000300341d8      0x1e8 x64.o
                                        0x200 (size before relaxing)
 .eh_frame      0x00000000300343c0       0x40 x64info.o
                                         0x58 (size before relaxing)
 .eh_frame      0x0000000030034400      0x160 hal.o
                                        0x178 (size before relaxing)
 .eh_frame      0x0000000030034560       0xd0 detect.o
                                         0xe8 (size before relaxing)
 .eh_frame      0x0000000030034630      0x228 pci.o
                                        0x240 (size before relaxing)
 .eh_frame      0x0000000030034858       0x40 pciinfo.o
                                         0x58 (size before relaxing)
 .eh_frame      0x0000000030034898       0x68 pciscan.o
                                         0x80 (size before relaxing)
 .eh_frame      0x0000000030034900       0xa8 devmgr.o
                                         0xc0 (size before relaxing)
 .eh_frame      0x00000000300349a8      0x488 console.o
                                        0x4a0 (size before relaxing)
 .eh_frame      0x0000000030034e30      0x1e8 tty.o
                                        0x200 (size before relaxing)
 .eh_frame      0x0000000030035018       0xc0 video.o
                                         0xd8 (size before relaxing)
 .eh_frame      0x00000000300350d8       0x40 vsync.o
                                         0x58 (size before relaxing)
 .eh_frame      0x0000000030035118       0xa8 screen.o
                                         0xc0 (size before relaxing)
 .eh_frame      0x00000000300351c0      0x1a8 serial.o
                                        0x1c0 (size before relaxing)
 .eh_frame      0x0000000030035368      0x148 storage.o
                                        0x160 (size before relaxing)
 .eh_frame      0x00000000300354b0      0x3e8 ata.o
                                        0x400 (size before relaxing)
 .eh_frame      0x0000000030035898       0x80 atadma.o
                                         0x98 (size before relaxing)
 .eh_frame      0x0000000030035918      0x140 atahdd.o
                                        0x158 (size before relaxing)
 .eh_frame      0x0000000030035a58       0x20 atainit.o
                                         0x38 (size before relaxing)
 .eh_frame      0x0000000030035a78      0x100 atairq.o
                                        0x118 (size before relaxing)
 .eh_frame      0x0000000030035b78       0x80 atapci.o
                                         0x98 (size before relaxing)
 .eh_frame      0x0000000030035bf8      0x160 i8042.o
                                        0x178 (size before relaxing)
 .eh_frame      0x0000000030035d58      0x1a0 ps2kbd.o
                                        0x1b8 (size before relaxing)
 .eh_frame      0x0000000030035ef8       0x20 ps2mouse.o
                                         0x38 (size before relaxing)
 .eh_frame      0x0000000030035f18       0x20 keyboard.o
                                         0x38 (size before relaxing)
 .eh_frame      0x0000000030035f38       0x20 mouse.o
                                         0x38 (size before relaxing)
 .eh_frame      0x0000000030035f58       0xe0 font.o
                                         0xf8 (size before relaxing)
 .eh_frame      0x0000000030036038      0x650 fs.o
                                        0x668 (size before relaxing)
 .eh_frame      0x0000000030036688       0xa0 network.o
                                         0xb8 (size before relaxing)
 .eh_frame      0x0000000030036728      0x320 socket.o
                                        0x338 (size before relaxing)
 .eh_frame      0x0000000030036a48       0xe0 pipe.o
                                         0xf8 (size before relaxing)
 .eh_frame      0x0000000030036b28       0xe0 search.o
                                         0xf8 (size before relaxing)
 .eh_frame      0x0000000030036c08       0xe0 disk_r.o
                                         0xf8 (size before relaxing)
 .eh_frame      0x0000000030036ce8       0x80 disk_w.o
                                         0x98 (size before relaxing)
 .eh_frame      0x0000000030036d68      0x200 sys.o
                                        0x218 (size before relaxing)
 .eh_frame      0x0000000030036f68       0x40 io.o
                                         0x58 (size before relaxing)
 .eh_frame      0x0000000030036fa8       0x60 ws.o
                                         0x78 (size before relaxing)
 .eh_frame      0x0000000030037008       0x20 pixel.o
                                         0x38 (size before relaxing)
 .eh_frame      0x0000000030037028       0x40 bg.o
                                         0x58 (size before relaxing)
 .eh_frame      0x0000000030037068       0xc8 char.o
                                         0xe0 (size before relaxing)
 .eh_frame      0x0000000030037130       0x60 dtext.o
                                         0x78 (size before relaxing)
 .eh_frame      0x0000000030037190       0x20 line.o
                                         0x38 (size before relaxing)
 .eh_frame      0x00000000300371b0       0xc0 rect.o
                                         0xd8 (size before relaxing)
 .eh_frame      0x0000000030037270       0xa0 kgws.o
                                         0xb8 (size before relaxing)
 .eh_frame      0x0000000030037310       0x20 kgwm.o
                                         0x38 (size before relaxing)
 .eh_frame      0x0000000030037330       0x20 logon.o
                                         0x38 (size before relaxing)
 .eh_frame      0x0000000030037350       0x40 logoff.o
                                         0x58 (size before relaxing)
 .eh_frame      0x0000000030037390       0xe0 userenv.o
                                         0xf8 (size before relaxing)
 .eh_frame      0x0000000030037470       0xe0 ts.o
                                         0xf8 (size before relaxing)
 .eh_frame      0x0000000030037550       0x40 dispatch.o
                                         0x58 (size before relaxing)
 .eh_frame      0x0000000030037590       0x40 spawn.o
                                         0x58 (size before relaxing)
 .eh_frame      0x00000000300375d0       0x60 x64cont.o
                                         0x78 (size before relaxing)
 .eh_frame      0x0000000030037630       0x20 x64fault.o
                                         0x38 (size before relaxing)
 .eh_frame      0x0000000030037650       0xa8 sched.o
                                         0xc0 (size before relaxing)
 .eh_frame      0x00000000300376f8      0x248 schedi.o
                                        0x260 (size before relaxing)
 .eh_frame      0x0000000030037940      0x348 process.o
                                        0x360 (size before relaxing)
 .eh_frame      0x0000000030037c88      0x250 thread.o
                                        0x268 (size before relaxing)
 .eh_frame      0x0000000030037ed8      0x168 threadi.o
                                        0x180 (size before relaxing)
 .eh_frame      0x0000000030038040       0x48 create.o
                                         0x60 (size before relaxing)
 .eh_frame      0x0000000030038088       0xf0 queue.o
                                        0x108 (size before relaxing)
 .eh_frame      0x0000000030038178       0x60 mk.o
                                         0x78 (size before relaxing)
 .eh_frame      0x00000000300381d8      0x120 memory.o
                                        0x138 (size before relaxing)
 .eh_frame      0x00000000300382f8       0xc0 mminfo.o
                                         0xd8 (size before relaxing)
 .eh_frame      0x00000000300383b8       0xe0 mmpool.o
                                         0xf8 (size before relaxing)
 .eh_frame      0x0000000030038498      0x1f0 pages.o
                                        0x208 (size before relaxing)
 .eh_frame      0x0000000030038688       0x28 panic.o
                                         0x40 (size before relaxing)
 .eh_frame      0x00000000300386b0       0x60 request.o
                                         0x78 (size before relaxing)

.rela.dyn       0x0000000030038710        0x0
 .rela.got      0x0000000030038710        0x0 head_64.o
 .rela.iplt     0x0000000030038710        0x0 head_64.o
 .rela.head_x86_64
                0x0000000030038710        0x0 head_64.o
 .rela.text     0x0000000030038710        0x0 head_64.o

.data           0x0000000030038720     0xc8e0
                0x0000000030038720                _data_begin = .
 *(.data)
 .data          0x0000000030038720        0x2 head_64.o
                0x0000000030038720                _data_start
 *fill*         0x0000000030038722       0x1e 
 .data          0x0000000030038740      0x1f0 main.o
 *fill*         0x0000000030038930       0x10 
 .data          0x0000000030038940      0x1f0 x64init.o
 *fill*         0x0000000030038b30       0x10 
 .data          0x0000000030038b40      0x1f0 ctype.o
 *fill*         0x0000000030038d30       0x10 
 .data          0x0000000030038d40      0x1f0 kstdio.o
 *fill*         0x0000000030038f30       0x10 
 .data          0x0000000030038f40      0x1f4 stdlib.o
 *fill*         0x0000000030039134        0xc 
 .data          0x0000000030039140      0x1f0 string.o
 *fill*         0x0000000030039330       0x10 
 .data          0x0000000030039340      0x1f0 unistd.o
 *fill*         0x0000000030039530       0x10 
 .data          0x0000000030039540      0x1f0 runtime.o
 *fill*         0x0000000030039730       0x10 
 .data          0x0000000030039740      0x1f0 system.o
 *fill*         0x0000000030039930       0x10 
 .data          0x0000000030039940      0x1f0 signal.o
 *fill*         0x0000000030039b30       0x10 
 .data          0x0000000030039b40      0x1f0 init.o
 *fill*         0x0000000030039d30       0x10 
 .data          0x0000000030039d40      0x1f0 debug.o
 *fill*         0x0000000030039f30       0x10 
 .data          0x0000000030039f40      0x1f0 info.o
 *fill*         0x000000003003a130       0x10 
 .data          0x000000003003a140      0x1f0 ports64.o
 *fill*         0x000000003003a330       0x10 
 .data          0x000000003003a340      0x1f0 pit.o
 *fill*         0x000000003003a530       0x10 
 .data          0x000000003003a540      0x1f0 rtc.o
 *fill*         0x000000003003a730       0x10 
 .data          0x000000003003a740      0x1f0 x64.o
 *fill*         0x000000003003a930       0x10 
 .data          0x000000003003a940      0x1f0 x64info.o
 *fill*         0x000000003003ab30       0x10 
 .data          0x000000003003ab40      0x1f0 hal.o
 *fill*         0x000000003003ad30       0x10 
 .data          0x000000003003ad40      0x1f0 detect.o
 *fill*         0x000000003003af30       0x10 
 .data          0x000000003003af40      0xaa8 pci.o
                0x000000003003b140                _pci_classes2
 *fill*         0x000000003003b9e8       0x18 
 .data          0x000000003003ba00      0x298 pciinfo.o
 *fill*         0x000000003003bc98        0x8 
 .data          0x000000003003bca0      0x1f0 pciscan.o
 *fill*         0x000000003003be90       0x10 
 .data          0x000000003003bea0      0x1f0 devmgr.o
 *fill*         0x000000003003c090       0x10 
 .data          0x000000003003c0a0      0x1f1 console.o
 *fill*         0x000000003003c291        0xf 
 .data          0x000000003003c2a0      0x1f0 tty.o
 *fill*         0x000000003003c490       0x10 
 .data          0x000000003003c4a0      0x1f0 video.o
 *fill*         0x000000003003c690       0x10 
 .data          0x000000003003c6a0      0x1f0 vsync.o
 *fill*         0x000000003003c890       0x10 
 .data          0x000000003003c8a0      0x1f0 screen.o
 *fill*         0x000000003003ca90       0x10 
 .data          0x000000003003caa0      0x1f0 serial.o
 *fill*         0x000000003003cc90       0x10 
 .data          0x000000003003cca0      0x1f0 storage.o
 *fill*         0x000000003003ce90       0x10 
 .data          0x000000003003cea0      0x1f0 ata.o
 *fill*         0x000000003003d090       0x10 
 .data          0x000000003003d0a0      0x1f0 atadma.o
 *fill*         0x000000003003d290       0x10 
 .data          0x000000003003d2a0      0x1f0 atahdd.o
 *fill*         0x000000003003d490       0x10 
 .data          0x000000003003d4a0      0x1f0 atainit.o
 *fill*         0x000000003003d690       0x10 
 .data          0x000000003003d6a0      0x1f0 atairq.o
 *fill*         0x000000003003d890       0x10 
 .data          0x000000003003d8a0      0xa00 atapci.o
                0x000000003003daa0                _pci_classes
 .data          0x000000003003e2a0      0x1f0 i8042.o
 *fill*         0x000000003003e490       0x10 
 .data          0x000000003003e4a0      0x1f0 ps2kbd.o
 *fill*         0x000000003003e690       0x10 
 .data          0x000000003003e6a0      0x1f0 ps2mouse.o
 *fill*         0x000000003003e890       0x10 
 .data          0x000000003003e8a0      0x1f0 keyboard.o
 *fill*         0x000000003003ea90       0x10 
 .data          0x000000003003eaa0      0x1f0 mouse.o
 *fill*         0x000000003003ec90       0x10 
 .data          0x000000003003eca0      0x1f0 font.o
 *fill*         0x000000003003ee90       0x10 
 .data          0x000000003003eea0      0x1f0 fs.o
 *fill*         0x000000003003f090       0x10 
 .data          0x000000003003f0a0      0x1f0 network.o
 *fill*         0x000000003003f290       0x10 
 .data          0x000000003003f2a0      0x1f0 socket.o
 *fill*         0x000000003003f490       0x10 
 .data          0x000000003003f4a0      0x1f4 pipe.o
                0x000000003003f690                _pipe_max_size
 *fill*         0x000000003003f694        0xc 
 .data          0x000000003003f6a0      0x1f0 search.o
 *fill*         0x000000003003f890       0x10 
 .data          0x000000003003f8a0      0x1f0 disk_r.o
 *fill*         0x000000003003fa90       0x10 
 .data          0x000000003003faa0      0x1f0 disk_w.o
 *fill*         0x000000003003fc90       0x10 
 .data          0x000000003003fca0      0x1f0 sys.o
 *fill*         0x000000003003fe90       0x10 
 .data          0x000000003003fea0      0x1f0 io.o
 *fill*         0x0000000030040090       0x10 
 .data          0x00000000300400a0      0x1f0 ws.o
 *fill*         0x0000000030040290       0x10 
 .data          0x00000000300402a0      0x1f0 pixel.o
 *fill*         0x0000000030040490       0x10 
 .data          0x00000000300404a0      0x1f0 bg.o
 *fill*         0x0000000030040690       0x10 
 .data          0x00000000300406a0      0x1f0 char.o
 *fill*         0x0000000030040890       0x10 
 .data          0x00000000300408a0      0x1f0 dtext.o
 *fill*         0x0000000030040a90       0x10 
 .data          0x0000000030040aa0      0x1f0 line.o
 *fill*         0x0000000030040c90       0x10 
 .data          0x0000000030040ca0      0x1f0 rect.o
 *fill*         0x0000000030040e90       0x10 
 .data          0x0000000030040ea0      0x1f4 kgws.o
 *fill*         0x0000000030041094        0xc 
 .data          0x00000000300410a0      0x1f0 kgwm.o
 *fill*         0x0000000030041290       0x10 
 .data          0x00000000300412a0      0x1f0 vt.o
 *fill*         0x0000000030041490       0x10 
 .data          0x00000000300414a0      0x1f0 desktop.o
 *fill*         0x0000000030041690       0x10 
 .data          0x00000000300416a0      0x1f0 room.o
 *fill*         0x0000000030041890       0x10 
 .data          0x00000000300418a0      0x1f0 usession.o
 *fill*         0x0000000030041a90       0x10 
 .data          0x0000000030041aa0      0x1f0 logon.o
 *fill*         0x0000000030041c90       0x10 
 .data          0x0000000030041ca0      0x1f0 logoff.o
 *fill*         0x0000000030041e90       0x10 
 .data          0x0000000030041ea0      0x1f0 userenv.o
 *fill*         0x0000000030042090       0x10 
 .data          0x00000000300420a0      0x1f0 ts.o
 *fill*         0x0000000030042290       0x10 
 .data          0x00000000300422a0      0x1f0 dispatch.o
 *fill*         0x0000000030042490       0x10 
 .data          0x00000000300424a0      0x1f0 spawn.o
 *fill*         0x0000000030042690       0x10 
 .data          0x00000000300426a0      0x1f0 x64cont.o
 *fill*         0x0000000030042890       0x10 
 .data          0x00000000300428a0      0x1f0 x64fault.o
 *fill*         0x0000000030042a90       0x10 
 .data          0x0000000030042aa0      0x1f0 sched.o
 *fill*         0x0000000030042c90       0x10 
 .data          0x0000000030042ca0      0x1f0 schedi.o
 *fill*         0x0000000030042e90       0x10 
 .data          0x0000000030042ea0      0x1f0 process.o
 *fill*         0x0000000030043090       0x10 
 .data          0x00000000300430a0      0x1f0 thread.o
 *fill*         0x0000000030043290       0x10 
 .data          0x00000000300432a0      0x1f0 threadi.o
 *fill*         0x0000000030043490       0x10 
 .data          0x00000000300434a0      0x1f0 create.o
 *fill*         0x0000000030043690       0x10 
 .data          0x00000000300436a0      0x1f0 queue.o
 *fill*         0x0000000030043890       0x10 
 .data          0x00000000300438a0      0x1f0 mk.o
 *fill*         0x0000000030043a90       0x10 
 .data          0x0000000030043aa0      0x1f0 memory.o
 *fill*         0x0000000030043c90       0x10 
 .data          0x0000000030043ca0      0x1f0 mminfo.o
 *fill*         0x0000000030043e90       0x10 
 .data          0x0000000030043ea0      0x1f0 mmpool.o
 *fill*         0x0000000030044090       0x10 
 .data          0x00000000300440a0      0x1f8 pages.o
                0x0000000030044290                _table_pointer_heap_base
 *fill*         0x0000000030044298        0x8 
 .data          0x00000000300442a0      0x1f0 panic.o
 *fill*         0x0000000030044490       0x10 
 .data          0x00000000300444a0      0x1f0 reboot.o
 *fill*         0x0000000030044690       0x10 
 .data          0x00000000300446a0      0x1f0 request.o
 *fill*         0x0000000030044890       0x10 
 .data          0x00000000300448a0      0x1f0 sci.o
                0x0000000030045000                . = ALIGN (0x1000)
 *fill*         0x0000000030044a90      0x570 
                0x0000000030045000                _data_end = .

.got            0x0000000030045000        0x0
 .got           0x0000000030045000        0x0 head_64.o

.got.plt        0x0000000030045000        0x0
 .got.plt       0x0000000030045000        0x0 head_64.o

.igot.plt       0x0000000030045000        0x0
 .igot.plt      0x0000000030045000        0x0 head_64.o

.bss            0x0000000030045000    0x76000
                0x0000000030045000                _bss_begin = .
 *(COMMON)
 COMMON         0x0000000030045000    0x3daa0 main.o
                0x0000000030045000                _SMALL_extraheap2_pa
                0x0000000030045008                _framepoolBackBuffer3
                0x0000000030045010                _MEDIUM_extraheap2_pa
                0x0000000030045018                _g_backbuffer_va
                0x0000000030045020                _shared_buffer_terminal_icon
                0x0000000030045028                _blSavedCylinders
                0x0000000030045030                _g_module_volume_initialized
                0x0000000030045038                _Graphics
                0x0000000030045040                _framepoolList
                0x0000000030047040                _dispatcherType
                0x0000000030047048                _pci_handler_address
                0x0000000030047050                _WindowServer_virtual_console
                0x0000000030047060                _PS2
                0x0000000030047074                _dummmmkdsfmsd
                0x0000000030047078                _PS2MouseDeviceTTY
                0x0000000030047080                ___gpidSecurityServer
                0x0000000030047088                _SMALL_pagedpool_pa
                0x0000000030047090                _g_profiler_ints_irq13
                0x0000000030047098                _g_frontbuffer_va
                0x00000000300470a0                _userconfig_Status
                0x00000000300470c0                _prompt
                0x00000000300471c0                _g_module_debug_initialized
                0x00000000300471e0                _threadList
                0x00000000300491e0                _active_process
                0x00000000300491e8                _pci_device
                0x0000000030049200                _Windows
                0x000000003004b200                _g_module_disk_initialized
                0x000000003004b204                ___packed
                0x000000003004b208                _current_runlevel
                0x000000003004b210                _search_path_dir_entries
                0x000000003004b218                _kernel_heap_end
                0x000000003004b220                ___gpidInclude
                0x000000003004b224                _g_currentvolume_fatbits
                0x000000003004b228                _scrolllock_status
                0x000000003004b230                _wait_queue
                0x000000003004b238                _windowzoneStart
                0x000000003004b240                _mm_used_extraheap1
                0x000000003004b248                _partition
                0x000000003004b250                _SavedBPP
                0x000000003004b258                _g_boottime_ide_channel
                0x000000003004b25c                ___gpidLogoff
                0x000000003004b260                _g9x14fontAddress
                0x000000003004b268                _framepoolBackBuffer2
                0x000000003004b270                _task_switch_status
                0x000000003004b278                _ata_record_dev
                0x000000003004b280                _systemzoneEnd
                0x000000003004b288                _g_is_qemu
                0x000000003004b290                _LocalHostHTTPSocket
                0x000000003004b298                _MEDIUM_user_pa
                0x000000003004b2a0                _SMALL_user_pa
                0x000000003004b2c0                _directory_facility_ProgramsDir
                0x000000003004b2e0                ___gpidSCI
                0x000000003004b2e8                _preempted_task
                0x000000003004b2f0                _ActiveWindow
                0x000000003004b2f8                _mouse_buttom_3
                0x000000003004b2fc                _current_screen
                0x000000003004b300                _capslock_status
                0x000000003004b320                _KernelArgs
                0x000000003004b340                _pcideviceList
                0x000000003004b740                _memorysizeAvailablePhysicalMemory
                0x000000003004b748                _PS2MouseDeviceObject
                0x000000003004b750                _fullscreen_window
                0x000000003004b754                _textcursorStatus
                0x000000003004b758                _pmiMemoryInfo
                0x000000003004b760                _mm_used_heappool
                0x000000003004b768                _current_volume_string
                0x000000003004b770                _mouse_button_action
                0x000000003004b774                _g_module_fs_initialized
                0x000000003004b778                _framepoolBackBuffer4
                0x000000003004b780                _g_driver_hdd_initialized
                0x000000003004b788                _g9x16fontAddress
                0x000000003004b790                _storage
                0x000000003004b798                _systemzoneStart
                0x000000003004b7a0                _running_tasks
                0x000000003004b7a8                _g_extraheap1_size
                0x000000003004b7b0                _g_device_screen_width
                0x000000003004b7b8                _InitThread
                0x000000003004b7c0                ___breaker_com2_initialized
                0x000000003004b7c4                _extra
                0x000000003004b7c8                _g_profiler_ints_irq2
                0x000000003004b7e0                _fsbFrames
                0x000000003004d7e0                _g_user_space_framepool_index
                0x000000003004d7f0                _Initialization
                0x000000003004d80c                _next_thread
                0x000000003004d810                _systemzoneSize
                0x000000003004d818                ___breaker_timer_initialized
                0x000000003004d81c                _zorderCounter
                0x000000003004d820                _mmFramesSuperBlockTotalUsed
                0x000000003004d828                _quantum
                0x000000003004d830                _stderr
                0x000000003004d838                _MEDIUM_heappool_pa
                0x000000003004d840                _tmpConductor
                0x000000003004d848                _g_logged
                0x000000003004d850                _RGBA
                0x000000003004d858                _____whatchdog_ps2_keyboard
                0x000000003004d85c                ___breaker_com3_initialized
                0x000000003004d860                _____IDLE
                0x000000003004d868                _gui
                0x000000003004d870                _CurrentUserSession
                0x000000003004d878                _g_device_screen_height
                0x000000003004d880                _g_mousepointer_height
                0x000000003004d888                _g_module_uem_initialized
                0x000000003004d88c                ___gpidInit
                0x000000003004d890                _fat_cache_loaded
                0x000000003004d898                _processor
                0x000000003004d8a0                ___gpidSysIO
                0x000000003004d8a4                _foreground_thread
                0x000000003004d8c0                _userList
                0x000000003004d940                _LARGE_cga_pa
                0x000000003004d948                _prompt_pos
                0x000000003004d950                _saved_mouse_x
                0x000000003004d958                _Conductor
                0x000000003004d960                _ide_handler_address
                0x000000003004d968                _MEDIUM_extraheap1_pa
                0x000000003004d970                _mbr
                0x000000003004d978                _current_mmblock
                0x000000003004d980                _deviceList
                0x000000003004e980                ___spinlock_ipc
                0x000000003004e988                _ASpace
                0x000000003004e990                _mmFramesSuperBlockSize
                0x000000003004e998                _g_driver_ps2keyboard_initialized
                0x000000003004e9a0                _kernel_stack_start
                0x000000003004e9c0                _xBootBlock
                0x000000003004e9e0                _Rtc
                0x000000003004e9e8                _blSavedDiskNumber
                0x000000003004e9f0                _mm_used_extraheap3
                0x000000003004e9f8                _start_new_task_address
                0x000000003004ea00                _g_module_gui_initialized
                0x000000003004ea08                _KeInitPhase
                0x000000003004ea10                _g_driver_ps2mouse_initialized
                0x000000003004ea14                _windows_count
                0x000000003004ea20                _pagetableList
                0x0000000030050a20                _combobox_window
                0x0000000030050a28                _framepoolBackBuffer1
                0x0000000030050a30                _g_driver_video_initialized
                0x0000000030050a34                _active_window
                0x0000000030050a40                _vtList
                0x0000000030050b40                _root
                0x0000000030050b48                _vfs
                0x0000000030050b50                _current_pci_device
                0x0000000030050b60                _directory_facility_EFIDir
                0x0000000030050b80                _g_show_text_cursor
                0x0000000030050b88                _Hardware
                0x0000000030050b90                _g_profiler_ints_irq10
                0x0000000030050ba0                _directory_facility_ubaseDir
                0x0000000030050bc0                _current_process
                0x0000000030050bc8                _SMALL_cga_pa
                0x0000000030050bd0                _current_desktop
                0x0000000030050bd8                _gKernelPML4Address
                0x0000000030050be0                _numlock_status
                0x0000000030050be8                _usession0
                0x0000000030050bf0                _g_extraheap2_size
                0x0000000030050bf8                _CurrentSocket
                0x0000000030050c00                _g_module_logoff_initialized
                0x0000000030050c08                _pagetableCurrent
                0x0000000030050c10                _____boot____disk
                0x0000000030050c18                _g8x14fontAddress
                0x0000000030050c20                ___gpidWindowManager
                0x0000000030050c28                _g_profiler_ints_irq1
                0x0000000030050c30                _kstdio_standard_streams_initialized
                0x0000000030050c38                _g_profiler_ints_irq7
                0x0000000030050c40                _stdin
                0x0000000030050c48                _g_frontbuffer_pa
                0x0000000030050c50                _old_mouse_buttom_1
                0x0000000030050c58                _mmFramesSuperBlockTotalFree
                0x0000000030050c60                _CONSOLE_TTYS
                0x00000000300517a0                _gcharWidth
                0x00000000300517a8                _savedmouseoverwindowY
                0x00000000300517c0                _socketList
                0x00000000300518c0                ___breaker_com1_initialized
                0x00000000300518c4                _g_module_logon_initialized
                0x00000000300518c8                _CurrentTTYBUFFER
                0x00000000300518e0                _CWD
                0x0000000030051908                _next_address
                0x0000000030051910                _____whatchdog_ps2_mouse
                0x0000000030051914                _dispatcherQueueIndex
                0x0000000030051918                _kernel_heap_start
                0x0000000030051920                _directory_facility_RootDir
                0x0000000030051940                _g_profiler_ints_irq11
                0x0000000030051948                _g8x16fontAddress
                0x0000000030051950                _g_current_object
                0x0000000030051958                _PrideColorScheme
                0x0000000030051960                _CurrentTSS
                0x0000000030051968                _current_room
                0x0000000030051970                _mac_address
                0x0000000030051978                _queue
                0x0000000030051980                _UPProcessorBlock
                0x00000000300519e0                _inode_table
                0x0000000030051ae0                _system_disk
                0x0000000030051ae8                _DispatchCountBlock
                0x0000000030051af0                _current_dead_process
                0x0000000030051af8                _shift_status
                0x0000000030051b00                _ide_dma_prdt
                0x0000000030051b20                _current_directory
                0x0000000030051b28                _MEDIUM_backbuffer_pa
                0x0000000030051b30                _kernel_stack_start_pa
                0x0000000030051b38                _sys_time_ms
                0x0000000030051b40                _logonStatus
                0x0000000030051b44                ___breaker_ps2mouse_initialized
                0x0000000030051b48                _PS2KeyboardDevice
                0x0000000030051b50                ___breaker_ata2_initialized
                0x0000000030051b58                _framepoolFrontBuffer3
                0x0000000030051b60                _current_window
                0x0000000030051b68                _g_available_heap
                0x0000000030051b70                _start_new_task_id
                0x0000000030051b74                _g_heap_count
                0x0000000030051b78                _alt_status
                0x0000000030051b80                _schedulerType
                0x0000000030051b84                _current_disk
                0x0000000030051b88                _volume1_rootdir
                0x0000000030051b90                _g_new_message
                0x0000000030051b98                _LARGE_pagedpool_pa
                0x0000000030051ba0                _blSavedHeads
                0x0000000030051ba8                _Firmware
                0x0000000030051bb0                _volume_bootpartition
                0x0000000030051bb8                ___gpidNotificationServer
                0x0000000030051bbc                _current_dead_thread
                0x0000000030051bc0                _SMALL_frontbuffer_pa
                0x0000000030051bc8                _WindowManager
                0x0000000030051bd0                _mouseover_window
                0x0000000030051bd8                _g_device_screen_bpp
                0x0000000030051be0                _kbMsgStatus
                0x0000000030051be8                _RootUser
                0x0000000030051bf0                _g_module_objectmanager_initialized
                0x0000000030051bf4                _ata_record_channel
                0x0000000030051bf8                _zorderTopWindow
                0x0000000030051bfc                _g_current_framepool
                0x0000000030051c00                _current_taskman_server
                0x0000000030051c04                _task_color
                0x0000000030051c08                _g_profiler_ints_irq4
                0x0000000030051c10                _framepoolFrontBuffer1
                0x0000000030051c18                _heapCount
                0x0000000030051c20                _windowzoneEnd
                0x0000000030051c28                _g_pagedpool_va
                0x0000000030051c30                _g_profiler_ints_irq14
                0x0000000030051c38                _pagedirectoryIdleProcess
                0x0000000030051c40                _volume_vfs
                0x0000000030051c48                _g_mousepointer_x
                0x0000000030051c50                _usersession_start
                0x0000000030051c58                _profiler_percentage_idle_thread
                0x0000000030051c60                _processors_count
                0x0000000030051c68                _mmFramesSuperBlockTotal
                0x0000000030051c70                _g_inputmode
                0x0000000030051c78                _RawGraphics
                0x0000000030051c80                _keyboard_handler_address
                0x0000000030051c88                _kernel_stack_end
                0x0000000030051c90                _g_extraheap2_va
                0x0000000030051c98                _SMALL_heappool_pa
                0x0000000030051ca0                _g_object_manager_status
                0x0000000030051ca8                _SMALL_origin_pa
                0x0000000030051cb0                _InitProcess
                0x0000000030051cb8                _system_volume
                0x0000000030051cc0                _zones
                0x0000000030051cc8                _miMemoryInfo
                0x0000000030051cd0                _g_module_runtime_initialized
                0x0000000030051cd4                ___gpidSysSM
                0x0000000030051ce0                _FT
                0x0000000030051d18                _VersionInfo
                0x0000000030051d20                _MEDIUM_frontbuffer_pa
                0x0000000030051d28                _window_with_focus
                0x0000000030051d30                _g_proc_status
                0x0000000030051d38                _framepoolCurrent
                0x0000000030051d40                _gNextKeyboardMessage
                0x0000000030051d48                _pagedirectoryShared
                0x0000000030051d50                _SMALL_extraheap3_pa
                0x0000000030051d58                _g_currentvolume_filesystem_type
                0x0000000030051d60                _directory_facility_usersDir
                0x0000000030051d80                _g_heappool_va
                0x0000000030051d88                _g_current_ide_channel
                0x0000000030051d8c                _current_display
                0x0000000030051d90                _pagedirectoryCurrent
                0x0000000030051d98                _gLogonPID
                0x0000000030051da0                _VECTORS
                0x00000000300525a0                _CurrentWindow
                0x00000000300525a8                _g_product_type
                0x00000000300525b0                _vbr
                0x00000000300525b8                _profiler_ticks_count
                0x00000000300525c0                _g_heap_pointer
                0x00000000300525c8                _WindowWithFocus
                0x00000000300525d0                _task_count
                0x00000000300525d8                _Screen
                0x00000000300525e0                _PS2KeyboardDeviceObject
                0x00000000300525e8                _pipe_gramadocore_init_execve
                0x00000000300525f0                _g_kernel_nonpaged_memory
                0x00000000300525f8                _timer_handler_address
                0x0000000030052600                _kernel_switch
                0x0000000030052608                _old_mouse_buttom_3
                0x000000003005260c                _guiStatus
                0x0000000030052610                _window_rootConductor
                0x0000000030052620                _heapList
                0x0000000030052660                _ttyCurrentX
                0x0000000030052668                _volume2_rootdir
                0x0000000030052670                _DriveContext
                0x0000000030052680                _file_table
                0x0000000030052780                _prompt_err
                0x0000000030052880                _abnt2
                0x0000000030052884                _gFocusBlocked
                0x0000000030052888                _MEDIUM_kernel_base_pa
                0x0000000030052890                _current_socket
                0x0000000030052898                _SavedX
                0x00000000300528a0                ___gpidBoot
                0x00000000300528a4                _desktops_count
                0x00000000300528a8                _fat_cache_saved
                0x00000000300528b0                _KernelPages
                0x00000000300528b8                _g_driver_apic_initialized
                0x00000000300528c0                _FREE_FRAMES
                0x000000003005a8c0                __lockfocus
                0x000000003005a8c4                _saved_mouse_y
                0x000000003005a8c8                _current_usersession
                0x000000003005a8d0                _g_video_mode
                0x000000003005a8d8                _ttyCurrentY
                0x000000003005a8e0                _fat
                0x000000003005a8e8                _mm_used_pagedpool
                0x000000003005a8f0                _stdio_verbosemode_flag
                0x000000003005a8f8                _mmFramesSuperBlockEnd
                0x000000003005a900                _processList
                0x000000003005c900                _memorysizeAvailableVirtualMemory
                0x000000003005c908                _memorysizeExtendedMemory
                0x000000003005c910                _gPagedPollStart
                0x000000003005c918                _criticalsection_pid
                0x000000003005c920                _g_backbuffer_pa
                0x000000003005c928                _systemzone
                0x000000003005c930                _SMALL_extraheap1_pa
                0x000000003005c938                _dead_thread_collector_status
                0x000000003005c93c                _ATAFlag
                0x000000003005c940                _sys_time_hz
                0x000000003005c948                _gLogoffPID
                0x000000003005c950                _profiler_ticks_limit
                0x000000003005c958                _gfontSize
                0x000000003005c960                _start_new_task_status
                0x000000003005c968                _framepoolFrontBuffer4
                0x000000003005c980                _gramado_ports
                0x000000003005ca00                _timer_cursor_used
                0x000000003005ca08                _CurrentTTYLDISC
                0x000000003005ca10                _profiler_percentage_all_normal_threads
                0x000000003005ca20                _SWAPPED_FRAMES
                0x0000000030064a20                _SMALL_kernel_base_pa
                0x0000000030064a28                _g_total_physical_memory
                0x0000000030064a30                _IOControl
                0x0000000030064a40                _g_mousepointer_width
                0x0000000030064a60                _HANDLERS
                0x00000000300652a0                _current_terminal
                0x00000000300652a8                _window_Conductor2
                0x00000000300652b0                _LARGE_origin_pa
                0x00000000300652b8                _g_machine_type
                0x00000000300652c0                _current_tty
                0x00000000300652c8                _newtask_EIP
                0x00000000300652d0                _MEDIUM_pagedpool_pa
                0x00000000300652d8                _g_profiler_ints_irq5
                0x00000000300652e0                _memorysizeTotalVirtualMemory
                0x00000000300652e8                _top_window
                0x00000000300652f0                _g_scheduler_status
                0x00000000300652f8                ___gpidInstall
                0x0000000030065300                _SMALL_backbuffer_pa
                0x0000000030065320                _ide_ports
                0x00000000300653a0                ___gpidWindowServer
                0x00000000300653a8                _mm_used_backbuffer
                0x00000000300653b0                _current_quantum
                0x00000000300653b8                _stdout
                0x00000000300653c0                _dead_thread_collector_flag
                0x00000000300653c8                _windowzoneSize
                0x00000000300653d0                _g_driver_rtc_initialized
                0x00000000300653e0                _NETWORK_BUFFER
                0x00000000300655e0                _SystemClasses
                0x00000000300655f8                _refresh_screen_flag
                0x0000000030065600                _mm_used_frame_table
                0x0000000030065608                _CurrentTTYDRV
                0x0000000030065610                _gws_currentfont_address
                0x0000000030065618                _PS2MouseDevice
                0x0000000030065620                _windowList
                0x0000000030067620                _SavedY
                0x0000000030067628                _gPagedPollEnd
                0x0000000030067630                _windowzone
                0x0000000030067638                _WindowServer
                0x0000000030067640                _memorysizeFree
                0x0000000030067660                _IDE
                0x0000000030067688                _g_system_color
                0x0000000030067690                _editbox_window
                0x0000000030067698                _kernel_request
                0x00000000300676a0                _g_pageable_framepool_index_max
                0x00000000300676a4                _current_thread
                0x00000000300676a8                _blSavedMetafileAddress
                0x00000000300676c0                _Pipes
                0x0000000030067700                _processorsList
                0x0000000030067800                _Bank
                0x0000000030067820                _BootBlock
                0x0000000030067890                _timer_cursor_status
                0x0000000030067898                _g_current_vm
                0x00000000300678a0                _g_extraheap3_va
                0x00000000300678c0                _current_target_dir
                0x00000000300678f8                _mm_used_kernel_area
                0x0000000030067900                _schedulerQueue
                0x0000000030067920                _search_path_dir_address
                0x0000000030067928                _systemSize
                0x0000000030067930                _PS2KeyboardDeviceTTY
                0x0000000030067938                _WindowServer_pid
                0x000000003006793c                _gDeveloperOptions
                0x0000000030067940                _g_profiler_ints_irq12
                0x0000000030067948                _zorder
                0x0000000030067950                _mm_used_extraheap2
                0x0000000030067958                _forkid
                0x0000000030067960                _current_volume
                0x0000000030067968                _shutdown_address
                0x0000000030067970                _shared_buffer_folder_icon
                0x0000000030067978                _devices
                0x0000000030067980                _screen_size_in_kb
                0x0000000030067988                _gcharHeight
                0x0000000030067990                _g_profiler_ints_irq8
                0x0000000030067998                _mouse_buttom_1
                0x000000003006799c                _foreground_process
                0x00000000300679a0                _g_profiler_ints_irq3
                0x00000000300679a8                _framepoolFrontBuffer2
                0x00000000300679b0                _pipe_execve
                0x00000000300679c0                _diskList
                0x00000000300699c0                _magic
                0x00000000300699e0                _PAINT
                0x0000000030069aa8                ___breaker_ata1_initialized
                0x0000000030069ab0                _KernelClasses
                0x0000000030069ac0                _fsbFreeFrames
                0x000000003006bac0                _old_mouse_buttom_2
                0x000000003006bac8                _current_process_pagedirectory_address
                0x000000003006bad0                _SavedLFB
                0x000000003006bad8                _KernelProcess
                0x000000003006bae0                _framepoolPageableSpace
                0x000000003006bae8                _LARGE_extraheap1_pa
                0x000000003006baf0                _KernelHeapSize
                0x000000003006baf8                ___gpidNetServer
                0x000000003006bb00                _HostDeviceInfo
                0x000000003006bb20                _prompt_out
                0x000000003006bc20                _g_driver_pci_initialized
                0x000000003006bc40                _file_cluster_list
                0x000000003006c440                _g_profiler_ints_gde_services
                0x000000003006c448                ___breaker_rtc_initialized
                0x000000003006c450                _LARGE_frontbuffer_pa
                0x000000003006c458                _EarlyRING0IDLEThread
                0x000000003006c460                _jiffies
                0x000000003006c468                _escape_status
                0x000000003006c470                _DesktopEnvironment
                0x000000003006c478                _memorysizeOtherMemory
                0x000000003006c480                _mmblockList
                0x000000003007c480                _directory_facility_GramadoDir
                0x000000003007c4a0                _g_driver_timer_initialized
                0x000000003007c4a8                _blSavedSPT
                0x000000003007c4b0                _ClonedThread
                0x000000003007c4b8                _HostInfo
                0x000000003007c4c0                _ata_identify_dev_buf
                0x000000003007c4c8                ___gpidSysLib
                0x000000003007c4d0                _blSavedLastValidAddress
                0x000000003007c4d8                _g_next_app
                0x000000003007c4e0                _timerList
                0x000000003007c5e0                _g_boottime_ide_device
                0x000000003007c5e4                ___gpidSysMK
                0x000000003007c5e8                _WindowServer_type
                0x000000003007c5ec                _g_useGUI
                0x000000003007c5f0                _PS2KeyboardDeviceTTYDriver
                0x000000003007c5f8                _CurrentColorScheme
                0x000000003007c600                _LARGE_backbuffer_pa
                0x000000003007c608                _LARGE_heappool_pa
                0x000000003007c610                _next_quantum
                0x000000003007c620                _dev_nport
                0x000000003007c640                _stdio_terminalmode_flag
                0x000000003007c648                _MEDIUM_cga_pa
                0x000000003007c650                _framepoolSmallSystemUserSpace
                0x000000003007c658                _memorysizeTotalPhysicalMemory
                0x000000003007c660                _ata
                0x000000003007c678                _rootConductor
                0x000000003007c680                _gSystemStatus
                0x000000003007c684                _____network_late_flag
                0x000000003007c688                _tab_status
                0x000000003007c690                _LARGE_kernel_base_pa
                0x000000003007c698                _Version
                0x000000003007c6a0                _REQUEST
                0x000000003007c6f8                _userenvironmentStatus
                0x000000003007c700                _shared_buffer_file_icon
                0x000000003007c708                _time_out
                0x000000003007c710                _current_file
                0x000000003007c718                _pagedirectoryKernelProcess
                0x000000003007c720                _VideoBlock
                0x000000003007c748                _System
                0x000000003007c750                _KernelSize
                0x000000003007c758                _shared_buffer_app_icon
                0x000000003007c760                _dispatcherReadyList
                0x000000003007c7b0                _ScreenInfo
                0x000000003007c7b8                _g_profiler_ints_irq0
                0x000000003007c7c0                _g8x8fontAddress
                0x000000003007c7c8                _KernelStackSize
                0x000000003007c7d0                _memorysizeInstalledPhysicalMemory
                0x000000003007c7d8                _memorysizeTotal
                0x000000003007c7e0                _pageAllocList
                0x000000003007e7e0                _g_system_mode
                0x000000003007e7e8                _g_current_video_mode
                0x000000003007e7f0                _g_heap_count_max
                0x000000003007e7f4                _current_group
                0x000000003007e7f8                _BackBufferInfo
                0x000000003007e800                _conductorIndex
                0x000000003007e808                _g_mousepointer_y
                0x000000003007e810                _g_framepool_max
                0x000000003007e818                _task_waiting
                0x000000003007e820                _mm_used_user_area
                0x000000003007e828                ___breaker_com4_initialized
                0x000000003007e830                _QUEUES
                0x000000003007e848                _volume_systempartition
                0x000000003007e850                _KernelStatus
                0x000000003007e858                _PS2MouseDeviceTTYDriver
                0x000000003007e860                _banksCount
                0x000000003007e868                _Pic
                0x000000003007e870                _g_profiler_ints_irq15
                0x000000003007e878                _shared_buffer_cursor_icon
                0x000000003007e880                _errno
                0x000000003007e888                _old
                0x000000003007e890                _MEDIUM_origin_pa
                0x000000003007e898                _g_heap_size
                0x000000003007e8a0                ___gpidLogon
                0x000000003007e8a4                _gSystemEdition
                0x000000003007e8c0                _pagedirectoryList
                0x00000000300808c0                _framepoolMediumSystemUserSpace
                0x00000000300808c8                _mm_used_lfb
                0x00000000300808d0                _logoffStatus
                0x00000000300808d4                _current_user
                0x00000000300808d8                _active_thread
                0x00000000300808e0                _framepoolKernelSpace
                0x00000000300808e8                _memorysizeBaseMemory
                0x00000000300808f0                _g_current_ide_device
                0x00000000300808f4                _rooms_count
                0x00000000300808f8                _key_status
                0x0000000030080900                ___breaker_ps2keyboard_initialized
                0x0000000030080908                _MEDIUM_extraheap3_pa
                0x0000000030080910                _PCIDeviceATA
                0x0000000030080918                _mmblockCount
                0x0000000030080920                _prompt_status
                0x0000000030080928                _framepoolLargeSystemUserSpace
                0x0000000030080930                _g_platform_type
                0x0000000030080938                _g_kernel_paged_memory
                0x0000000030080940                _mmFramesSuperBlockStart
                0x0000000030080948                _current_mode
                0x0000000030080950                _rtc
                0x0000000030080958                _window_Conductor
                0x0000000030080960                _lastBank
                0x0000000030080964                _g_mm_system_type
                0x0000000030080968                _g_kernel_lfb
                0x0000000030080970                _LARGE_user_pa
                0x0000000030080978                _PciDrivers
                0x0000000030080980                _terminal_window
                0x0000000030080988                _CurrentScreen
                0x0000000030080990                _g_extraheap1_va
                0x0000000030080998                _g_profiler_ints_irq6
                0x00000000300809a0                _ttyLineCounter
                0x00000000300809a8                _g_char_attrib
                0x00000000300809b0                _current_arch
                0x00000000300809b8                _HumilityColorScheme
                0x00000000300809c0                _memorysizeUsed
                0x00000000300809c8                _window_mouse_over
                0x00000000300809d0                _ctrl_status
                0x00000000300809d8                _g_module_shell_initialized
                0x00000000300809e0                _winkey_status
                0x00000000300809e8                _FrontBufferInfo
                0x00000000300809f0                _g_extraheap3_size
                0x00000000300809f8                _g_current_list
                0x0000000030080a00                _LARGE_extraheap3_pa
                0x0000000030080a08                _savedmouseoverwindowX
                0x0000000030080a10                _LARGE_extraheap2_pa
                0x0000000030080a18                _g_module_mm_initialized
                0x0000000030080a1c                _g_kernel_symbols_available
                0x0000000030080a20                _volumeList
                0x0000000030082a20                _seconds
                0x0000000030082a28                _WindowServer_initialized
                0x0000000030082a2c                _current_menu
                0x0000000030082a30                _pmiCurrent
                0x0000000030082a38                _g_profiler_ints_irq9
                0x0000000030082a40                _Pci
                0x0000000030082a48                _mouse_buttom_2
                0x0000000030082a50                _CurrentUser
                0x0000000030082a60                _WindowServer_name
 COMMON         0x0000000030082aa0       0x28 pit.o
                0x0000000030082aa0                _timerShowTextCursor
                0x0000000030082aa4                _timerColor
                0x0000000030082aa8                _timerStatus
                0x0000000030082ab0                _timerIdleState
                0x0000000030082ab8                _timerError
                0x0000000030082abc                _timerLock
                0x0000000030082ac0                _timerLine
 COMMON         0x0000000030082ac8        0x8 pci.o
                0x0000000030082ac8                _pciListOffset
                0x0000000030082acc                _pci_supported
 COMMON         0x0000000030082ad0        0x4 console.o
                0x0000000030082ad0                _consoleTextCursorStatus
 *fill*         0x0000000030082ad4        0x4 
 COMMON         0x0000000030082ad8       0x2c video.o
                0x0000000030082ad8                ___frontbuffer_pa
                0x0000000030082ae0                _videoError
                0x0000000030082ae8                ___cga_va
                0x0000000030082af0                ___frontbuffer_va
                0x0000000030082af8                ___cga_pa
                0x0000000030082b00                _videoStatus
 *fill*         0x0000000030082b04        0x4 
 COMMON         0x0000000030082b08       0x10 screen.o
                0x0000000030082b08                _screen_height
                0x0000000030082b10                _screen_width
 COMMON         0x0000000030082b18       0x10 ata.o
                0x0000000030082b18                _current_dev
                0x0000000030082b20                _ready_queue_dev
 *fill*         0x0000000030082b28       0x18 
 COMMON         0x0000000030082b40    0x10000 fs.o
                0x0000000030082b40                _fat16ClustersToSave
 COMMON         0x0000000030092b40       0x10 network.o
                0x0000000030092b40                _____network_file
                0x0000000030092b48                _network_status
                0x0000000030092b4c                _notification_status
 COMMON         0x0000000030092b50        0xc kgws.o
                0x0000000030092b50                _kgws_ws_status
                0x0000000030092b54                _kgws_ws_PID
                0x0000000030092b58                _kgws_status
 COMMON         0x0000000030092b5c        0x4 vt.o
                0x0000000030092b5c                _fg_console
 COMMON         0x0000000030092b60        0x4 desktop.o
                0x0000000030092b60                _desktopdummmy
 COMMON         0x0000000030092b64        0x4 room.o
                0x0000000030092b64                _roomdummmy
 COMMON         0x0000000030092b68        0x4 usession.o
                0x0000000030092b68                _usessiondummmy
 *fill*         0x0000000030092b6c        0x4 
 COMMON         0x0000000030092b70       0xc0 x64cont.o
                0x0000000030092b70                _contextRCX
                0x0000000030092b78                _contextR12
                0x0000000030092b80                _contextFS
                0x0000000030092b88                _contextDS
                0x0000000030092b90                _contextRFLAGS
                0x0000000030092b98                _contextRSP
                0x0000000030092ba0                _contextR13
                0x0000000030092ba8                _contextR10
                0x0000000030092bb0                _contextRDX
                0x0000000030092bb8                _contextR8
                0x0000000030092bc0                _contextRIP
                0x0000000030092bc8                _contextRBP
                0x0000000030092bd0                _contextGS
                0x0000000030092bd8                _contextR14
                0x0000000030092be0                _contextR15
                0x0000000030092be8                _contextR9
                0x0000000030092bf0                _contextR11
                0x0000000030092bf8                _contextRDI
                0x0000000030092c00                _contextCS
                0x0000000030092c08                _contextRBX
                0x0000000030092c10                _contextES
                0x0000000030092c18                _contextRSI
                0x0000000030092c20                _contextRAX
                0x0000000030092c28                _contextSS
 COMMON         0x0000000030092c30        0x8 x64fault.o
                0x0000000030092c30                _xxx_fault_number
 COMMON         0x0000000030092c38        0x8 process.o
                0x0000000030092c38                _processNewPID
                0x0000000030092c3c                _caller_process_id
 COMMON         0x0000000030092c40       0x18 memory.o
                0x0000000030092c40                _heap_pointer_last_valid
                0x0000000030092c48                _mm_prev_pointer
                0x0000000030092c50                _last_size
 COMMON         0x0000000030092c58        0x4 sci.o
                0x0000000030092c58                _zzcgftgrtgrt
 *(.bss)
 .bss           0x0000000030092c5c    0x20000 head_64.o
                0x0000000030092c5c                _bss_start
                0x0000000030092c5c                _xxxStackEnd
                0x00000000300a2c5c                _rsp0StackEnd
                0x00000000300a2c5c                _xxxStack
                0x00000000300b2c5c                _rsp0Stack
 *fill*         0x00000000300b2c5c        0x4 
 .bss           0x00000000300b2c60      0x148 main.o
 *fill*         0x00000000300b2da8       0x18 
 .bss           0x00000000300b2dc0      0x148 x64init.o
 *fill*         0x00000000300b2f08       0x18 
 .bss           0x00000000300b2f20      0x148 ctype.o
 *fill*         0x00000000300b3068       0x18 
 .bss           0x00000000300b3080      0x148 kstdio.o
 *fill*         0x00000000300b31c8       0x18 
 .bss           0x00000000300b31e0      0x148 stdlib.o
 *fill*         0x00000000300b3328       0x18 
 .bss           0x00000000300b3340      0x150 string.o
 *fill*         0x00000000300b3490       0x10 
 .bss           0x00000000300b34a0      0x148 unistd.o
 *fill*         0x00000000300b35e8       0x18 
 .bss           0x00000000300b3600      0x148 runtime.o
 *fill*         0x00000000300b3748       0x18 
 .bss           0x00000000300b3760      0x148 system.o
 *fill*         0x00000000300b38a8       0x18 
 .bss           0x00000000300b38c0      0x148 signal.o
 *fill*         0x00000000300b3a08       0x18 
 .bss           0x00000000300b3a20      0x148 init.o
 *fill*         0x00000000300b3b68       0x18 
 .bss           0x00000000300b3b80      0x148 debug.o
 *fill*         0x00000000300b3cc8       0x18 
 .bss           0x00000000300b3ce0      0x148 info.o
 *fill*         0x00000000300b3e28       0x18 
 .bss           0x00000000300b3e40      0x148 ports64.o
 *fill*         0x00000000300b3f88       0x18 
 .bss           0x00000000300b3fa0      0x148 pit.o
 *fill*         0x00000000300b40e8       0x18 
 .bss           0x00000000300b4100      0x148 rtc.o
 *fill*         0x00000000300b4248       0x18 
 .bss           0x00000000300b4260      0x148 x64.o
 *fill*         0x00000000300b43a8       0x18 
 .bss           0x00000000300b43c0      0x148 x64info.o
 *fill*         0x00000000300b4508       0x18 
 .bss           0x00000000300b4520      0x148 hal.o
 *fill*         0x00000000300b4668       0x18 
 .bss           0x00000000300b4680      0x148 detect.o
 *fill*         0x00000000300b47c8       0x18 
 .bss           0x00000000300b47e0      0x148 pci.o
 *fill*         0x00000000300b4928       0x18 
 .bss           0x00000000300b4940      0x148 pciinfo.o
 *fill*         0x00000000300b4a88       0x18 
 .bss           0x00000000300b4aa0      0x148 pciscan.o
 *fill*         0x00000000300b4be8       0x18 
 .bss           0x00000000300b4c00      0x148 devmgr.o
 *fill*         0x00000000300b4d48       0x18 
 .bss           0x00000000300b4d60      0x1f9 console.o
 *fill*         0x00000000300b4f59        0x7 
 .bss           0x00000000300b4f60      0x148 tty.o
 *fill*         0x00000000300b50a8       0x18 
 .bss           0x00000000300b50c0      0x148 video.o
 *fill*         0x00000000300b5208       0x18 
 .bss           0x00000000300b5220      0x148 vsync.o
 *fill*         0x00000000300b5368       0x18 
 .bss           0x00000000300b5380      0x148 screen.o
 *fill*         0x00000000300b54c8       0x18 
 .bss           0x00000000300b54e0      0x148 serial.o
 *fill*         0x00000000300b5628       0x18 
 .bss           0x00000000300b5640      0x148 storage.o
 *fill*         0x00000000300b5788       0x18 
 .bss           0x00000000300b57a0      0x168 ata.o
                0x00000000300b57a0                _dev_next_pid
 *fill*         0x00000000300b5908       0x18 
 .bss           0x00000000300b5920      0x148 atadma.o
 *fill*         0x00000000300b5a68       0x18 
 .bss           0x00000000300b5a80      0x148 atahdd.o
 *fill*         0x00000000300b5bc8       0x18 
 .bss           0x00000000300b5be0      0x148 atainit.o
 *fill*         0x00000000300b5d28       0x18 
 .bss           0x00000000300b5d40      0x150 atairq.o
 *fill*         0x00000000300b5e90       0x10 
 .bss           0x00000000300b5ea0      0x148 atapci.o
 *fill*         0x00000000300b5fe8       0x18 
 .bss           0x00000000300b6000      0x148 i8042.o
 *fill*         0x00000000300b6148       0x18 
 .bss           0x00000000300b6160      0x150 ps2kbd.o
 *fill*         0x00000000300b62b0       0x10 
 .bss           0x00000000300b62c0      0x148 ps2mouse.o
 *fill*         0x00000000300b6408       0x18 
 .bss           0x00000000300b6420      0x148 keyboard.o
 *fill*         0x00000000300b6568       0x18 
 .bss           0x00000000300b6580      0x148 mouse.o
 *fill*         0x00000000300b66c8       0x18 
 .bss           0x00000000300b66e0      0x148 font.o
 *fill*         0x00000000300b6828       0x18 
 .bss           0x00000000300b6840      0x148 fs.o
 *fill*         0x00000000300b6988       0x18 
 .bss           0x00000000300b69a0      0x148 network.o
 *fill*         0x00000000300b6ae8       0x18 
 .bss           0x00000000300b6b00      0x148 socket.o
 *fill*         0x00000000300b6c48       0x18 
 .bss           0x00000000300b6c60      0x148 pipe.o
 *fill*         0x00000000300b6da8       0x18 
 .bss           0x00000000300b6dc0      0x148 search.o
 *fill*         0x00000000300b6f08       0x18 
 .bss           0x00000000300b6f20      0x148 disk_r.o
 *fill*         0x00000000300b7068       0x18 
 .bss           0x00000000300b7080      0x148 disk_w.o
 *fill*         0x00000000300b71c8       0x18 
 .bss           0x00000000300b71e0      0x148 sys.o
 *fill*         0x00000000300b7328       0x18 
 .bss           0x00000000300b7340      0x148 io.o
 *fill*         0x00000000300b7488       0x18 
 .bss           0x00000000300b74a0      0x148 ws.o
 *fill*         0x00000000300b75e8       0x18 
 .bss           0x00000000300b7600      0x148 pixel.o
 *fill*         0x00000000300b7748       0x18 
 .bss           0x00000000300b7760      0x148 bg.o
 *fill*         0x00000000300b78a8       0x18 
 .bss           0x00000000300b78c0      0x148 char.o
 *fill*         0x00000000300b7a08       0x18 
 .bss           0x00000000300b7a20      0x148 dtext.o
 *fill*         0x00000000300b7b68       0x18 
 .bss           0x00000000300b7b80      0x148 line.o
 *fill*         0x00000000300b7cc8       0x18 
 .bss           0x00000000300b7ce0      0x148 rect.o
 *fill*         0x00000000300b7e28       0x18 
 .bss           0x00000000300b7e40      0x148 kgws.o
 *fill*         0x00000000300b7f88       0x18 
 .bss           0x00000000300b7fa0      0x148 kgwm.o
 *fill*         0x00000000300b80e8       0x18 
 .bss           0x00000000300b8100      0x148 vt.o
 *fill*         0x00000000300b8248       0x18 
 .bss           0x00000000300b8260      0x148 desktop.o
 *fill*         0x00000000300b83a8       0x18 
 .bss           0x00000000300b83c0      0x148 room.o
 *fill*         0x00000000300b8508       0x18 
 .bss           0x00000000300b8520      0x148 usession.o
 *fill*         0x00000000300b8668       0x18 
 .bss           0x00000000300b8680      0x148 logon.o
 *fill*         0x00000000300b87c8       0x18 
 .bss           0x00000000300b87e0      0x148 logoff.o
 *fill*         0x00000000300b8928       0x18 
 .bss           0x00000000300b8940      0x148 userenv.o
 *fill*         0x00000000300b8a88       0x18 
 .bss           0x00000000300b8aa0      0x148 ts.o
 *fill*         0x00000000300b8be8       0x18 
 .bss           0x00000000300b8c00      0x148 dispatch.o
 *fill*         0x00000000300b8d48       0x18 
 .bss           0x00000000300b8d60      0x148 spawn.o
 *fill*         0x00000000300b8ea8       0x18 
 .bss           0x00000000300b8ec0      0x148 x64cont.o
 *fill*         0x00000000300b9008       0x18 
 .bss           0x00000000300b9020      0x148 x64fault.o
 *fill*         0x00000000300b9168       0x18 
 .bss           0x00000000300b9180      0x148 sched.o
 *fill*         0x00000000300b92c8       0x18 
 .bss           0x00000000300b92e0      0x148 schedi.o
 *fill*         0x00000000300b9428       0x18 
 .bss           0x00000000300b9440      0x148 process.o
 *fill*         0x00000000300b9588       0x18 
 .bss           0x00000000300b95a0      0x148 thread.o
 *fill*         0x00000000300b96e8       0x18 
 .bss           0x00000000300b9700      0x148 threadi.o
 *fill*         0x00000000300b9848       0x18 
 .bss           0x00000000300b9860      0x148 create.o
 *fill*         0x00000000300b99a8       0x18 
 .bss           0x00000000300b99c0      0x148 queue.o
 *fill*         0x00000000300b9b08       0x18 
 .bss           0x00000000300b9b20      0x148 mk.o
 *fill*         0x00000000300b9c68       0x18 
 .bss           0x00000000300b9c80      0x148 memory.o
 *fill*         0x00000000300b9dc8       0x18 
 .bss           0x00000000300b9de0      0x148 mminfo.o
 *fill*         0x00000000300b9f28       0x18 
 .bss           0x00000000300b9f40      0x148 mmpool.o
 *fill*         0x00000000300ba088       0x18 
 .bss           0x00000000300ba0a0      0x148 pages.o
 *fill*         0x00000000300ba1e8       0x18 
 .bss           0x00000000300ba200      0x148 panic.o
 *fill*         0x00000000300ba348       0x18 
 .bss           0x00000000300ba360      0x148 reboot.o
 *fill*         0x00000000300ba4a8       0x18 
 .bss           0x00000000300ba4c0      0x148 request.o
 *fill*         0x00000000300ba608       0x18 
 .bss           0x00000000300ba620      0x148 sci.o
                0x00000000300bb000                . = ALIGN (0x1000)
 *fill*         0x00000000300ba768      0x898 
                0x00000000300bb000                _bss_end = .
                0x00000000300bb000                _kernel_end = .
LOAD head_64.o
LOAD main.o
LOAD x64init.o
LOAD ctype.o
LOAD kstdio.o
LOAD stdlib.o
LOAD string.o
LOAD unistd.o
LOAD runtime.o
LOAD system.o
LOAD signal.o
LOAD init.o
LOAD debug.o
LOAD info.o
LOAD ports64.o
LOAD pit.o
LOAD rtc.o
LOAD x64.o
LOAD x64info.o
LOAD hal.o
LOAD detect.o
LOAD pci.o
LOAD pciinfo.o
LOAD pciscan.o
LOAD devmgr.o
LOAD console.o
LOAD tty.o
LOAD video.o
LOAD vsync.o
LOAD screen.o
LOAD serial.o
LOAD storage.o
LOAD ata.o
LOAD atadma.o
LOAD atahdd.o
LOAD atainit.o
LOAD atairq.o
LOAD atapci.o
LOAD i8042.o
LOAD ps2kbd.o
LOAD ps2mouse.o
LOAD keyboard.o
LOAD mouse.o
LOAD font.o
LOAD fs.o
LOAD network.o
LOAD socket.o
LOAD pipe.o
LOAD search.o
LOAD disk_r.o
LOAD disk_w.o
LOAD sys.o
LOAD io.o
LOAD ws.o
LOAD pixel.o
LOAD bg.o
LOAD char.o
LOAD dtext.o
LOAD line.o
LOAD rect.o
LOAD kgws.o
LOAD kgwm.o
LOAD vt.o
LOAD desktop.o
LOAD room.o
LOAD usession.o
LOAD logon.o
LOAD logoff.o
LOAD userenv.o
LOAD ts.o
LOAD dispatch.o
LOAD spawn.o
LOAD x64cont.o
LOAD x64fault.o
LOAD sched.o
LOAD schedi.o
LOAD process.o
LOAD thread.o
LOAD threadi.o
LOAD create.o
LOAD queue.o
LOAD mk.o
LOAD memory.o
LOAD mminfo.o
LOAD mmpool.o
LOAD pages.o
LOAD panic.o
LOAD reboot.o
LOAD request.o
LOAD sci.o
OUTPUT(KERNEL.BIN elf64-x86-64)

.comment        0x0000000000000000       0x29
 .comment       0x0000000000000000       0x29 main.o
                                         0x2a (size before relaxing)
 .comment       0x0000000000000029       0x2a x64init.o
 .comment       0x0000000000000029       0x2a ctype.o
 .comment       0x0000000000000029       0x2a kstdio.o
 .comment       0x0000000000000029       0x2a stdlib.o
 .comment       0x0000000000000029       0x2a string.o
 .comment       0x0000000000000029       0x2a unistd.o
 .comment       0x0000000000000029       0x2a runtime.o
 .comment       0x0000000000000029       0x2a system.o
 .comment       0x0000000000000029       0x2a signal.o
 .comment       0x0000000000000029       0x2a init.o
 .comment       0x0000000000000029       0x2a debug.o
 .comment       0x0000000000000029       0x2a info.o
 .comment       0x0000000000000029       0x2a ports64.o
 .comment       0x0000000000000029       0x2a pit.o
 .comment       0x0000000000000029       0x2a rtc.o
 .comment       0x0000000000000029       0x2a x64.o
 .comment       0x0000000000000029       0x2a x64info.o
 .comment       0x0000000000000029       0x2a hal.o
 .comment       0x0000000000000029       0x2a detect.o
 .comment       0x0000000000000029       0x2a pci.o
 .comment       0x0000000000000029       0x2a pciinfo.o
 .comment       0x0000000000000029       0x2a pciscan.o
 .comment       0x0000000000000029       0x2a devmgr.o
 .comment       0x0000000000000029       0x2a console.o
 .comment       0x0000000000000029       0x2a tty.o
 .comment       0x0000000000000029       0x2a video.o
 .comment       0x0000000000000029       0x2a vsync.o
 .comment       0x0000000000000029       0x2a screen.o
 .comment       0x0000000000000029       0x2a serial.o
 .comment       0x0000000000000029       0x2a storage.o
 .comment       0x0000000000000029       0x2a ata.o
 .comment       0x0000000000000029       0x2a atadma.o
 .comment       0x0000000000000029       0x2a atahdd.o
 .comment       0x0000000000000029       0x2a atainit.o
 .comment       0x0000000000000029       0x2a atairq.o
 .comment       0x0000000000000029       0x2a atapci.o
 .comment       0x0000000000000029       0x2a i8042.o
 .comment       0x0000000000000029       0x2a ps2kbd.o
 .comment       0x0000000000000029       0x2a ps2mouse.o
 .comment       0x0000000000000029       0x2a keyboard.o
 .comment       0x0000000000000029       0x2a mouse.o
 .comment       0x0000000000000029       0x2a font.o
 .comment       0x0000000000000029       0x2a fs.o
 .comment       0x0000000000000029       0x2a network.o
 .comment       0x0000000000000029       0x2a socket.o
 .comment       0x0000000000000029       0x2a pipe.o
 .comment       0x0000000000000029       0x2a search.o
 .comment       0x0000000000000029       0x2a disk_r.o
 .comment       0x0000000000000029       0x2a disk_w.o
 .comment       0x0000000000000029       0x2a sys.o
 .comment       0x0000000000000029       0x2a io.o
 .comment       0x0000000000000029       0x2a ws.o
 .comment       0x0000000000000029       0x2a pixel.o
 .comment       0x0000000000000029       0x2a bg.o
 .comment       0x0000000000000029       0x2a char.o
 .comment       0x0000000000000029       0x2a dtext.o
 .comment       0x0000000000000029       0x2a line.o
 .comment       0x0000000000000029       0x2a rect.o
 .comment       0x0000000000000029       0x2a kgws.o
 .comment       0x0000000000000029       0x2a kgwm.o
 .comment       0x0000000000000029       0x2a vt.o
 .comment       0x0000000000000029       0x2a desktop.o
 .comment       0x0000000000000029       0x2a room.o
 .comment       0x0000000000000029       0x2a usession.o
 .comment       0x0000000000000029       0x2a logon.o
 .comment       0x0000000000000029       0x2a logoff.o
 .comment       0x0000000000000029       0x2a userenv.o
 .comment       0x0000000000000029       0x2a ts.o
 .comment       0x0000000000000029       0x2a dispatch.o
 .comment       0x0000000000000029       0x2a spawn.o
 .comment       0x0000000000000029       0x2a x64cont.o
 .comment       0x0000000000000029       0x2a x64fault.o
 .comment       0x0000000000000029       0x2a sched.o
 .comment       0x0000000000000029       0x2a schedi.o
 .comment       0x0000000000000029       0x2a process.o
 .comment       0x0000000000000029       0x2a thread.o
 .comment       0x0000000000000029       0x2a threadi.o
 .comment       0x0000000000000029       0x2a create.o
 .comment       0x0000000000000029       0x2a queue.o
 .comment       0x0000000000000029       0x2a mk.o
 .comment       0x0000000000000029       0x2a memory.o
 .comment       0x0000000000000029       0x2a mminfo.o
 .comment       0x0000000000000029       0x2a mmpool.o
 .comment       0x0000000000000029       0x2a pages.o
 .comment       0x0000000000000029       0x2a panic.o
 .comment       0x0000000000000029       0x2a reboot.o
 .comment       0x0000000000000029       0x2a request.o
 .comment       0x0000000000000029       0x2a sci.o

.note.GNU-stack
                0x0000000000000000        0x0
 .note.GNU-stack
                0x0000000000000000        0x0 main.o
 .note.GNU-stack
                0x0000000000000000        0x0 x64init.o
 .note.GNU-stack
                0x0000000000000000        0x0 ctype.o
 .note.GNU-stack
                0x0000000000000000        0x0 kstdio.o
 .note.GNU-stack
                0x0000000000000000        0x0 stdlib.o
 .note.GNU-stack
                0x0000000000000000        0x0 string.o
 .note.GNU-stack
                0x0000000000000000        0x0 unistd.o
 .note.GNU-stack
                0x0000000000000000        0x0 runtime.o
 .note.GNU-stack
                0x0000000000000000        0x0 system.o
 .note.GNU-stack
                0x0000000000000000        0x0 signal.o
 .note.GNU-stack
                0x0000000000000000        0x0 init.o
 .note.GNU-stack
                0x0000000000000000        0x0 debug.o
 .note.GNU-stack
                0x0000000000000000        0x0 info.o
 .note.GNU-stack
                0x0000000000000000        0x0 ports64.o
 .note.GNU-stack
                0x0000000000000000        0x0 pit.o
 .note.GNU-stack
                0x0000000000000000        0x0 rtc.o
 .note.GNU-stack
                0x0000000000000000        0x0 x64.o
 .note.GNU-stack
                0x0000000000000000        0x0 x64info.o
 .note.GNU-stack
                0x0000000000000000        0x0 hal.o
 .note.GNU-stack
                0x0000000000000000        0x0 detect.o
 .note.GNU-stack
                0x0000000000000000        0x0 pci.o
 .note.GNU-stack
                0x0000000000000000        0x0 pciinfo.o
 .note.GNU-stack
                0x0000000000000000        0x0 pciscan.o
 .note.GNU-stack
                0x0000000000000000        0x0 devmgr.o
 .note.GNU-stack
                0x0000000000000000        0x0 console.o
 .note.GNU-stack
                0x0000000000000000        0x0 tty.o
 .note.GNU-stack
                0x0000000000000000        0x0 video.o
 .note.GNU-stack
                0x0000000000000000        0x0 vsync.o
 .note.GNU-stack
                0x0000000000000000        0x0 screen.o
 .note.GNU-stack
                0x0000000000000000        0x0 serial.o
 .note.GNU-stack
                0x0000000000000000        0x0 storage.o
 .note.GNU-stack
                0x0000000000000000        0x0 ata.o
 .note.GNU-stack
                0x0000000000000000        0x0 atadma.o
 .note.GNU-stack
                0x0000000000000000        0x0 atahdd.o
 .note.GNU-stack
                0x0000000000000000        0x0 atainit.o
 .note.GNU-stack
                0x0000000000000000        0x0 atairq.o
 .note.GNU-stack
                0x0000000000000000        0x0 atapci.o
 .note.GNU-stack
                0x0000000000000000        0x0 i8042.o
 .note.GNU-stack
                0x0000000000000000        0x0 ps2kbd.o
 .note.GNU-stack
                0x0000000000000000        0x0 ps2mouse.o
 .note.GNU-stack
                0x0000000000000000        0x0 keyboard.o
 .note.GNU-stack
                0x0000000000000000        0x0 mouse.o
 .note.GNU-stack
                0x0000000000000000        0x0 font.o
 .note.GNU-stack
                0x0000000000000000        0x0 fs.o
 .note.GNU-stack
                0x0000000000000000        0x0 network.o
 .note.GNU-stack
                0x0000000000000000        0x0 socket.o
 .note.GNU-stack
                0x0000000000000000        0x0 pipe.o
 .note.GNU-stack
                0x0000000000000000        0x0 search.o
 .note.GNU-stack
                0x0000000000000000        0x0 disk_r.o
 .note.GNU-stack
                0x0000000000000000        0x0 disk_w.o
 .note.GNU-stack
                0x0000000000000000        0x0 sys.o
 .note.GNU-stack
                0x0000000000000000        0x0 io.o
 .note.GNU-stack
                0x0000000000000000        0x0 ws.o
 .note.GNU-stack
                0x0000000000000000        0x0 pixel.o
 .note.GNU-stack
                0x0000000000000000        0x0 bg.o
 .note.GNU-stack
                0x0000000000000000        0x0 char.o
 .note.GNU-stack
                0x0000000000000000        0x0 dtext.o
 .note.GNU-stack
                0x0000000000000000        0x0 line.o
 .note.GNU-stack
                0x0000000000000000        0x0 rect.o
 .note.GNU-stack
                0x0000000000000000        0x0 kgws.o
 .note.GNU-stack
                0x0000000000000000        0x0 kgwm.o
 .note.GNU-stack
                0x0000000000000000        0x0 vt.o
 .note.GNU-stack
                0x0000000000000000        0x0 desktop.o
 .note.GNU-stack
                0x0000000000000000        0x0 room.o
 .note.GNU-stack
                0x0000000000000000        0x0 usession.o
 .note.GNU-stack
                0x0000000000000000        0x0 logon.o
 .note.GNU-stack
                0x0000000000000000        0x0 logoff.o
 .note.GNU-stack
                0x0000000000000000        0x0 userenv.o
 .note.GNU-stack
                0x0000000000000000        0x0 ts.o
 .note.GNU-stack
                0x0000000000000000        0x0 dispatch.o
 .note.GNU-stack
                0x0000000000000000        0x0 spawn.o
 .note.GNU-stack
                0x0000000000000000        0x0 x64cont.o
 .note.GNU-stack
                0x0000000000000000        0x0 x64fault.o
 .note.GNU-stack
                0x0000000000000000        0x0 sched.o
 .note.GNU-stack
                0x0000000000000000        0x0 schedi.o
 .note.GNU-stack
                0x0000000000000000        0x0 process.o
 .note.GNU-stack
                0x0000000000000000        0x0 thread.o
 .note.GNU-stack
                0x0000000000000000        0x0 threadi.o
 .note.GNU-stack
                0x0000000000000000        0x0 create.o
 .note.GNU-stack
                0x0000000000000000        0x0 queue.o
 .note.GNU-stack
                0x0000000000000000        0x0 mk.o
 .note.GNU-stack
                0x0000000000000000        0x0 memory.o
 .note.GNU-stack
                0x0000000000000000        0x0 mminfo.o
 .note.GNU-stack
                0x0000000000000000        0x0 mmpool.o
 .note.GNU-stack
                0x0000000000000000        0x0 pages.o
 .note.GNU-stack
                0x0000000000000000        0x0 panic.o
 .note.GNU-stack
                0x0000000000000000        0x0 reboot.o
 .note.GNU-stack
                0x0000000000000000        0x0 request.o
 .note.GNU-stack
                0x0000000000000000        0x0 sci.o
