
Allocating common symbols
Common symbol       size              file

_timerShowTextCursor
                    0x4               timer.o
_framepoolBackBuffer3
                    0x4               x86main.o
_guiMenu            0x4               x86main.o
_usessionList       0x40              x86main.o
_terminalOffsetMax  0x4               x86main.o
_g_backbuffer_va    0x4               x86main.o
_g_module_volume_initialized
                    0x4               x86main.o
_server_stdio       0x4               x86main.o
_menuList           0x400             x86main.o
_Graphics           0x4               x86main.o
_framepoolList      0x1000            x86main.o
_dispatcherType     0x4               x86main.o
_pci_handler_address
                    0x4               x86main.o
_mainButton3        0x4               x86main.o
_zicaaaaadasf       0x4               x86main.o
_IdleThread         0x4               x86main.o
_contextESP         0x4               x86cont.o
_Irq9               0x4               x86main.o
_g_frontbuffer_va   0x4               x86main.o
_clientCW           0x4               x86main.o
_userconfig_Status  0x4               x86main.o
_prompt             0x100             x86main.o
_contextEDX         0x4               x86cont.o
_MenuBar            0x4               x86main.o
_semaforo_color     0x4               x86main.o
_g_module_debug_initialized
                    0x4               x86main.o
_threadList         0x1000            x86main.o
_pci_device         0x4               x86main.o
_g_module_disk_initialized
                    0x4               x86main.o
_terminalOffset     0x4               x86main.o
_kernel_heap_end    0x4               x86main.o
_scrolllock_status  0x4               x86main.o
_screenGrid         0x200             x86main.o
_windowzoneStart    0x4               x86main.o
_partition          0x4               x86main.o
_cwArg1             0x4               services.o
_save_client_rect_top
                    0x4               window.o
_dma_addr           0x4               ata.o
_fatbits            0x4               x86main.o
_g9x14fontAddress   0x4               x86main.o
_framepoolBackBuffer2
                    0x4               x86main.o
_CurrentChannel     0x4               x86main.o
_task_switch_status
                    0x4               x86main.o
_ata_record_dev     0x1               x86main.o
_systemzoneEnd      0x4               x86main.o
_CurrentConsole     0x4               x86main.o
_lineOffsetMax      0x4               x86main.o
_delta_x            0x1               x86main.o
_serverSP           0x4               x86main.o
_LocalHostHTTPSocket
                    0x4               x86main.o
_ioControl_mouse    0x4               x86main.o
_GRID               0x4               x86main.o
_cursorIconBuffer   0x4               x86main.o
_preempted_task     0x4               x86main.o
_ActiveWindow       0x4               x86main.o
_mouse_buttom_3     0x4               x86main.o
_screen_height      0x4               screen.o
_capslock_status    0x4               x86main.o
_KernelArgs         0x10              x86main.o
_contextFS          0x4               x86cont.o
_Irq5               0x4               x86main.o
_contextDS          0x4               x86cont.o
_Irq13              0x4               x86main.o
_cwArg2             0x4               services.o
_terminalWindowWithFocus
                    0x4               x86main.o
_Irq2               0x4               x86main.o
_pcideviceList      0x80              x86main.o
_IpcProcedure       0x4               x86main.o
_fullscreen_window  0x4               x86main.o
_contextESI         0x4               x86cont.o
_g_navigationbar_height
                    0x4               x86main.o
_keyboard_message_head
                    0x4               x86main.o
_windowstations_count
                    0x4               x86main.o
_textcursorStatus   0x4               x86main.o
_pmiMemoryInfo      0x4               x86main.o
_current_stdin      0x4               x86main.o
_SavedRect          0x4               x86main.o
_TaskManThread      0x4               x86main.o
_current_volume_string
                    0x4               x86main.o
_mouse_button_action
                    0x4               x86main.o
_Irq15              0x4               x86main.o
_g_module_fs_initialized
                    0x4               x86main.o
_bmp_change_color_flag
                    0x4               x86main.o
_framepoolBackBuffer4
                    0x4               x86main.o
_idleprocessorList  0x80              x86main.o
_g_driver_hdd_initialized
                    0x4               x86main.o
_g9x16fontAddress   0x4               x86main.o
_storage            0x4               x86main.o
_systemzoneStart    0x4               x86main.o
_waiting_procs      0x4               x86main.o
_running_tasks      0x4               x86main.o
_desktop_Conductor2
                    0x4               x86main.o
_pciListOffset      0x4               pci.o
_g_device_screen_width
                    0x4               x86main.o
_desktop_rootConductor
                    0x4               x86main.o
_extra              0x4               x86main.o
_cwArg11            0x4               services.o
_fsbFrames          0x1000            x86main.o
_g_user_space_framepool_index
                    0x4               x86main.o
_Initialization     0x18              x86main.o
_Console            0x4               x86main.o
_next_thread        0x4               x86main.o
_GUI_CONFIG         0x3c              x86main.o
_systemzoneSize     0x4               x86main.o
_rtcError           0x4               rtc.o
_zorderCounter      0x4               x86main.o
_mmFramesSuperBlockTotalUsed
                    0x4               x86main.o
_quantum            0x4               x86main.o
_stderr             0x4               x86main.o
_g_mainwindow_width
                    0x4               x86main.o
_cur_process        0x4               x86main.o
_waiting_list_head  0x4               x86main.o
_FileAccess         0x4               x86main.o
_rtcTicks           0x4               rtc.o
_g_logged           0x4               x86main.o
_file_TaskMan       0x4               x86main.o
_RGBA               0x4               x86main.o
_desktop0           0x4               x86main.o
_processNewPID      0x4               process.o
_cwArg8             0x4               services.o
_blocked_list_head  0x4               x86main.o
_current_dev        0x4               ata.o
_nicList            0x20              x86main.o
_gui                0x4               x86main.o
_CurrentUserSession
                    0x4               x86main.o
_g_device_screen_height
                    0x4               x86main.o
_g_mousepointer_height
                    0x4               x86main.o
_g_module_uem_initialized
                    0x4               x86main.o
_processor          0x4               x86main.o
_userList           0x40              x86main.o
_prompt_pos         0x4               x86main.o
_saved_mouse_x      0x4               x86main.o
_cwArg3             0x4               services.o
_Irq10              0x4               x86main.o
_Conductor          0x4               x86main.o
_ide_handler_address
                    0x4               x86main.o
_RemoteRequests     0x4               x86main.o
_Process            0x4               x86main.o
_mbr                0x4               x86main.o
_current_mmblock    0x4               x86main.o
_deviceList         0x400             x86main.o
___spinlock_ipc     0x4               x86main.o
_ASpace             0x4               x86main.o
_objects_um         0xc0c0            x86main.o
_mmFramesSuperBlockSize
                    0x4               x86main.o
_kernel_stack_start
                    0x4               x86main.o
_Rtc                0x4               x86main.o
_caller_process_id  0x4               process.o
_start_new_task_address
                    0x4               x86main.o
_g_module_gui_initialized
                    0x4               x86main.o
_file_Init          0x4               x86main.o
_KeInitPhase        0x4               x86main.o
_windows_count      0x4               x86main.o
_timerColor         0x4               timer.o
_pagetableList      0x1000            x86main.o
_combobox_window    0x4               x86main.o
_framepoolBackBuffer1
                    0x4               x86main.o
_g_driver_video_initialized
                    0x4               x86main.o
_active_window      0x4               x86main.o
_objects_km         0xc0c0            x86main.o
_vfs                0x4               x86main.o
_current_pci_device
                    0x4               x86main.o
_file_InitTXT       0x4               x86main.o
_g_show_text_cursor
                    0x4               x86main.o
_Hardware           0x4               x86main.o
_DefaultUserSession
                    0x4               x86main.o
_mm_prev_pointer    0x4               memory.o
_cwArg9             0x4               services.o
_current_process    0x4               x86main.o
_mmglobalInitialingVAR
                    0x4               x86main.o
_appIconBuffer      0x4               x86main.o
_current_desktop    0x4               x86main.o
_picError           0x4               pic.o
_Cursor             0x4               x86main.o
_numlock_status     0x4               x86main.o
_requestList        0x80              x86main.o
_usession0          0x4               x86main.o
_g_gramadocore_shell_heap_size
                    0x4               x86main.o
_videoError         0x4               video.o
_CurrentSocket      0x4               x86main.o
_TaskBar            0x4               x86main.o
_g_module_logoff_initialized
                    0x4               x86main.o
_pagetableCurrent   0x4               x86main.o
_timerTextCursorStatus
                    0x4               timer.o
_usession_Conductor
                    0x4               x86main.o
_g8x14fontAddress   0x4               x86main.o
_Irq12              0x4               x86main.o
_timerStatus        0x4               timer.o
_mainButton1        0x4               x86main.o
_scStatus           0x4               x86main.o
_stdin              0x4               x86main.o
_g_frontbuffer_pa   0x4               x86main.o
_old_mouse_buttom_1
                    0x4               x86main.o
_sata_pci           0x54              x86main.o
_gStreams           0x4               x86main.o
_mmFramesSuperBlockTotalFree
                    0x4               x86main.o
_gcharWidth         0x4               x86main.o
_logonMenu          0x4               x86main.o
_gTaskmanPageDirectoryAddress
                    0x4               x86main.o
_savedmouseoverwindowY
                    0x4               x86main.o
_file_BootLoader    0x4               x86main.o
_socketList         0x80              x86main.o
_g_module_logon_initialized
                    0x4               x86main.o
_client_stderr      0x4               x86main.o
_next_address       0x4               x86main.o
_destroy_window     0x4               x86main.o
_dispatcherQueueIndex
                    0x4               x86main.o
_fileIconBuffer     0x4               x86main.o
_room0              0x4               x86main.o
_kernel_heap_start  0x4               x86main.o
_g8x16fontAddress   0x4               x86main.o
_g_current_object   0x4               x86main.o
_PrideColorScheme   0x4               x86main.o
_current_room       0x4               x86main.o
_mac_address        0x4               x86main.o
_queue              0x4               x86main.o
_system_disk        0x4               x86main.o
_DispatchCountBlock
                    0x4               x86main.o
_current_dead_process
                    0x4               x86main.o
_cwArg10            0x4               services.o
_shift_status       0x4               x86main.o
_ide_dma_prdt       0x20              x86main.o
_current_directory  0x4               x86main.o
_vfs_handle_list    0x800             x86main.o
_sys_time_ms        0x4               x86main.o
_kernel_stack_start_pa
                    0x4               x86main.o
_rect               0x4               x86main.o
_partition_chars    0x4               x86main.o
_logonStatus        0x4               x86main.o
_framepoolFrontBuffer3
                    0x4               x86main.o
_current_window     0x4               x86main.o
_terminalIconBuffer
                    0x4               x86main.o
_g_available_heap   0x4               x86main.o
_start_new_task_id  0x4               x86main.o
_process_Conductor2
                    0x4               x86main.o
_g_heap_count       0x4               x86main.o
_alt_status         0x4               x86main.o
_schedulerType      0x4               x86main.o
_g_cursor_width     0x4               x86main.o
_current_disk       0x4               x86main.o
_volume1_rootdir    0x4               x86main.o
_g_new_message      0x4               x86main.o
_pwd_initialized    0x4               x86main.o
_Firmware           0x4               x86main.o
_volume_bootpartition
                    0x4               x86main.o
_file_BootManager   0x4               x86main.o
_current_dead_thread
                    0x4               x86main.o
_current_keyboard_responder
                    0x4               x86main.o
_system_message_write
                    0x4               x86main.o
_semaforo_priority  0x4               x86main.o
_mouseover_window   0x4               x86main.o
_kbMsgStatus        0x4               x86main.o
_g_module_objectmanager_initialized
                    0x4               x86main.o
_terminalActiveWindow
                    0x4               x86main.o
_ata_record_channel
                    0x1               x86main.o
_zorderTopWindow    0x4               x86main.o
_list               0x10000           write.o
_gKernelPageDirectoryAddress
                    0x4               x86main.o
_g_current_framepool
                    0x4               x86main.o
_current_taskman_server
                    0x4               x86main.o
_picStatus          0x4               pic.o
_DefaultUser        0x4               x86main.o
_task_color         0x4               x86main.o
_framepoolFrontBuffer1
                    0x4               x86main.o
_contextEIP         0x4               x86cont.o
_heapCount          0x4               x86main.o
_windowzoneEnd      0x4               x86main.o
_current_filesystem
                    0x4               x86main.o
_Thread             0x4               x86main.o
_g_pagedpool_va     0x4               x86main.o
_current_stderr     0x4               x86main.o
_ProcessorBlock     0x30              x86main.o
_current_mouse_responder
                    0x4               x86main.o
_pagedirectoryIdleProcess
                    0x4               x86main.o
_client_stdio       0x4               x86main.o
_KernelRequests     0x4               x86main.o
_volume_vfs         0x4               x86main.o
_SATAFlag           0x4               ahci.o
_g_mousepointer_x   0x4               x86main.o
_usersession_start  0x4               x86main.o
_g_cursor_top       0x4               x86main.o
_processors_count   0x4               x86main.o
_CurrentProcedure   0x4               x86main.o
_mmFramesSuperBlockTotal
                    0x4               x86main.o
_periodic_procs     0x4               x86main.o
_g_inputmode        0x4               x86main.o
_UserHeap           0x4               x86main.o
_keyboard_handler_address
                    0x4               x86main.o
_kernel_stack_end   0x4               x86main.o
_file_Kernel        0x4               x86main.o
_g_object_manager_status
                    0x4               x86main.o
_g_cursor_right     0x4               x86main.o
_desktop_Conductor  0x4               x86main.o
_cwFlag             0x4               services.o
_InitProcess        0x4               x86main.o
_system_volume      0x4               x86main.o
_microkernelStatus  0x4               x86main.o
_zones              0x4               x86main.o
_lineBuffer         0x4               x86main.o
_miMemoryInfo       0x4               x86main.o
_desktopDefault     0x4               x86main.o
_g_module_runtime_initialized
                    0x4               x86main.o
_screen_width       0x4               screen.o
_ioControl_keyboard
                    0x4               x86main.o
_pci_supported      0x4               pci.o
_file_LA            0x4               x86main.o
_VersionInfo        0x4               x86main.o
_inode_list         0x800             x86main.o
_nic_idt_entry_new_address
                    0x4               nicintel.o
_file_CFE           0x4               x86main.o
_system_procs       0x4               x86main.o
_window_with_focus  0x4               x86main.o
_g_proc_status      0x4               x86main.o
_framepoolCurrent   0x4               x86main.o
_desktopList        0x40              x86main.o
_gNextKeyboardMessage
                    0x4               x86main.o
_pagedirectoryShared
                    0x4               x86main.o
_g_heappool_va      0x4               x86main.o
_idle               0x4               x86main.o
_g_spc              0x4               x86main.o
_cwArg12            0x4               services.o
_KernelHeap         0x4               x86main.o
_Signal             0x4               signal.o
_pagedirectoryCurrent
                    0x4               x86main.o
_gLogonPID          0x4               x86main.o
_CurrentWindow      0x4               x86main.o
_g_product_type     0x4               x86main.o
_vbr                0x4               x86main.o
_Irq14              0x4               x86main.o
_g_nstream          0x4               x86main.o
_g_heap_pointer     0x4               x86main.o
_LineShell          0x4               x86main.o
_mouse_pos_x        0x4               x86main.o
_ipcStatus          0x4               x86main.o
_WindowWithFocus    0x4               x86main.o
_task_count         0x4               x86main.o
_Screen             0x4               x86main.o
_pipe_gramadocore_init_execve
                    0x4               x86main.o
_channelList        0x80              x86main.o
_g_kernel_nonpaged_memory
                    0x4               x86main.o
_timer_handler_address
                    0x4               x86main.o
_kernel_switch      0x4               x86main.o
_old_mouse_buttom_3
                    0x4               x86main.o
_guiStatus          0x4               x86main.o
_window_rootConductor
                    0x4               x86main.o
_terminalLineMax    0x4               x86main.o
_heapList           0x20              x86main.o
_cwArg5             0x4               services.o
_ttyCurrentX        0x4               x86main.o
_volume2_rootdir    0x4               x86main.o
_CurrentDesktop     0x4               x86main.o
_DriveContext       0x4               x86main.o
_prompt_err         0x100             x86main.o
_abnt2              0x4               x86main.o
_gFocusBlocked      0x4               x86main.o
_current_socket     0x4               x86main.o
_sata_handler_address
                    0x4               x86main.o
_desktops_count     0x4               x86main.o
_KernelPages        0x4               x86main.o
_directory_entry_list
                    0x800             x86main.o
_g_driver_apic_initialized
                    0x4               x86main.o
__lockfocus         0x4               x86main.o
_file_download      0x4               x86main.o
_saved_mouse_y      0x4               x86main.o
_contextGS          0x4               x86cont.o
_current_usersession
                    0x4               x86main.o
_g_video_mode       0x4               x86main.o
_fat                0x4               x86main.o
_ttyCurrentY        0x4               x86main.o
_stdio_verbosemode_flag
                    0x4               x86main.o
_file_bin           0x4               x86main.o
_mmFramesSuperBlockEnd
                    0x4               x86main.o
_processList        0x1000            x86main.o
_Mind               0x10              debug.o
_memorysizeExtendedMemory
                    0x4               x86main.o
_Irq8               0x4               x86main.o
_lineLine           0x4               x86main.o
_gPagedPollStart    0x4               x86main.o
_roomList           0x40              x86main.o
_g_backbuffer_pa    0x4               x86main.o
_systemzone         0x4               x86main.o
_keyboard_message_tail
                    0x4               x86main.o
_ata_pci            0x54              x86main.o
_ATAFlag            0x4               x86main.o
_sys_time_hz        0x4               x86main.o
_gLogoffPID         0x4               x86main.o
_gfontSize          0x4               x86main.o
_start_new_task_status
                    0x4               x86main.o
_CurrentProcess     0x4               x86main.o
_pageList           0x1000            x86main.o
_framepoolFrontBuffer4
                    0x4               x86main.o
_current_semaphore  0x4               x86main.o
_thread_failed_flag
                    0x4               x86fault.o
_realtimeprocessorList
                    0x80              x86main.o
_timer_cursor_used  0x4               x86main.o
_g_gramadocore_init_heap_size
                    0x4               x86main.o
_clientCP           0x4               x86main.o
_cwArg7             0x4               services.o
_g_gramadocore_init_heap_va
                    0x4               x86main.o
_g_total_physical_memory
                    0x4               x86main.o
_ready_list_head    0x4               x86main.o
_g_mousepointer_width
                    0x4               x86main.o
_usession_rootConductor
                    0x4               x86main.o
_current_terminal   0x4               x86main.o
_line_stderr        0x4               x86main.o
_lineOffset         0x4               x86main.o
_window_Conductor2  0x4               x86main.o
_g_machine_type     0x4               x86main.o
_contextEFLAGS      0x4               x86cont.o
_client_stdout      0x4               x86main.o
_eventStatus        0x4               x86main.o
_Irq11              0x4               x86main.o
_current_stdout     0x4               x86main.o
_pageframeCurrent   0x4               x86main.o
_ipcBuffer          0x4               x86main.o
_newtask_EIP        0x4               x86main.o
_top_window         0x4               x86main.o
_flagRefreshMouseOver
                    0x4               ps2mouse.o
_menuitemDefault    0x4               x86main.o
_hddError           0x4               hdd.o
_g_scheduler_status
                    0x4               x86main.o
_FULLSCREEN_TABWINDOW
                    0x4               x86main.o
_quit_message       0x4               x86main.o
_network_status     0x4               network.o
_TaskManProcess     0x4               x86main.o
_LineHead           0x4               x86main.o
_ide_ports          0x60              x86main.o
_SystemUser         0x4               x86main.o
_current_quantum    0x4               x86main.o
_stdout             0x4               x86main.o
_activeprocessorList
                    0x80              x86main.o
_windowzoneSize     0x4               x86main.o
_g_driver_rtc_initialized
                    0x4               x86main.o
_SystemClasses      0xc               x86main.o
_objects_gui        0xc0c0            x86main.o
_g_navigationbar_width
                    0x4               x86main.o
_timerIdleState     0x4               timer.o
_gws_currentfont_address
                    0x4               x86main.o
_windowList         0x1000            x86main.o
_gPagedPollEnd      0x4               x86main.o
_windowzone         0x4               x86main.o
_ShellThread        0x4               x86main.o
_file_CS            0x4               x86main.o
_contextECX         0x4               x86cont.o
_Streams            0x80              x86main.o
_Irq6               0x4               x86main.o
_timerError         0x4               timer.o
_gInitPageDirectoryAddress
                    0x4               x86main.o
_IDE                0x14              x86main.o
_g_cursor_left      0x4               x86main.o
_g_system_color     0x4               x86main.o
_defaultChannel     0x4               x86main.o
_g_cursor_bottom    0x4               x86main.o
_Irq3               0x4               x86main.o
_realtimeStatus     0x4               x86main.o
_editbox_window     0x4               x86main.o
_kernel_request     0x4               x86main.o
_idle_thread        0x4               x86main.o
_g_pageable_framepool_index_max
                    0x4               x86main.o
_current_thread     0x4               x86main.o
_Pipes              0x20              x86main.o
_processorsList     0x80              x86main.o
_fsStatus           0x4               window.o
_Bank               0x4               x86main.o
_fileBuffer         0x4               x86main.o
_timer_cursor_status
                    0x4               x86main.o
_g_current_vm       0x4               x86main.o
_rectClientArea     0x4               x86main.o
_file_Shell         0x4               x86main.o
_xxxxsavemessage    0x4               window.o
_current_target_dir
                    0x2c              x86main.o
_contextEBP         0x4               x86cont.o
_schedulerQueue     0x10              x86main.o
_systemSize         0x4               x86main.o
_object             0x4               x86main.o
_gDeveloperOptions  0x4               x86main.o
_keybuffer          0x80              x86main.o
_zorder             0x4               x86main.o
_keyboard_queue     0x120             x86main.o
_last_size          0x4               memory.o
_forkid             0x4               x86main.o
_menus_count        0x4               x86main.o
_current_volume     0x4               x86main.o
_shutdown_address   0x4               x86main.o
_ioControl          0x80              x86main.o
_devices            0x4               x86main.o
_terminalLine       0x4               x86main.o
_serialportError    0x4               x86main.o
_desktop1           0x4               x86main.o
_gcharHeight        0x4               x86main.o
_g_use_default_user
                    0x4               x86main.o
_mouse_buttom_1     0x4               x86main.o
_RING0IDLEThread    0x4               x86main.o
_lock_taskswitch    0x4               ts.o
_mouse_status       0x1               x86main.o
_framepoolFrontBuffer2
                    0x4               x86main.o
_pipe_execve        0x4               x86main.o
_g_gramadocore_taskman_heap_va
                    0x4               x86main.o
_diskList           0x1000            x86main.o
_server_stderr      0x4               x86main.o
_ready_queue_dev    0x4               ata.o
_Conductor2         0x4               x86main.o
_KernelClasses      0x4               x86main.o
_last_valid         0x4               memory.o
_fsbFreeFrames      0x1000            x86main.o
_old_mouse_buttom_2
                    0x4               x86main.o
_screenBuffers      0x4               x86main.o
_current_process_pagedirectory_address
                    0x4               x86main.o
_rr_procs           0x4               x86main.o
_KernelProcess      0x4               x86main.o
_delta_y            0x1               x86main.o
_framepoolPageableSpace
                    0x4               x86main.o
_save_client_rect_left
                    0x4               window.o
_lineLineMax        0x4               x86main.o
_KernelHeapSize     0x4               x86main.o
_HostDeviceInfo     0x4               x86main.o
_prompt_out         0x100             x86main.o
_demand_paging_flag
                    0x4               x86fault.o
_bmp_selected_color
                    0x4               x86main.o
_g_driver_pci_initialized
                    0x4               x86main.o
_file_cluster_list  0x800             x86main.o
_escape_status      0x4               x86main.o
_memorysizeOtherMemory
                    0x4               x86main.o
_IpcProcedureEx     0x4               x86main.o
_mmblockList        0x8000            x86main.o
_g_driver_timer_initialized
                    0x4               x86main.o
_cwArg4             0x4               services.o
_HostInfo           0x4               x86main.o
_ata_identify_dev_buf
                    0x4               x86main.o
_Irq0               0x4               x86main.o
_file_dd            0x4               x86main.o
_DSpace             0x4               x86main.o
_g_next_app         0x4               x86main.o
_gws_status         0x4               gws.o
_g_gramadocore_taskman_heap_size
                    0x4               x86main.o
_timerList          0x80              x86main.o
_file_libs          0x4               x86main.o
_idle_proc          0x4               x86main.o
_clientCR           0x4               x86main.o
_g_useGUI           0x4               x86main.o
_g_filesystem_type  0x4               x86main.o
_Irq4               0x4               x86main.o
_dirCount           0x4               x86main.o
_ShellProcess       0x4               x86main.o
_keybuffer_head     0x4               x86main.o
_contextCS          0x4               x86cont.o
_CurrentBuffer      0x4               x86main.o
_CurrentColorScheme
                    0x4               x86main.o
_next_quantum       0x4               x86main.o
_process_rootConductor
                    0x4               x86main.o
_dev_nport          0x20              x86main.o
_stdio_terminalmode_flag
                    0x4               x86main.o
_menuDefault        0x4               x86main.o
_framepoolSmallSystemUserSpace
                    0x4               x86main.o
_ata                0x18              x86main.o
_rtcStatus          0x4               rtc.o
_zicaaa             0x4               x86main.o
_rootConductor      0x4               x86main.o
_mouse_pos_y        0x4               x86main.o
_gSystemStatus      0x4               x86main.o
_DeveloperWindowCursor
                    0x4               x86main.o
_fatal_error_flag   0x4               x86fault.o
_videoStatus        0x4               video.o
_tab_status         0x4               x86main.o
_Version            0x4               x86main.o
_file_pwd           0x4               x86main.o
_userenvironmentStatus
                    0x4               x86main.o
_g_guiMinimal       0x4               x86main.o
_time_out           0x4               x86main.o
_current_file       0x4               x86main.o
_pagedirectoryKernelProcess
                    0x4               x86main.o
_g_mainwindow_height
                    0x4               x86main.o
_VideoBlock         0x1c              x86main.o
_System             0x4               x86main.o
_KernelSize         0x4               x86main.o
_Line               0x4               x86main.o
_dispatcherReadyList
                    0x28              x86main.o
_ScreenInfo         0x4               x86main.o
_CurrentCursor      0x4               x86main.o
_g8x8fontAddress    0x4               x86main.o
_KernelStackSize    0x4               x86main.o
_zica               0x4               x86main.o
_save_client_rect_height
                    0x4               window.o
_keybuffer_index    0x4               x86main.o
_g_cursor_color     0x4               x86main.o
_memorysizeTotal    0x4               x86main.o
_pageAllocList      0x1000            x86main.o
_g_system_mode      0x4               x86main.o
_Irq1               0x4               x86main.o
_g_current_video_mode
                    0x4               x86main.o
_g_heap_count_max   0x4               x86main.o
_cur_thread         0x4               x86main.o
_current_group      0x4               x86main.o
_process_Conductor  0x4               x86main.o
_BackBufferInfo     0x4               x86main.o
_file_users         0x4               x86main.o
_conductorIndex     0x4               x86main.o
_cwArg6             0x4               services.o
_g_mousepointer_y   0x4               x86main.o
_g_framepool_max    0x4               x86main.o
_task_waiting       0x4               x86main.o
_keybuffer_tail     0x4               x86main.o
_g_cursor_y         0x4               x86main.o
_volume_systempartition
                    0x4               x86main.o
_nic_idt_entry_new_number
                    0x1               nicintel.o
_Irq7               0x4               x86main.o
_banksCount         0x4               x86main.o
_Pic                0x4               x86main.o
_Platform           0x4               x86main.o
_system_message_read
                    0x4               x86main.o
_contextEAX         0x4               x86cont.o
_errno              0x4               x86main.o
_old                0x4               x86main.o
_g_heap_size        0x4               x86main.o
_zorderList         0x200             x86main.o
_contextEBX         0x4               x86cont.o
_gSystemEdition     0x4               x86main.o
_pagedirectoryList  0x1000            x86main.o
_framepoolMediumSystemUserSpace
                    0x4               x86main.o
_menubarDefault     0x4               x86main.o
_filesystem         0x4               x86main.o
_logoffStatus       0x4               x86main.o
_current_user       0x4               x86main.o
_WindowProcedure    0x4               x86main.o
_framepoolKernelSpace
                    0x4               x86main.o
_memorysizeBaseMemory
                    0x4               x86main.o
_key_status         0x4               x86main.o
_server_stdout      0x4               x86main.o
_contextEDI         0x4               x86cont.o
_timerLock          0x4               timer.o
_g_file_system_type
                    0x4               x86main.o
_currentNIC         0x4               x86main.o
_g_gramadocore_shell_heap_va
                    0x4               x86main.o
_mmblockCount       0x4               x86main.o
_prompt_status      0x4               x86main.o
_pagedirectoryTaskmanProcess
                    0x4               x86main.o
_ambiente           0x4               x86main.o
_framepoolLargeSystemUserSpace
                    0x4               x86main.o
_g_platform_type    0x4               x86main.o
_folderIconBuffer   0x4               x86main.o
_line_stdin         0x4               x86main.o
_g_kernel_paged_memory
                    0x4               x86main.o
_mmFramesSuperBlockStart
                    0x4               x86main.o
_mouseBMPBuffer     0x4               x86main.o
_contextES          0x4               x86cont.o
_g_driver_keyboard_initialized
                    0x4               x86main.o
_rtc                0x4               x86main.o
_gws_wm_PID         0x4               gws.o
_bmp_substitute_color
                    0x4               x86main.o
_window_Conductor   0x4               x86main.o
_lastBank           0x4               x86main.o
_e1000_interrupt_flag
                    0x4               x86main.o
_gws_wm_status      0x4               gws.o
_hddStatus          0x4               hdd.o
_g_mm_system_type   0x4               x86main.o
_g_kernel_lfb       0x4               x86main.o
_PciDrivers         0x4               x86main.o
_system_message_queue
                    0x80              x86main.o
_usession_Conductor2
                    0x4               x86main.o
_terminal_window    0x4               x86main.o
_mainButton2        0x4               x86main.o
_CurrentScreen      0x4               x86main.o
_sys_time_ticks_total
                    0x4               x86main.o
_queueList          0x20              x86main.o
_save_client_rect_width
                    0x4               window.o
_ttyLineCounter     0x4               x86main.o
_g_char_attrib      0x4               x86main.o
_HumilityColorScheme
                    0x4               x86main.o
_window_mouse_over  0x4               x86main.o
_file_tmp           0x4               x86main.o
_ctrl_status        0x4               x86main.o
_e1000_irq_count    0x4               x86main.o
_g_module_shell_initialized
                    0x4               x86main.o
_g_next_proc        0x4               x86main.o
_semaphoreList      0x84              x86main.o
_file_CWE           0x4               x86main.o
_winkey_status      0x4               x86main.o
_FrontBufferInfo    0x4               x86main.o
_g_current_list     0x4               x86main.o
_savedmouseoverwindowX
                    0x4               x86main.o
_line_stdout        0x4               x86main.o
_g_module_mm_initialized
                    0x4               x86main.o
_contextSS          0x4               x86cont.o
_g_cursor_height    0x4               x86main.o
_current_workingdiretory_string
                    0x20              x86main.o
_gShellPageDirectoryAddress
                    0x4               x86main.o
_volumeList         0x1000            x86main.o
_TERMINAL           0x220             x86main.o
_g_nova_mensagem    0x4               x86main.o
_current_menu       0x4               x86main.o
_pmiCurrent         0x4               x86main.o
_Pci                0x4               x86main.o
_timerLine          0x4               timer.o
_g_cursor_x         0x4               x86main.o
_UserRequests       0x4               x86main.o
_mouse_buttom_2     0x4               x86main.o
_CurrentUser        0x4               x86main.o

Memory Configuration

Name             Origin             Length             Attributes
*default*        0x0000000000000000 0xffffffffffffffff

Linker script and memory map


.text           0x00000000c0001000    0x29000
                0x00000000c0001000                _code_begin = .
 *(.head_x86)
 .head_x86      0x00000000c0001000      0x1b7 head.o
                0x00000000c0001000                _kernel_begin
                0x00000000c000118c                __die
                0x00000000c000118f                _SavedBootBlock
                0x00000000c0001193                _SavedLFB
                0x00000000c0001197                _SavedX
                0x00000000c000119b                _SavedY
                0x00000000c000119f                _SavedBPP
                0x00000000c00011a3                _SavedBootMode
                0x00000000c00011a7                _kArg1
                0x00000000c00011ab                _kArg2
                0x00000000c00011af                _kArg3
                0x00000000c00011b3                _kArg4
 *(.text)
 *fill*         0x00000000c00011b7        0x9 
 .text          0x00000000c00011c0     0x5ec4 head.o
                0x00000000c00011c0                _gdt
                0x00000000c00011f8                _end_gdt
                0x00000000c00011fc                _GDT_register
                0x00000000c0001202                _idt
                0x00000000c0001a06                _IDT_register
                0x00000000c0001a0c                _KernelStatus
                0x00000000c0001a10                _task_switch_salva_esp
                0x00000000c0005b3e                _setup_system_interrupt
                0x00000000c0005df2                _asm_nic_create_new_idt_entry
                0x00000000c0005e05                _nic_handler
                0x00000000c0005e15                _do_executa_new_task
                0x00000000c0005e5d                _test_cpuid_support
                0x00000000c0005e7c                _get_page_dir
                0x00000000c0005e80                _set_page_dir
                0x00000000c0005e84                _get_page_fault_adr
                0x00000000c0005e88                _halt
                0x00000000c0005ebb                _setup_idt_vector
                0x00000000c0005efc                _enable_pse
                0x00000000c0005f08                _asm_shut_down
                0x00000000c0005f0c                _asm_reboot
                0x00000000c0005f19                _irq0
                0x00000000c0006020                _dispatch_context
                0x00000000c000608f                _timer_test
                0x00000000c0006096                _enter_user_mode
                0x00000000c0006098                _exec_new_task
                0x00000000c00068aa                _irq1
                0x00000000c00068d4                _irq3
                0x00000000c00068df                _irq4
                0x00000000c00068ea                _irq7
                0x00000000c00068f5                _irq8
                0x00000000c0006905                _irq9
                0x00000000c0006910                _irq10
                0x00000000c000691b                _irq11
                0x00000000c0006926                _irq12
                0x00000000c0006944                _irq13
                0x00000000c0006951                _irq14
                0x00000000c0006963                _irq15
                0x00000000c0006982                _fault_N0
                0x00000000c0006991                _fault_N1
                0x00000000c00069a0                _fault_N2
                0x00000000c00069af                _fault_N3
                0x00000000c00069be                _fault_N4
                0x00000000c00069cd                _fault_N5
                0x00000000c00069dc                _fault_INTRUCAO_INVALIDA
                0x00000000c00069eb                _fault_N7
                0x00000000c00069fa                _fault_DOUBLE
                0x00000000c0006a09                _fault_N9
                0x00000000c0006a18                _fault_N10
                0x00000000c0006a27                _fault_N11
                0x00000000c0006a36                _fault_STACK
                0x00000000c0006a45                _fault_GP
                0x00000000c0006a54                _fault_N14
                0x00000000c0006a63                _fault_N15
                0x00000000c0006a72                _fault_N16
                0x00000000c0006a81                _fault_N17
                0x00000000c0006a90                _fault_N18
                0x00000000c0006a9f                _fault_N19
                0x00000000c0006aae                _fault_N20
                0x00000000c0006abd                _fault_N21
                0x00000000c0006ac9                _fault_N22
                0x00000000c0006ad5                _fault_N23
                0x00000000c0006ae1                _fault_N24
                0x00000000c0006aed                _fault_N25
                0x00000000c0006af9                _fault_N26
                0x00000000c0006b05                _fault_N27
                0x00000000c0006b11                _fault_N28
                0x00000000c0006b1d                _fault_N29
                0x00000000c0006b29                _fault_N30
                0x00000000c0006b35                _fault_N31
                0x00000000c0006bd2                _hd_buffer
                0x00000000c0006bd6                _hd_lba
                0x00000000c0006bda                _turn_task_switch_on
                0x00000000c0006bf5                _turn_task_switch_off
                0x00000000c0006c10                _os_read_sector
                0x00000000c0006c29                _os_write_sector
                0x00000000c0006d16                _reset_ide0
                0x00000000c0006d7f                _hour
                0x00000000c0006d80                _minute
                0x00000000c0006d81                _second
                0x00000000c0006d82                _CMOS_GET_DATE
                0x00000000c0006dc6                _int48
                0x00000000c0006dcd                _int49
                0x00000000c0006dd4                _int50
                0x00000000c0006ddb                _int51
                0x00000000c0006de2                _int52
                0x00000000c0006de9                _int53
                0x00000000c0006df0                _int54
                0x00000000c0006df7                _int100
                0x00000000c0006dfe                _int128
                0x00000000c0006e1e                _int201
                0x00000000c0006e25                _int213
                0x00000000c0006e2c                _int216
                0x00000000c0006efc                _um_buffer_putpixel
                0x00000000c0006f00                _swlib_backbuffer_putpixel
                0x00000000c0006f02                _swlib_lfb_putpixel
                0x00000000c0006f07                _gui_buffer_putpixel
                0x00000000c0006f91                _gui_buffer_putpixel2
                0x00000000c000701b                _background
                0x00000000c0007062                _asm_refresh_screen
 .text          0x00000000c0007084      0x9d1 x86main.o
                0x00000000c0007090                _x86mainStartFirstThread
                0x00000000c00072d4                _startStartIdle
                0x00000000c0007484                _x86main
 .text          0x00000000c0007a55       0x5c io.o
                0x00000000c0007a55                _ioServices
                0x00000000c0007a9f                _ioInit
 .text          0x00000000c0007ab1      0x2ad hal.o
                0x00000000c0007ab1                _hal_backbuffer_putpixel
                0x00000000c0007ad0                _hal_lfb_putpixel
                0x00000000c0007aef                _sys_vsync
                0x00000000c0007afd                _sys_showpciinfo
                0x00000000c0007b0a                _sys_reboot
                0x00000000c0007b28                _sys_shutdown
                0x00000000c0007b46                _hal_hardware_detect
                0x00000000c0007b50                _hal_showpciinfo
                0x00000000c0007b5d                _init_cpu
                0x00000000c0007c08                _hal_set_machine_type
                0x00000000c0007c16                _hal_get_machine_type
                0x00000000c0007c20                _hal_init_machine
                0x00000000c0007c80                _getGdt
                0x00000000c0007c8a                _getIdt
                0x00000000c0007c94                _hal_vsync
                0x00000000c0007ca2                _hal_shutdown
                0x00000000c0007cc0                _shutdown
                0x00000000c0007cd9                _KiReboot
                0x00000000c0007cf7                _KiShutDown
                0x00000000c0007d15                _hal_reboot
                0x00000000c0007d33                _init_hal
 .text          0x00000000c0007d5e      0x422 mk.o
                0x00000000c0007d5e                _jobcontrol
                0x00000000c0007e70                _jobcheck
                0x00000000c0007f46                _microkernelTestLimit
                0x00000000c0007f4c                _sys_dead_thread_collector
                0x00000000c0007f5a                _sys_exit_process
                0x00000000c0007f74                _sys_exit_thread
                0x00000000c0007f8b                _sys_create_process
                0x00000000c0007fbe                _sys_create_thread
                0x00000000c0007feb                _sys_fork
                0x00000000c0007ff8                _sys_getpid
                0x00000000c0008002                _sys_getppid
                0x00000000c000806d                _KeReboot
                0x00000000c0008073                _init_microkernel
 .text          0x00000000c0008180      0x5e2 execve.o
                0x00000000c0008180                _executive_gramado_core_init_execve
                0x00000000c000845c                _executive_gramado_core_init_execve_exe
                0x00000000c00086f2                _sys_showkernelinfo
                0x00000000c0008700                _init_executive
 .text          0x00000000c0008762      0x26e video.o
                0x00000000c0008762                _videoSetupCGAStartAddress
                0x00000000c0008770                _videoGetMode
                0x00000000c000877a                _videoSetMode
                0x00000000c0008846                _videoInit
                0x00000000c00089b2                _videoVideo
 .text          0x00000000c00089d0      0x109 screen.o
                0x00000000c00089d0                _screenGetWidth
                0x00000000c00089da                _screenGetHeight
                0x00000000c00089e4                _screenSetSize
                0x00000000c00089fa                _refresh_screen
                0x00000000c0008a1c                _screenRefresh
                0x00000000c0008a3e                _screenInit
 .text          0x00000000c0008ad9       0x4b runtime.o
                0x00000000c0008ad9                _init_runtime
                0x00000000c0008afa                _KiInitRuntime
 .text          0x00000000c0008b24      0x24b portsx86.o
                0x00000000c0008b24                _kinportb
                0x00000000c0008b39                _koutportb
                0x00000000c0008b46                _inb
                0x00000000c0008b5b                _outb
                0x00000000c0008b68                _inportb
                0x00000000c0008b7d                _outportb
                0x00000000c0008b8a                _inport8
                0x00000000c0008b9f                _outport8
                0x00000000c0008bac                _inport16
                0x00000000c0008bc3                _outport16
                0x00000000c0008bd1                _inport32
                0x00000000c0008be5                _outport32
                0x00000000c0008bf2                _inportl
                0x00000000c0008c06                _outportl
                0x00000000c0008cea                _kernelProcessorInPort8
                0x00000000c0008cf9                _kernelProcessorOutPort8
                0x00000000c0008d06                _kernelProcessorInPort16
                0x00000000c0008d16                _kernelProcessorOutPort16
                0x00000000c0008d24                _kernelProcessorInPort32
                0x00000000c0008d33                _kernelProcessorOutPort32
                0x00000000c0008d40                _wait_ns
 .text          0x00000000c0008d6f      0x236 x86.o
                0x00000000c0008d6f                _enable
                0x00000000c0008d7a                _disable
                0x00000000c0008d85                _stopCpu
                0x00000000c0008d8d                _intReturn
                0x00000000c0008d94                _farReturn
                0x00000000c0008d9b                _getFlags
                0x00000000c0008da6                _setFlags
                0x00000000c0008db1                _Push
                0x00000000c0008dbb                _Pop
                0x00000000c0008dc5                _pushRegs
                0x00000000c0008dcc                _popRegs
                0x00000000c0008dd3                _pushFlags
                0x00000000c0008dda                _popFlags
                0x00000000c0008de1                _getStackPointer
                0x00000000c0008dec                _setStackPointer
                0x00000000c0008df7                _cpux86_enable_caches
                0x00000000c0008e1a                _init_intel
                0x00000000c0008e31                _show_cpu_intel_parameters
 .text          0x00000000c0008fa5     0x1044 stdio.o
                0x00000000c0008fa5                _fclose
                0x00000000c0009013                _fopen
                0x00000000c0009144                _fread
                0x00000000c000914e                _fwrite
                0x00000000c0009158                _fflush
                0x00000000c00091ec                _scroll
                0x00000000c00091f2                _kclear
                0x00000000c0009242                _kclearClientArea
                0x00000000c0009258                _kprint
                0x00000000c0009623                _printf
                0x00000000c0009640                _puts
                0x00000000c000965b                _panic
                0x00000000c00096bf                _sprintf
                0x00000000c00096de                _fprintf
                0x00000000c0009713                _fputs
                0x00000000c0009787                _ungetc
                0x00000000c00097c1                _ftell
                0x00000000c00097e3                _fileno
                0x00000000c00097fb                _fgetc
                0x00000000c00098aa                _feof
                0x00000000c00098e2                _ferror
                0x00000000c00098fd                _fseek
                0x00000000c000996d                _fputc
                0x00000000c00099bf                _fscanf
                0x00000000c00099dc                _rewind
                0x00000000c0009a4e                _putchar
                0x00000000c0009a67                _input
                0x00000000c0009bf7                _stdioInitialize
                0x00000000c0009f27                _REFRESH_STREAM
 .text          0x00000000c0009fe9       0x78 stdlib.o
                0x00000000c0009fe9                _rand
                0x00000000c000a006                _malloc
                0x00000000c000a042                _free
 .text          0x00000000c000a061      0x51f string.o
                0x00000000c000a061                _strcmp
                0x00000000c000a0c6                _strncmp
                0x00000000c000a129                _str_cmp
                0x00000000c000a1a6                _memcpy
                0x00000000c000a1e3                _memcpy32
                0x00000000c000a21f                _strcpy
                0x00000000c000a253                _strcat
                0x00000000c000a282                _bcopy
                0x00000000c000a2ae                _bzero
                0x00000000c000a2ce                _strlen
                0x00000000c000a2fc                _memset
                0x00000000c000a343                _strcspn
                0x00000000c000a3e2                _strspn
                0x00000000c000a481                _strtok_r
                0x00000000c000a568                _strtok
 .text          0x00000000c000a580        0xa tty.o
                0x00000000c000a580                _ttyInit
 .text          0x00000000c000a58a      0x51d init.o
                0x00000000c000a58a                _save_kernel_args
                0x00000000c000a590                _boot
                0x00000000c000a5a9                _init_architecture_dependent
                0x00000000c000a646                _init_architecture_independent
                0x00000000c000a732                _init_globals
                0x00000000c000a895                _init
 .text          0x00000000c000aaa7      0x779 logon.o
                0x00000000c000aaa7                _create_logon
                0x00000000c000ad3b                _ExitLogon
                0x00000000c000ad7e                _SetLogonParameters
                0x00000000c000ae29                _logon_create_screen
                0x00000000c000aedb                _logon_create_background
                0x00000000c000afa2                _logon_create_mainwindow
                0x00000000c000b0b5                _logon_create_logo
                0x00000000c000b0bb                _logon_create_taskbar
                0x00000000c000b0c1                _logon_create_controlmenu
                0x00000000c000b0c7                _logon_create_infobox
                0x00000000c000b0cd                _logon_create_messagebox
                0x00000000c000b0d3                _logon_create_debug
                0x00000000c000b0d9                _logon_create_navigationbar
                0x00000000c000b0df                _logon_create_grid
                0x00000000c000b0e5                _logon_create_developer_screen
                0x00000000c000b0eb                _LogonProcedure
                0x00000000c000b13f                _init_logon
 .text          0x00000000c000b220       0xe6 logoff.o
                0x00000000c000b220                _StartLogoff
                0x00000000c000b23d                _init_logoff
 .text          0x00000000c000b306      0x4cb detect.o
                0x00000000c000b306                _get_cpu_intel_parameters
                0x00000000c000b643                _cpu_get_parameters
                0x00000000c000b650                _KeTestCPU
                0x00000000c000b662                _hal_probe_cpu
                0x00000000c000b709                _hal_probe_processor_type
 .text          0x00000000c000b7d1       0x15 cpuamd.o
                0x00000000c000b7d1                _get_cpu_amd_parameters
                0x00000000c000b7d7                _init_amd
 .text          0x00000000c000b7e6      0xb09 memory.o
                0x00000000c000b7e6                _get_process_heap_pointer
                0x00000000c000b888                _SetKernelHeap
                0x00000000c000b922                _heapAllocateMemory
                0x00000000c000bafd                _FreeHeap
                0x00000000c000bbbd                _show_memory_structs
                0x00000000c000bc46                _init_heap
                0x00000000c000bd7a                _init_stack
                0x00000000c000bde4                _memoryShowMemoryInfo
                0x00000000c000c026                _init_mm
                0x00000000c000c14b                _gcGRAMADO
                0x00000000c000c155                _gcEXECUTIVE
                0x00000000c000c27a                _gcMICROKERNEL
                0x00000000c000c284                _gcHAL
                0x00000000c000c28e                _gc
 .text          0x00000000c000c2ef      0xfa9 pages.o
                0x00000000c000c2ef                _CreatePageDirectory
                0x00000000c000c355                _CreatePageTable
                0x00000000c000c443                _SetCR3
                0x00000000c000c45c                _mapping_nic0_device_address
                0x00000000c000c4d1                _SetUpPaging
                0x00000000c000ce02                _initializeFramesAlloc
                0x00000000c000ce90                _allocPages
                0x00000000c000d00b                _pEmpty
                0x00000000c000d01a                _freePage
                0x00000000c000d04a                _notfreePage
                0x00000000c000d07a                _firstSlotForAList
                0x00000000c000d0e2                _testingPageAlloc
                0x00000000c000d222                _virtual_to_physical
 .text          0x00000000c000d298      0x120 mmpool.o
                0x00000000c000d298                _page
                0x00000000c000d341                _newPage
 .text          0x00000000c000d3b8        0x0 apic.o
 .text          0x00000000c000d3b8        0x0 pic.o
 .text          0x00000000c000d3b8      0x6bb timer.o
                0x00000000c000d3b8                _KiTimer
                0x00000000c000d3c6                _timerEnableTextCursor
                0x00000000c000d3d6                _timerDisableTextCursor
                0x00000000c000d3e6                _timer
                0x00000000c000d610                _new_timer_id
                0x00000000c000d648                _create_timer
                0x00000000c000d880                _timerInit8253
                0x00000000c000d8e5                _set_quantum
                0x00000000c000d8f3                _get_quantum
                0x00000000c000d8fd                _set_current_quantum
                0x00000000c000d90b                _get_current_quantum
                0x00000000c000d915                _set_next_quantum
                0x00000000c000d923                _get_next_quantum
                0x00000000c000d92d                _now
                0x00000000c000d93a                _get_systime_hz
                0x00000000c000d944                _get_systime_ms
                0x00000000c000d94e                _get_systime_totalticks
                0x00000000c000d958                _get_systime_info
                0x00000000c000d989                _sleep
                0x00000000c000d9a7                _set_timeout
                0x00000000c000d9b5                _get_timeout
                0x00000000c000d9bf                _timerTimer
                0x00000000c000d9e7                _timerInit
 .text          0x00000000c000da73      0x359 rtc.o
                0x00000000c000da73                _KiRtcIrq
                0x00000000c000da81                _rtc_irq
                0x00000000c000dad7                _read_cmos_bcd
                0x00000000c000db44                _get_time
                0x00000000c000db88                _get_date
                0x00000000c000dbd2                _rtcGetExtendedMemory
                0x00000000c000dc2d                _rtcGetBaseMemory
                0x00000000c000dc88                _get_cmos_info
                0x00000000c000dda0                _init_clock
 .text          0x00000000c000ddcc       0xeb keyboard.o
                0x00000000c000ddcc                _abnt2_keyboard_handler
                0x00000000c000de1f                _get_scancode
                0x00000000c000de85                _KiKeyboard
 .text          0x00000000c000deb7        0xe mouse.o
                0x00000000c000deb7                _mouse_handler
 .text          0x00000000c000dec5      0x6dc ldisc.o
                0x00000000c000dec5                _LINE_DISCIPLINE
                0x00000000c000dfe6                _KEYBOARD_LINE_DISCIPLINE
                0x00000000c000e4b9                _MOUSE_LINE_DISCIPLINE
                0x00000000c000e506                _initialize_system_message_queue
 .text          0x00000000c000e5a1      0x428 hdd.o
                0x00000000c000e5d7                _hdd_ata_pio_write
                0x00000000c000e60d                _hdd_ata_status_read
                0x00000000c000e63b                _hdd_ata_wait_not_busy
                0x00000000c000e67b                _hdd_ata_cmd_write
                0x00000000c000e6cb                _hdd_ata_wait_no_drq
                0x00000000c000e711                _pio_rw_sector
                0x00000000c000e975                _my_read_hd_sector
                0x00000000c000e995                _my_write_hd_sector
                0x00000000c000e9b5                _init_hdd
 .text          0x00000000c000e9c9      0xa6c pci.o
                0x00000000c000e9c9                _KiPciHandler1
                0x00000000c000e9d3                _KiPciHandler2
                0x00000000c000e9dd                _KiPciHandler3
                0x00000000c000e9e7                _KiPciHandler4
                0x00000000c000e9f1                _pciConfigReadByte
                0x00000000c000ea95                _pciConfigReadWord
                0x00000000c000eb3c                _pciConfigReadDWord
                0x00000000c000ebd0                _pciCheckVendor
                0x00000000c000ebfa                _pciCheckDevice
                0x00000000c000ec24                _pciGetClassCode
                0x00000000c000ec4e                _pciGetSubClass
                0x00000000c000ec78                _pciGetHeaderType
                0x00000000c000eca2                _pciGetBAR
                0x00000000c000ed94                _pciGetInterruptLine
                0x00000000c000edbe                _pciGetInterruptPin
                0x00000000c000ede8                _pciInfo
                0x00000000c000eef2                _pciShowDeviceInfo
                0x00000000c000ef72                _pciHandleDevice
                0x00000000c000f200                _pci_setup_devices
                0x00000000c000f339                _init_pci
                0x00000000c000f418                _pciInit
 .text          0x00000000c000f435        0x6 usb.o
                0x00000000c000f435                _usbInit
 .text          0x00000000c000f43b      0x306 ahci.o
                0x00000000c000f43b                _diskSATAPCIConfigurationSpace
                0x00000000c000f64e                _ahciSATAInitialize
 .text          0x00000000c000f741        0x6 devmgr.o
                0x00000000c000f741                _init_device_manager
 .text          0x00000000c000f747      0x1fd spawn.o
                0x00000000c000f753                _KiSpawnTask
                0x00000000c000f798                _spawn_thread
 .text          0x00000000c000f944        0x6 callout.o
                0x00000000c000f944                _KiCalloutTest
 .text          0x00000000c000f94a        0x6 callfar.o
                0x00000000c000f94a                _KiCallfarTest
 .text          0x00000000c000f950      0xe98 process.o
                0x00000000c000f950                _do_fork_process
                0x00000000c000fa97                _processObject
                0x00000000c000fad0                _getNewPID
                0x00000000c000fb0b                _processTesting
                0x00000000c000fb58                _processSendSignal
                0x00000000c000fb8a                _processCopyProcess
                0x00000000c000fe96                _create_process
                0x00000000c0010197                _CloseAllProcesses
                0x00000000c00101ff                _KeSaveCurrentContext
                0x00000000c0010205                _KeRestoreCurrentContext
                0x00000000c001020b                _KeCpuFaults
                0x00000000c0010222                _KeSpawnTask
                0x00000000c0010239                _KeSelectNextThread
                0x00000000c001024f                _KeCheckTaskContext
                0x00000000c0010265                _KeInitTasks
                0x00000000c0010273                _KeCreateTask
                0x00000000c001027d                _KeInitTask
                0x00000000c0010287                _KeFork
                0x00000000c0010291                _KeExecProcess
                0x00000000c001029b                _KeDispatchProcess
                0x00000000c00102a1                _KeDoProcessReady
                0x00000000c00102a7                _KeDoProcessRunning
                0x00000000c00102ad                _KeDoProcessSleeping
                0x00000000c00102b3                _KeDoProcessZombie
                0x00000000c00102b9                _KeDoProcessDead
                0x00000000c00102bf                _KeStartProcess
                0x00000000c00102c5                _KeWakeupProcess
                0x00000000c00102cb                _KeProcessExit
                0x00000000c00102d1                _KeKillProcess
                0x00000000c00102d7                _KeNewProcessScheduler
                0x00000000c00102dd                _KeSetPriority
                0x00000000c00102e7                _KeIncreasePriority
                0x00000000c00102f1                _KeSaveContextOfNewTask
                0x00000000c00102f7                _KeReloadCurrentTask
                0x00000000c00102fd                _KeSetQuantum
                0x00000000c0010303                _KeGetQuantum
                0x00000000c001030d                _KeSetCurrentQuantum
                0x00000000c0010313                _KeGetCurrentQuantum
                0x00000000c001031d                _KeSetNextQuantum
                0x00000000c0010323                _KeGetNextQuantum
                0x00000000c001032d                _KeSetFocus
                0x00000000c0010333                _KeGetFocus
                0x00000000c001033d                _KeDebugBreakpoint
                0x00000000c0010343                _KeShowTasksParameters
                0x00000000c0010349                _KeMostraSlots
                0x00000000c001034f                _KeMostraSlot
                0x00000000c0010355                _KeMostraReg
                0x00000000c001035b                _KeShowPreemptedTask
                0x00000000c0010361                _show_currentprocess_info
                0x00000000c0010498                _show_process_information
                0x00000000c0010545                _SetProcessDirectory
                0x00000000c001055d                _GetProcessDirectory
                0x00000000c0010578                _GetPageDirValue
                0x00000000c0010585                _init_task
                0x00000000c001058f                _init_tasks
                0x00000000c001059d                _init_processes
                0x00000000c00105e9                _dead_task_collector
                0x00000000c00105ef                _exit_process
                0x00000000c00106f4                _get_caller_process_id
                0x00000000c00106fe                _set_caller_process_id
                0x00000000c001070c                _init_process_manager
                0x00000000c001072a                _GetProcessHeapStart
                0x00000000c0010789                _GetProcessPageDirectoryAddress
 .text          0x00000000c00107e8        0x0 pheap.o
 .text          0x00000000c00107e8      0x6d1 thread.o
                0x00000000c00107e8                _create_thread
                0x00000000c0010bdf                _GetCurrentThreadId
                0x00000000c0010be9                _GetCurrentThread
                0x00000000c0010c2c                _FindReadyThread
                0x00000000c0010c8a                _SelectForExecution
                0x00000000c0010cbc                _GetThreadState
                0x00000000c0010cd4                _GetThreadType
                0x00000000c0010cec                _show_thread_information
                0x00000000c0010d89                _init_threads
                0x00000000c0010e0a                _thread_getchar
 .text          0x00000000c0010eb9      0x63e threadi.o
                0x00000000c0010eb9                _KiShowPreemptedTask
                0x00000000c0010ebf                _KiSetTaskStatus
                0x00000000c0010ed6                _KiGetTaskStatus
                0x00000000c0010ee3                _KiSaveContextOfNewTask
                0x00000000c0010ee9                _KiReloadCurrentTask
                0x00000000c0010eef                _KiSetQuantum
                0x00000000c0010ef5                _KiGetQuantum
                0x00000000c0010eff                _KiSetCurrentQuantum
                0x00000000c0010f05                _KiGetCurrentQuantum
                0x00000000c0010f0f                _KiSetNextQuantum
                0x00000000c0010f15                _KiGetNextQuantum
                0x00000000c0010f1f                _KiSetFocus
                0x00000000c0010f25                _KiGetFocus
                0x00000000c0010f2f                _KiDebugBreakpoint
                0x00000000c0010f35                _KiShowTasksParameters
                0x00000000c0010f3b                _KiMostraSlots
                0x00000000c0010f49                _KiMostraSlot
                0x00000000c0010f60                _KiMostraReg
                0x00000000c0010f66                _KiShowThreadList
                0x00000000c0010f74                _mostra_slots
                0x00000000c0010fe0                _mostra_slot
                0x00000000c00110ea                _mostra_reg
                0x00000000c00111f5                _set_thread_priority
                0x00000000c001124c                _SetThreadDirectory
                0x00000000c0011263                _GetThreadDirectory
                0x00000000c001127b                _show_preempted_task
                0x00000000c0011281                _show_tasks_parameters
                0x00000000c0011287                _release
                0x00000000c00112d1                _exit_thread
                0x00000000c001133f                _kill_thread
                0x00000000c00113fe                _dead_thread_collector
                0x00000000c00114ca                _kill_all_threads
 .text          0x00000000c00114f7       0x1b theap.o
                0x00000000c00114f7                _GetThreadHeapStart
 .text          0x00000000c0011512       0x1c tstack.o
                0x00000000c0011512                _GetThreadStackStart
 .text          0x00000000c001152e      0xf17 create.o
                0x00000000c001152e                _fork
                0x00000000c0011538                _KiFork
                0x00000000c0011542                _KiCreateIdle
                0x00000000c001196f                _KiCreateShell
                0x00000000c0011d04                _KiCreateTaskManager
                0x00000000c0012099                _xxxRing0Idle
                0x00000000c00120a9                _KiCreateRing0Idle
 .text          0x00000000c0012445      0x1a2 x86start.o
                0x00000000c0012445                _KeStartShell
                0x00000000c001245e                _KeStartTaskManager
                0x00000000c0012477                _start_task
                0x00000000c0012497                _reload_current_task
                0x00000000c001249d                _switch_to_user_mode
                0x00000000c00124b6                _executa_tarefa
                0x00000000c001259e                _KiSwitchToUserMode
                0x00000000c00125ac                _KiExecutaTarefa
                0x00000000c00125b6                _KiInitTask
                0x00000000c00125d9                _KiInitTasks
 .text          0x00000000c00125e7      0x49a x86cont.o
                0x00000000c00125f3                _save_current_context
                0x00000000c00127a6                _restore_current_context
                0x00000000c0012939                _contextCheckThreadRing0Context
                0x00000000c0012943                _contextCheckThreadRing3Context
                0x00000000c0012a49                _KiCheckTaskContext
                0x00000000c0012a5f                _KiSaveCurrentContext
                0x00000000c0012a6d                _KiRestoreCurrentContext
                0x00000000c0012a7b                _save_context_of_new_task
 .text          0x00000000c0012a81       0x18 tasks.o
                0x00000000c0012a81                _task0
                0x00000000c0012a87                _task1
                0x00000000c0012a8d                _task2
                0x00000000c0012a93                _task3
 .text          0x00000000c0012a99      0x6eb ts.o
                0x00000000c0012a99                _KiTaskSwitch
                0x00000000c0012b17                _task_switch
                0x00000000c0013009                _taskswitchRR
                0x00000000c001314c                _set_task_status
                0x00000000c001315a                _get_task_status
                0x00000000c0013164                _taskswitch_lock
                0x00000000c0013174                _taskswitch_unlock
 .text          0x00000000c0013184      0xfa7 queue.o
                0x00000000c0013184                _init_queue
                0x00000000c00135fc                _queue_insert_data
                0x00000000c0013ac3                _queue_insert_head
                0x00000000c0013c79                _queue_get_data
                0x00000000c0013e2d                _show_queue_information
                0x00000000c0013ec1                _ScanReadyQueue
                0x00000000c0013f7a                _feed_ready_queue
 .text          0x00000000c001412b      0x12b sched.o
                0x00000000c001412b                _scheduler
                0x00000000c0014205                _scheduler_start
                0x00000000c0014220                _scheduler_lock
                0x00000000c0014230                _scheduler_unlock
                0x00000000c0014240                _scheduler_get_status
                0x00000000c001424a                _new_task_scheduler
                0x00000000c0014250                _init_scheduler
 .text          0x00000000c0014256      0x792 schedi.o
                0x00000000c0014256                _do_wait
                0x00000000c00142ea                _block_for_a_reason
                0x00000000c0014360                _wakeup_thread_reason
                0x00000000c0014488                _wakeup_scan_thread_reason
                0x00000000c00144f5                _KiScheduler
                0x00000000c001452d                _KiSelectNextThread
                0x00000000c0014551                _KiDoThreadReady
                0x00000000c0014568                _KiDoThreadRunning
                0x00000000c001457f                _KiDoThreadSleeping
                0x00000000c0014596                _KiDoThreadZombie
                0x00000000c00145ad                _KiDoThreadDead
                0x00000000c00145c4                _KiNewTaskScheduler
                0x00000000c00145ca                _KiDispatchTask
                0x00000000c00145d0                _KiSetCurrent
                0x00000000c00145e7                _KiGetCurrent
                0x00000000c00145f4                _KiGetCurrentTask
                0x00000000c0014601                _get_current
                0x00000000c001460b                _get_current_task
                0x00000000c0014615                _set_current
                0x00000000c0014641                _do_thread_initialized
                0x00000000c0014678                _do_thread_ready
                0x00000000c00146af                _do_thread_running
                0x00000000c00146fe                _do_thread_sleeping
                0x00000000c0014735                _do_thread_zombie
                0x00000000c0014775                _do_thread_dead
                0x00000000c00147ac                _wakeup_thread
                0x00000000c0014805                _SelectNextThread
                0x00000000c00148bb                _check_for_standby
                0x00000000c0014979                _check_quantum
 .text          0x00000000c00149e8       0xbe preempt.o
                0x00000000c00149e8                _preempt
 .text          0x00000000c0014aa6      0x15a priority.o
                0x00000000c0014aa6                _set_priority
                0x00000000c0014adf                _KiSetPriority
                0x00000000c0014aec                _KiIncreasePriority
                0x00000000c0014af6                _find_higher_priority
                0x00000000c0014bf6                _KiFindHigherPriority
 .text          0x00000000c0014c00      0x86e dispatch.o
                0x00000000c0014c00                _dispatcher
                0x00000000c0014d13                _readyDispatcher
                0x00000000c0014d84                _syscoopDispatcher
                0x00000000c0014e21                _usercoopDispatcher
                0x00000000c0014ebe                _sysconcDispatcher
                0x00000000c0014f5b                _userconcDispatcher
                0x00000000c0014ff8                _systemDispatcher
                0x00000000c0015002                _idleDispatcher
                0x00000000c001500c                _periodicDispatcher
                0x00000000c0015016                _rrDispatcher
                0x00000000c0015020                _realtimeDispatcher
                0x00000000c001508d                _dispatch_Default
                0x00000000c001524b                _dispatch_thread2
                0x00000000c0015290                _dispatch_thread
                0x00000000c0015311                _init_dispatcher
                0x00000000c00153ba                _IncrementDispatcherCount
 .text          0x00000000c001546e       0xdf sem.o
                0x00000000c001546e                _init_semaphore
                0x00000000c001548e                _Down
                0x00000000c00154d5                _Up
                0x00000000c001550f                _semaphore_down
                0x00000000c0015520                _semaphore_up
                0x00000000c0015531                _create_semaphore
                0x00000000c001553b                _delete_semaphore
                0x00000000c0015541                _open_semaphore
                0x00000000c0015547                _close_semaphore
 .text          0x00000000c001554d        0x6 modules.o
                0x00000000c001554d                _modulesModules
 .text          0x00000000c0015553     0x113e nicintel.o
                0x00000000c0015553                _PCIRegisterIRQHandler
                0x00000000c0015587                _e1000_init_nic
                0x00000000c0015a7c                _xxxe1000handler
                0x00000000c0015eff                _e1000_setup_irq
                0x00000000c0015f51                _e1000_reset_controller
                0x00000000c00163ca                _E1000WriteCommand
                0x00000000c00163ed                _E1000ReadCommand
                0x00000000c001640a                _E1000AllocCont
                0x00000000c0016483                _E1000Send
                0x00000000c00165c3                _send_ipv4_packet
                0x00000000c00165e8                _nic_i8254x_transmit
                0x00000000c0016601                _E1000ReadEEPROM
 .text          0x00000000c0016691      0xc42 network.o
                0x00000000c0016691                _networkSetstatus
                0x00000000c00166ad                _networkGetStatus
                0x00000000c00166b7                _networkInit
                0x00000000c001677b                _show_network_info
                0x00000000c0016831                _show_current_nic_info
                0x00000000c0016b53                _handle_ipv6
                0x00000000c0016b9a                _testNIC
                0x00000000c0016c6f                _SendIPV4
                0x00000000c0016fcf                _SendARP
 .text          0x00000000c00172d3       0xbc socket.o
                0x00000000c00172d3                _create_socket
                0x00000000c0017326                _getSocketIP
                0x00000000c001733e                _getSocketPort
                0x00000000c001735a                _update_socket
 .text          0x00000000c001738f        0xa sm.o
                0x00000000c001738f                _init_systemserver
 .text          0x00000000c0017399       0xa7 channel.o
                0x00000000c0017399                _CreateChannel
                0x00000000c00173e6                _DestroyChannel
                0x00000000c00173fe                _OpenChannel
                0x00000000c001741f                _CloseChannel
 .text          0x00000000c0017440       0x63 ipc.o
                0x00000000c0017440                _ipcProcedure
                0x00000000c001744a                _ipcProcedureEx
                0x00000000c0017454                _ipc_dispatch_message
                0x00000000c001749d                _init_ipc
 .text          0x00000000c00174a3      0x5e6 read.o
                0x00000000c00174a3                _read_fntos
                0x00000000c00175cd                _fatClustToSect
                0x00000000c00175f5                _fatLoadCluster
                0x00000000c0017631                _read_lba
                0x00000000c0017667                _fsLoadFile
                0x00000000c0017846                _fs_load_fatEx
                0x00000000c0017895                _load_directory
                0x00000000c00178df                _fs_load_rootdir
                0x00000000c00178ff                _fs_load_rootdirEx
                0x00000000c001790d                _fs_load_dir
                0x00000000c0017913                _fsGetFileSize
 .text          0x00000000c0017a89      0x641 write.o
                0x00000000c0017a89                _write_fntos
                0x00000000c0017bb3                _fatWriteCluster
                0x00000000c0017bef                _write_lba
                0x00000000c0017c5c                _fsSaveFile
                0x00000000c00180b2                _fs_save_rootdir
                0x00000000c00180b8                _fs_save_dir
                0x00000000c00180be                _fs_save_entry_on_root
                0x00000000c00180c4                _fs_save_structure
 .text          0x00000000c00180ca       0xe5 cf.o
                0x00000000c00180ca                _fs_create_dir
                0x00000000c00180d4                _fs_create_file
                0x00000000c001819d                _fs_create_entry
                0x00000000c00181a3                _fs_create_name
                0x00000000c00181a9                _create_system_folders
 .text          0x00000000c00181af      0x2f3 search.o
                0x00000000c00181af                _KiSearchFile
                0x00000000c00182b6                _fsSearchFile
                0x00000000c00183ae                _fs_find_empty_entry
                0x00000000c00183b8                _findEmptyDirectoryEntry
                0x00000000c0018411                _fs_find_n_empty_entries
                0x00000000c001848c                _fsSearchFileName
 .text          0x00000000c00184a2       0x1a format.o
                0x00000000c00184a2                _fs_apaga_fat
                0x00000000c00184b0                _fs_delete_entry
                0x00000000c00184b6                _fsClearFat
 .text          0x00000000c00184bc       0x41 atainit.o
                0x00000000c00184bc                _diskATADialog
 .text          0x00000000c00184fd      0x12b atairq.o
                0x00000000c00184fd                _diskATAIRQHandler1
                0x00000000c001850d                _diskATAIRQHandler2
                0x00000000c001851d                _disk_get_ata_irq_invoked
                0x00000000c0018527                _disk_reset_ata_irq_invoked
                0x00000000c0018537                _ata_wait_irq
                0x00000000c00185ae                _disk_ata_wait_irq
 .text          0x00000000c0018628      0x803 atapci.o
                0x00000000c0018628                _diskReadPCIConfigAddr
                0x00000000c0018687                _diskWritePCIConfigAddr
                0x00000000c00186eb                _diskPCIScanDevice
                0x00000000c00187f3                _diskATAPCIConfigurationSpace
 .text          0x00000000c0018e2b      0x19c atadma.o
                0x00000000c0018e2b                _ide_dma_data
                0x00000000c0018f03                _ide_dma_start
                0x00000000c0018f3d                _ide_dma_stop
                0x00000000c0018fa8                _ide_dma_read_status
 .text          0x00000000c0018fc7     0x1307 ata.o
                0x00000000c0018fc7                _ata_wait
                0x00000000c0018ff9                _ata_wait_not_busy
                0x00000000c0019027                _ata_wait_busy
                0x00000000c0019055                _ata_wait_no_drq
                0x00000000c0019089                _ata_wait_drq
                0x00000000c00190bd                _ata_soft_reset
                0x00000000c0019116                _ata_status_read
                0x00000000c0019132                _ata_cmd_write
                0x00000000c0019167                _ata_assert_dever
                0x00000000c001920c                _ide_identify_device
                0x00000000c00198f8                _set_ata_addr
                0x00000000c001994e                _ide_mass_storage_initialize
                0x00000000c00199f3                _ide_dev_init
                0x00000000c0019db8                _nport_ajuste
                0x00000000c0019e10                _ata_pio_read
                0x00000000c0019e35                _ata_pio_write
                0x00000000c0019e5a                _diskATAInitialize
                0x00000000c001a17b                _show_ide_info
 .text          0x00000000c001a2ce      0x89a diskvol.o
                0x00000000c001a2ce                _diskShowCurrentDiskInfo
                0x00000000c001a2fe                _diskShowDiskInfo
                0x00000000c001a40d                _disk_get_disk_handle
                0x00000000c001a432                _disk_get_current_disk_info
                0x00000000c001a43c                _disk_init
                0x00000000c001a528                _init_test_disk
                0x00000000c001a52e                _volumeShowCurrentVolumeInfo
                0x00000000c001a55e                _volumeShowVolumeInfo
                0x00000000c001a6a6                _volume_get_volume_handle
                0x00000000c001a6cb                _volume_get_current_volume_info
                0x00000000c001a6f1                _volume_init
                0x00000000c001a8bf                _get_ide_disk_info
                0x00000000c001a96e                _show_ideports_info
 .text          0x00000000c001ab68     0x1120 fs.o
                0x00000000c001ab68                _fsCheckELFFile
                0x00000000c001abc3                _fsCheckPEFile
                0x00000000c001ac04                _fsListFiles
                0x00000000c001ac70                _fsCreateVFS
                0x00000000c001ac76                _fsList
                0x00000000c001acf7                _fsFAT16ListFiles
                0x00000000c001ad82                _KeLoadFile
                0x00000000c001ad8c                _get_file
                0x00000000c001ada8                _set_file
                0x00000000c001adcc                _fs_test_fat_vector
                0x00000000c001add2                _fs_get_fat_entry
                0x00000000c001addc                _fs_set_fat_entry
                0x00000000c001ade2                _fs_put_list_on_fat
                0x00000000c001ade8                _fs_set_structures
                0x00000000c001adee                _fs_set_entry
                0x00000000c001adf4                _fs_get_entry
                0x00000000c001adfa                _fs_show_dir_entry
                0x00000000c001ae00                _fs_show_dir
                0x00000000c001ae06                _fs_check_cluster
                0x00000000c001ae10                _fs_check_fat
                0x00000000c001ae1a                _fs_show_entry
                0x00000000c001ae20                _fs_get_entry_status
                0x00000000c001ae2a                _fs_set_entry_status
                0x00000000c001ae30                _fsCheckMbrFile
                0x00000000c001afa4                _fsCheckVbrFile
                0x00000000c001b00a                _fs_check_disk
                0x00000000c001b010                _MountShortFileName
                0x00000000c001b0f6                _set_spc
                0x00000000c001b104                _get_spc
                0x00000000c001b10e                _get_filesystem_type
                0x00000000c001b118                _set_filesystem_type
                0x00000000c001b126                _fs_init_fat
                0x00000000c001b197                _fs_init_structures
                0x00000000c001b288                _fsInit
                0x00000000c001b478                _fsInitializeWorkingDiretoryString
                0x00000000c001b582                _fsInitTargetDir
                0x00000000c001b592                _fs_initialize_process_pwd
                0x00000000c001b668                _fs_print_process_pwd
                0x00000000c001b72d                _fsUpdateWorkingDiretoryString
                0x00000000c001b869                _fs_pathname_backup
                0x00000000c001b9b3                _sys_read_file
                0x00000000c001b9f5                _sys_read_file2
                0x00000000c001bb86                _fsLoadFileFromCurrentTargetDir
                0x00000000c001bc3d                _sys_write_file
 .text          0x00000000c001bc88      0x23c vfs.o
                0x00000000c001bc88                _vfsInit
                0x00000000c001be02                _vfs_show_handle_list
                0x00000000c001be52                _vfsShowVFSInfo
                0x00000000c001be58                _vfsListFiles
 .text          0x00000000c001bec4      0x2cf cedge.o
                0x00000000c001bec4                __outbyte
                0x00000000c001bfde                _outbyte
 .text          0x00000000c001c193        0x0 ctype.o
 .text          0x00000000c001c193      0x1b2 request.o
                0x00000000c001c193                _KiRequest
                0x00000000c001c1d0                _request
 .text          0x00000000c001c345      0x20a info.o
                0x00000000c001c345                _KeInformation
                0x00000000c001c34b                _KiInformation
 .text          0x00000000c001c54f       0x51 signal.o
                0x00000000c001c54f                _signalSend
                0x00000000c001c58c                _signalInit
 .text          0x00000000c001c5a0     0x1813 system.o
                0x00000000c001c5a0                _set_up_color
                0x00000000c001c5ae                _set_up_text_color
                0x00000000c001c5da                _set_up_cursor
                0x00000000c001c5f0                _get_cursor_x
                0x00000000c001c5fa                _get_cursor_y
                0x00000000c001c604                _systemRam
                0x00000000c001ccc9                _systemIoCpu
                0x00000000c001cf91                _systemIoDma
                0x00000000c001cfc2                _systemDevicesUnblocked
                0x00000000c001d248                _systemDevicesBlocked
                0x00000000c001d36b                _systemThings
                0x00000000c001d39c                _systemNull
                0x00000000c001d3a6                _systemLinkDriver
                0x00000000c001d3d5                _systemShowDevicesInfo
                0x00000000c001d45d                _systemCreateSystemMenuBar
                0x00000000c001d52d                _systemSetupVersion
                0x00000000c001d5f2                _system_dispatch_to_procedure
                0x00000000c001d620                _SystemMenu
                0x00000000c001d77e                _SystemMenuProcedure
                0x00000000c001d7db                _systemReboot
                0x00000000c001d83a                _systemShutdown
                0x00000000c001d865                _systemShutdownViaAPM
                0x00000000c001d87e                _systemGetSystemMetric
                0x00000000c001d8c4                _systemGetSystemStatus
                0x00000000c001d8f7                _die
                0x00000000c001d921                _systemGetTerminalWindow
                0x00000000c001d92b                _systemSetTerminalWindow
                0x00000000c001db8f                _systemSetTerminalRectangle
                0x00000000c001db95                _systemGetSystemMetrics
                0x00000000c001dbfd                _newLinkedlist
                0x00000000c001dc38                _newNode
                0x00000000c001dc6a                _Removing_from_the_beginning
                0x00000000c001dc95                _Removing_from_the_middle
                0x00000000c001dc9b                _Removing_from_the_end
                0x00000000c001dcc7                _systemStartUp
                0x00000000c001dd76                _systemInit
                0x00000000c001dda3                _systemSystem
 .text          0x00000000c001ddb3      0x111 bg.o
                0x00000000c001ddb3                _backgroundDraw
                0x00000000c001de3c                _backgroundSetColor
                0x00000000c001de6a                _backgroundRedraw
                0x00000000c001de9b                _backgroundBackground
                0x00000000c001deb5                _backgroundInit
 .text          0x00000000c001dec4      0x321 grid.o
                0x00000000c001dec4                _InitializeGrid
                0x00000000c001e12f                _CreateGrid
                0x00000000c001e1a6                _grid
 .text          0x00000000c001e1e5      0x1ea sbar.o
                0x00000000c001e1e5                _StatusBar
 .text          0x00000000c001e3cf      0x88d menubar.o
                0x00000000c001e3cf                _create_menubar
                0x00000000c001e55b                _create_menubar_item
                0x00000000c001e85c                _select_menubar_item
                0x00000000c001e897                _unselect_menubar_item
                0x00000000c001e8d2                _redraw_menubar_item
                0x00000000c001ea55                _get_menubar_selected_item
                0x00000000c001ea68                _menubarX
                0x00000000c001eb95                _MenuBarProcedure
 .text          0x00000000c001ec5c      0x8ea menu.o
                0x00000000c001ec5c                _create_menu
                0x00000000c001eea7                _create_menu_item
                0x00000000c001f0ea                _set_current_menu
                0x00000000c001f105                _get_current_menu
                0x00000000c001f126                _RegisterMenu
                0x00000000c001f193                _initmenuArray
                0x00000000c001f2b6                _ControlMenu
                0x00000000c001f2cc                _MainMenu
                0x00000000c001f3c0                _MainMenuProcedure
                0x00000000c001f501                _init_menus
 .text          0x00000000c001f546       0x6b i8042.o
                0x00000000c001f546                _ps2
                0x00000000c001f5a1                _MessageBox
                0x00000000c001f5a7                _MessageBoxProcedure
 .text          0x00000000c001f5b1      0xc0b ps2mouse.o
                0x00000000c001f5b1                _mouse_write
                0x00000000c001f5fe                _mouse_read
                0x00000000c001f620                _MOUSE_BAT_TEST
                0x00000000c001f65c                _mouse_install
                0x00000000c001f71b                _kernelPS2MouseDriverReadData
                0x00000000c001f721                _load_mouse_bmp
                0x00000000c001f7b8                _set_current_mouse_responder
                0x00000000c001f7c6                _get_current_mouse_responder
                0x00000000c001f7d0                _update_mouse
                0x00000000c001f88a                _mouseHandler
                0x00000000c001fffe                _ps2_mouse_initialize
                0x00000000c00200d0                _ps2_mouse_globals_initialize
                0x00000000c00201ac                _DialogBox
                0x00000000c00201b2                _DialogBoxProcedure
 .text          0x00000000c00201bc      0x5a0 ps2kbd.o
                0x00000000c00201bc                _keyboard_read
                0x00000000c00201f5                _keyboard_write
                0x00000000c0020233                _BAT_TEST
                0x00000000c002026f                _ps2_keyboard_initialize
                0x00000000c00203ec                _keyboardGetKeyState
                0x00000000c00204c0                _ldisc_init_modifier_keys
                0x00000000c00204ee                _ldisc_init_lock_keys
                0x00000000c0020512                _keyboardEnable
                0x00000000c0020545                _keyboardDisable
                0x00000000c0020578                _keyboard_set_leds
                0x00000000c00205f5                _KdGetWindowPointer
                0x00000000c002062d                _KbGetMessage
                0x00000000c002066c                _KbGetLongParam1
                0x00000000c0020697                _KbGetLongParam2
                0x00000000c00206c2                _reboot
                0x00000000c00206d5                _get_alt_status
                0x00000000c00206df                _get_ctrl_status
                0x00000000c00206e9                _get_shift_status
                0x00000000c00206f3                _kbdc_wait
                0x00000000c0020744                _set_current_keyboard_responder
                0x00000000c0020752                _get_current_keyboard_responder
 .text          0x00000000c002075c      0x39b button.o
                0x00000000c002075c                _updateButton
                0x00000000c00207d6                _draw_button
 .text          0x00000000c0020af7      0x2f5 char.o
                0x00000000c0020af7                _my_buffer_char_blt
                0x00000000c0020b14                _set_char_width
                0x00000000c0020b22                _set_char_height
                0x00000000c0020b30                _get_char_width
                0x00000000c0020b3a                _get_char_height
                0x00000000c0020b44                _drawchar_transparent
                0x00000000c0020c95                _draw_char
 .text          0x00000000c0020dec      0x302 pixel.o
                0x00000000c0020dec                _pixelPutPixelWindowBuffer
                0x00000000c0020df2                _pixelPutPixelDedicatedWindowBuffer
                0x00000000c0020e6b                _backbuffer_putpixel
                0x00000000c0020f3d                _lfb_putpixel
                0x00000000c002100f                _get_pixel
                0x00000000c0021077                _refresh_pixel
 .text          0x00000000c00210ee       0xc2 line.o
                0x00000000c00210ee                _my_buffer_horizontal_line
                0x00000000c0021118                _refresh_horizontal_line
 .text          0x00000000c00211b0      0x758 rect.o
                0x00000000c00211b0                _rectStrCopyMemory32
                0x00000000c0021211                _drawDataRectangle
                0x00000000c002129a                _getClientAreaRect
                0x00000000c00212a4                _setClientAreaRect
                0x00000000c00212e4                _refresh_rectangle
                0x00000000c0021406                _refresh_rectangle2
                0x00000000c002153e                _initialize_saved_rect
                0x00000000c002161c                _save_rect
                0x00000000c0021792                _show_saved_rect
 .text          0x00000000c0021908       0xa5 dtext.o
                0x00000000c0021908                _draw_text
                0x00000000c002193f                _draw_string
 .text          0x00000000c00219ad       0x91 font.o
                0x00000000c00219ad                _gwsSetCurrentFontAddress
                0x00000000c00219bb                _gwsGetCurrentFontAddress
                0x00000000c00219c5                _gwsInstallFont
 .text          0x00000000c0021a3e       0x66 vsync.o
                0x00000000c0021a3e                _vsync
                0x00000000c0021a7f                _vsync_inb
 .text          0x00000000c0021aa4      0x999 bmp.o
                0x00000000c0021aa4                _bmpDirectDisplayBMP
                0x00000000c0021f2a                _bmpDisplayBMP
                0x00000000c00223ab                _bmpDisplayMousePointerBMP
                0x00000000c00223f4                _bmpDisplayCursorBMP
 .text          0x00000000c002243d     0x10f4 createw.o
                0x00000000c002243d                _CreateWindow
 .text          0x00000000c0023531     0x2b9b window.o
                0x00000000c0023531                _save_window
                0x00000000c002358d                _show_saved_window
                0x00000000c00235e9                _show_window_rect
                0x00000000c0023668                _windowKillTimer
                0x00000000c00236ab                _windowSetTimer
                0x00000000c00236ef                _windowGetWindowID
                0x00000000c002371f                _windowGetMainWindowDescriptor
                0x00000000c002374f                _windowInitializeBrowserSupport
                0x00000000c0023759                _GetParentWindow
                0x00000000c0023774                _GetWindowDesktop
                0x00000000c002378f                _windowSetUpColorScheme
                0x00000000c00239c1                _windowSelectColorScheme
                0x00000000c0023adb                _windowShowWWFMessageBuffers
                0x00000000c0023b2b                _windowSendMessage
                0x00000000c0023baf                _windowGetHandleWindow
                0x00000000c0023bb9                _windowGetMessage
                0x00000000c0023c33                _windowGetLong1
                0x00000000c0023c61                _windowGetLong2
                0x00000000c0023c6b                _window_getch
                0x00000000c0023d28                _windowCreateDedicatedBuffer
                0x00000000c0023d94                _windowLock
                0x00000000c0023daf                _windowUnlock
                0x00000000c0023dca                _set_current_window
                0x00000000c0023deb                _get_current_window
                0x00000000c0023df5                _RegisterWindow
                0x00000000c0023e86                _windowShowWindowList
                0x00000000c00240c0                _redraw_window
                0x00000000c0024bc0                _redraw_screen
                0x00000000c0024cda                _resize_window
                0x00000000c0024d03                _replace_window
                0x00000000c0024d2c                _is_window_full
                0x00000000c0024d57                _is_window_maximized
                0x00000000c0024d82                _is_window_minimized
                0x00000000c0024dad                _CloseWindow
                0x00000000c0024e9a                _DestroyWindow
                0x00000000c0024eb1                _get_active_window
                0x00000000c0024ebb                _set_active_window
                0x00000000c002500d                _change_active_window
                0x00000000c0025023                _show_active_window
                0x00000000c0025042                _show_window_with_focus
                0x00000000c0025061                _CloseActiveWindow
                0x00000000c00250e4                _windowBlockFocus
                0x00000000c00250f4                _windowUnblockFocus
                0x00000000c0025104                _SetFocus
                0x00000000c002543f                _GetFocus
                0x00000000c0025450                _windowGetForegroundWindow
                0x00000000c0025461                _windowSetForegroundWindow
                0x00000000c00254a8                _windowSwitchFocus
                0x00000000c0025592                _KillFocus
                0x00000000c002563f                _MinimizeWindow
                0x00000000c00256a0                _MaximizeWindow
                0x00000000c0025768                _init_window_manager
                0x00000000c00257bf                _init_windows
                0x00000000c00259ce                _get_zorder
                0x00000000c00259e9                _getTopWindow
                0x00000000c0025a07                _get_top_window
                0x00000000c0025a11                _set_top_window
                0x00000000c0025a1f                _closeActiveWindow
                0x00000000c0025a4b                _z_order_get_free_slot
                0x00000000c0025ab4                _windowLoadGramadoIcons
                0x00000000c0025cd8                _windowScan
                0x00000000c0025dd8                _windowUpdateWindow
                0x00000000c0025df3                _windowSwitchFullScreen
                0x00000000c00260c2                _scroll_client_window
 .text          0x00000000c00260cc      0x3c4 desktop.o
                0x00000000c00260cc                _RegisterDesktop
                0x00000000c0026119                _set_current_desktop
                0x00000000c0026132                _get_current_desktop
                0x00000000c002615d                _get_current_desktop_id
                0x00000000c0026167                _init_desktop_list
                0x00000000c0026191                _CreateDesktop
                0x00000000c0026228                _set_current_menuwindow
                0x00000000c0026245                _set_current_foreground
                0x00000000c0026262                _set_current_messagewindow
                0x00000000c002627f                _set_current_traywindow
                0x00000000c002629c                _set_current_tooltipwindow
                0x00000000c00262b9                _change_foreground
                0x00000000c0026304                _set_current_sysMenu
                0x00000000c0026321                _set_current_dialogsysMenu
                0x00000000c002633e                _set_current_menuHScroll
                0x00000000c002635b                _set_current_menuVScroll
                0x00000000c0026378                _init_desktop
 .text          0x00000000c0026490      0x1b5 room.o
                0x00000000c0026490                _get_current_room
                0x00000000c00264b1                _set_current_room
                0x00000000c00264ca                _CreateRoom
                0x00000000c0026561                _RegisterRoom
                0x00000000c00265ae                _init_room_list
                0x00000000c00265d8                _init_room_manager
 .text          0x00000000c0026645      0x22a usession.o
                0x00000000c0026645                _get_current_user_session
                0x00000000c0026670                _CreateUserSession
                0x00000000c002673b                _close_user_session
                0x00000000c00267a6                _open_user_session
                0x00000000c00267e1                _init_user_session
 .text          0x00000000c002686f      0xb08 gws.o
                0x00000000c002686f                _gwsOpen
                0x00000000c0026883                _gwsClose
                0x00000000c0026897                _gwsRegisterWindowManager
                0x00000000c00268e2                _create_gui
                0x00000000c0026b38                _SetGuiParameters
                0x00000000c0026bd1                _gui_create_screen
                0x00000000c0026c8a                _gui_create_background
                0x00000000c0026d64                _gui_create_taskbar
                0x00000000c0026e38                _gui_create_mainwindow
                0x00000000c0026f7a                _gui_create_logo
                0x00000000c0026f80                _gui_create_controlmenu
                0x00000000c0026f86                _gui_create_infobox
                0x00000000c0026fa7                _gui_create_messagebox
                0x00000000c0026fc8                _gui_create_debug
                0x00000000c0026fe9                _gui_create_navigationbar
                0x00000000c0026fef                _gui_create_grid
                0x00000000c0027010                _guiGetScreenWindow
                0x00000000c002702d                _guiGetDeveloperScreenWindow
                0x00000000c002704a                _guiGetBackgroundWindow
                0x00000000c0027067                _guiGetLogoWindow
                0x00000000c0027084                _guiGetDesktopWindow
                0x00000000c00270a1                _guiGetTaskbarWindow
                0x00000000c00270be                _guiGetMainWindow
                0x00000000c00270db                _guiGetStatusbarWindow
                0x00000000c00270f8                _guiGetGridWindow
                0x00000000c0027118                _guiGetMenuWindow
                0x00000000c0027138                _guiGetInfoboxWindow
                0x00000000c0027158                _guiGetTooltipWindow
                0x00000000c0027178                _guiGetMessageboxWindow
                0x00000000c0027198                _guiGetDialogboxWindow
                0x00000000c00271b8                _guiGetDebugWindow
                0x00000000c00271d8                _guiGetMbhWindowWindow
                0x00000000c00271f8                _guiGetTopbarWindow
                0x00000000c0027218                _guiGetNavigationbarWindow
                0x00000000c0027238                _guiGetShellWindowWindow
                0x00000000c0027258                _guiGetShellClientWindowWindow
                0x00000000c0027278                _guiSetUpMainWindow
                0x00000000c0027313                _init_gui
                0x00000000c0027367                _gramado
                0x00000000c002736d                _init_gramado
 .text          0x00000000c0027377       0x3a object.o
                0x00000000c0027377                _init_object_manager
 .text          0x00000000c00273b1      0x2fa userenv.o
                0x00000000c00273b1                _startUserEnvironment
                0x00000000c00273e8                _ShowUserInfo
                0x00000000c0027447                _config_user
                0x00000000c0027457                _CreateUser
                0x00000000c0027524                _SetCurrentUserId
                0x00000000c0027552                _GetCurrentUserId
                0x00000000c002755c                _SetCurrentGroupId
                0x00000000c002758a                _GetCurrentGroupId
                0x00000000c0027594                _UpdateUserInfo
                0x00000000c00275ea                _init_user_info
                0x00000000c0027697                _init_user_environment_manager
 .text          0x00000000c00276ab      0xa11 proc.o
                0x00000000c00276ab                _xxxtestlibcSTDOUT
                0x00000000c0027788                _xxxtestlibc
                0x00000000c0027893                _procTestF6
                0x00000000c00278cf                _ldisc_dialog
                0x00000000c00278d9                _terminal_dialog
                0x00000000c00278e3                _system_procedure
                0x00000000c0027b31                _registra_procedimento
                0x00000000c0027b4c                _SetProcedure
                0x00000000c0027b62                _SendMessage
                0x00000000c0027b7e                _procedureHelp
                0x00000000c0027eba                _procedureLinkDriverTest
                0x00000000c0027efa                _procedureMakeTests
                0x00000000c0027fd6                _procedureWindowWithFocusTest
                0x00000000c002807f                _procedureGrid
 .text          0x00000000c00280bc       0x41 syscall.o
                0x00000000c00280bc                _systemcall
                0x00000000c00280dd                _jmp_address
 .text          0x00000000c00280fd       0x1e install.o
                0x00000000c00280fd                _install_os
                0x00000000c0028103                _install_boot_manager
                0x00000000c0028109                _install_bootmanager_stage1
                0x00000000c002810f                _install_bootmanager_stage2
                0x00000000c0028115                _install_bootmanager_metafile
 .text          0x00000000c002811b       0xe5 serial.o
                0x00000000c002811b                _serial_write_char
                0x00000000c002815a                _init_serial
 .text          0x00000000c0028200      0x19e debug.o
                0x00000000c0028200                _debug_check_inicialization
                0x00000000c00282ac                _debug_check_drivers
                0x00000000c00282be                _debug_breakpoint
                0x00000000c00282dc                _debug_compute_checksum
                0x00000000c002830c                _debug
                0x00000000c002835f                _debug_print
 .text          0x00000000c002839e      0x168 abort.o
                0x00000000c002839e                _KeAbort
                0x00000000c00283bc                _systemAbort
                0x00000000c00283ca                _KiAbort
                0x00000000c00283d8                _abort
 .text          0x00000000c0028506      0x2fd x86fault.o
                0x00000000c0028506                _faults
                0x00000000c002871e                _KiCpuFaults
                0x00000000c0028735                _do_pagefault
 .text          0x00000000c0028803     0x11fe services.o
                0x00000000c0028803                _services
                0x00000000c00297f7                _serviceCreateWindow
                0x00000000c002996e                _servicesPutChar
                0x00000000c00299fb                _servicesChangeProcedure
                0x00000000c0029a01                _code_end = .
                0x00000000c002a000                . = ALIGN (0x1000)
 *fill*         0x00000000c0029a01      0x5ff 

.iplt           0x00000000c002a000        0x0
 .iplt          0x00000000c002a000        0x0 services.o

.rodata         0x00000000c002a000     0x9000
                0x00000000c002a000                _rodata_begin = .
 *(.rdata)
 *(.rodata)
 .rodata        0x00000000c002a000      0x496 x86main.o
 .rodata        0x00000000c002a496        0xf io.o
 *fill*         0x00000000c002a4a5        0x3 
 .rodata        0x00000000c002a4a8       0xe2 hal.o
 *fill*         0x00000000c002a58a        0x2 
 .rodata        0x00000000c002a58c       0x4e mk.o
 *fill*         0x00000000c002a5da        0x2 
 .rodata        0x00000000c002a5dc      0x273 execve.o
 *fill*         0x00000000c002a84f        0x1 
 .rodata        0x00000000c002a850       0x28 video.o
 .rodata        0x00000000c002a878       0x1b screen.o
 .rodata        0x00000000c002a893       0x1e runtime.o
 .rodata        0x00000000c002a8b1        0xf portsx86.o
 .rodata        0x00000000c002a8c0      0x24c x86.o
 .rodata        0x00000000c002ab0c      0x1ea stdio.o
 .rodata        0x00000000c002acf6        0xf stdlib.o
 .rodata        0x00000000c002ad05        0xf string.o
 .rodata        0x00000000c002ad14        0xf tty.o
 *fill*         0x00000000c002ad23        0x1 
 .rodata        0x00000000c002ad24      0x31b init.o
 *fill*         0x00000000c002b03f        0x1 
 .rodata        0x00000000c002b040      0x166 logon.o
 .rodata        0x00000000c002b1a6       0x2b logoff.o
 *fill*         0x00000000c002b1d1        0x3 
 .rodata        0x00000000c002b1d4       0x4f detect.o
 .rodata        0x00000000c002b223        0xf cpuamd.o
 *fill*         0x00000000c002b232        0x2 
 .rodata        0x00000000c002b234      0x545 memory.o
 *fill*         0x00000000c002b779        0x3 
 .rodata        0x00000000c002b77c      0x15f pages.o
 .rodata        0x00000000c002b8db       0x30 mmpool.o
 .rodata        0x00000000c002b90b        0xf apic.o
 .rodata        0x00000000c002b91a        0xf pic.o
 *fill*         0x00000000c002b929        0x3 
 .rodata        0x00000000c002b92c      0x10c timer.o
 .rodata        0x00000000c002ba38       0x4b rtc.o
 *fill*         0x00000000c002ba83        0x1 
 .rodata        0x00000000c002ba84       0x31 keyboard.o
 .rodata        0x00000000c002bab5        0xf mouse.o
 .rodata        0x00000000c002bac4      0x351 ldisc.o
 .rodata        0x00000000c002be15       0x42 hdd.o
 *fill*         0x00000000c002be57        0x1 
 .rodata        0x00000000c002be58     0x1834 pci.o
 .rodata        0x00000000c002d68c      0x150 ahci.o
 .rodata        0x00000000c002d7dc        0xf devmgr.o
 *fill*         0x00000000c002d7eb        0x1 
 .rodata        0x00000000c002d7ec       0xdc spawn.o
 .rodata        0x00000000c002d8c8        0xf callout.o
 *fill*         0x00000000c002d8d7        0x1 
 .rodata        0x00000000c002d8d8      0x3a7 process.o
 .rodata        0x00000000c002dc7f        0xf pheap.o
 *fill*         0x00000000c002dc8e        0x2 
 .rodata        0x00000000c002dc90       0xf6 thread.o
 *fill*         0x00000000c002dd86        0x2 
 .rodata        0x00000000c002dd88      0x1ff threadi.o
 .rodata        0x00000000c002df87        0xf theap.o
 .rodata        0x00000000c002df96        0xf tstack.o
 *fill*         0x00000000c002dfa5        0x3 
 .rodata        0x00000000c002dfa8      0x235 create.o
 *fill*         0x00000000c002e1dd        0x3 
 .rodata        0x00000000c002e1e0       0xcd x86start.o
 *fill*         0x00000000c002e2ad        0x3 
 .rodata        0x00000000c002e2b0      0x122 x86cont.o
 .rodata        0x00000000c002e3d2        0xf tasks.o
 *fill*         0x00000000c002e3e1        0x3 
 .rodata        0x00000000c002e3e4      0x28f ts.o
 *fill*         0x00000000c002e673        0x1 
 .rodata        0x00000000c002e674      0x181 queue.o
 .rodata        0x00000000c002e7f5       0x1e sched.o
 *fill*         0x00000000c002e813        0x1 
 .rodata        0x00000000c002e814       0x58 schedi.o
 .rodata        0x00000000c002e86c        0xf preempt.o
 .rodata        0x00000000c002e87b        0xf priority.o
 *fill*         0x00000000c002e88a        0x2 
 .rodata        0x00000000c002e88c      0x178 dispatch.o
 .rodata        0x00000000c002ea04        0xf sem.o
 .rodata        0x00000000c002ea13        0xf modules.o
 *fill*         0x00000000c002ea22        0x2 
 .rodata        0x00000000c002ea24      0x276 nicintel.o
 *fill*         0x00000000c002ec9a        0x2 
 .rodata        0x00000000c002ec9c      0x353 network.o
 *fill*         0x00000000c002efef        0x1 
 .rodata        0x00000000c002eff0       0x31 socket.o
 .rodata        0x00000000c002f021        0xf sm.o
 .rodata        0x00000000c002f030        0xf channel.o
 .rodata        0x00000000c002f03f        0xf ipc.o
 *fill*         0x00000000c002f04e        0x2 
 .rodata        0x00000000c002f050      0x14e read.o
 *fill*         0x00000000c002f19e        0x2 
 .rodata        0x00000000c002f1a0      0x16e write.o
 *fill*         0x00000000c002f30e        0x2 
 .rodata        0x00000000c002f310      0x126 cf.o
 *fill*         0x00000000c002f436        0x2 
 .rodata        0x00000000c002f438       0x60 search.o
 .rodata        0x00000000c002f498        0xf format.o
 .rodata        0x00000000c002f4a7       0x24 atainit.o
 .rodata        0x00000000c002f4cb        0xf atairq.o
 *fill*         0x00000000c002f4da        0x2 
 .rodata        0x00000000c002f4dc      0x223 atapci.o
 .rodata        0x00000000c002f6ff        0xf atadma.o
 *fill*         0x00000000c002f70e        0x2 
 .rodata        0x00000000c002f710      0x21b ata.o
 *fill*         0x00000000c002f92b        0x1 
 .rodata        0x00000000c002f92c      0x426 diskvol.o
 *fill*         0x00000000c002fd52        0x2 
 .rodata        0x00000000c002fd54      0x5dd fs.o
 *fill*         0x00000000c0030331        0x3 
 .rodata        0x00000000c0030334       0xf0 vfs.o
 .rodata        0x00000000c0030424       0x34 cedge.o
 *fill*         0x00000000c0030458        0x8 
 .rodata        0x00000000c0030460      0x120 ctype.o
                0x00000000c0030480                __ctype
 .rodata        0x00000000c0030580       0x98 request.o
 .rodata        0x00000000c0030618      0x1ee info.o
 .rodata        0x00000000c0030806        0xf signal.o
 *fill*         0x00000000c0030815        0x3 
 .rodata        0x00000000c0030818      0x796 system.o
 .rodata        0x00000000c0030fae        0xf bg.o
 .rodata        0x00000000c0030fbd       0xba grid.o
 *fill*         0x00000000c0031077        0x1 
 .rodata        0x00000000c0031078       0xb6 sbar.o
 *fill*         0x00000000c003112e        0x2 
 .rodata        0x00000000c0031130      0x11d menubar.o
 *fill*         0x00000000c003124d        0x3 
 .rodata        0x00000000c0031250      0x234 menu.o
 .rodata        0x00000000c0031484        0xf i8042.o
 *fill*         0x00000000c0031493        0x1 
 .rodata        0x00000000c0031494       0xbd ps2mouse.o
 *fill*         0x00000000c0031551        0x3 
 .rodata        0x00000000c0031554       0x52 ps2kbd.o
 *fill*         0x00000000c00315a6        0x2 
 .rodata        0x00000000c00315a8       0x2c button.o
 .rodata        0x00000000c00315d4       0x4d char.o
 *fill*         0x00000000c0031621        0x3 
 .rodata        0x00000000c0031624       0x34 pixel.o
 .rodata        0x00000000c0031658        0xf line.o
 *fill*         0x00000000c0031667        0x1 
 .rodata        0x00000000c0031668       0x70 rect.o
 .rodata        0x00000000c00316d8       0x2f dtext.o
 .rodata        0x00000000c0031707       0x45 font.o
 .rodata        0x00000000c003174c        0xf vsync.o
 .rodata        0x00000000c003175b       0x45 bmp.o
 .rodata        0x00000000c00317a0       0xbc createw.o
 .rodata        0x00000000c003185c      0x5e3 window.o
 .rodata        0x00000000c0031e3f       0x3b desktop.o
 *fill*         0x00000000c0031e7a        0x2 
 .rodata        0x00000000c0031e7c       0x53 room.o
 *fill*         0x00000000c0031ecf        0x1 
 .rodata        0x00000000c0031ed0       0xaa usession.o
 *fill*         0x00000000c0031f7a        0x2 
 .rodata        0x00000000c0031f7c      0x1b3 gws.o
 .rodata        0x00000000c003212f        0xf object.o
 *fill*         0x00000000c003213e        0x2 
 .rodata        0x00000000c0032140       0xa0 userenv.o
 .rodata        0x00000000c00321e0      0x416 proc.o
 .rodata        0x00000000c00325f6        0xf syscall.o
 .rodata        0x00000000c0032605        0xf install.o
 .rodata        0x00000000c0032614        0xf serial.o
 *fill*         0x00000000c0032623        0x1 
 .rodata        0x00000000c0032624      0x143 debug.o
 *fill*         0x00000000c0032767        0x1 
 .rodata        0x00000000c0032768       0xa1 abort.o
 *fill*         0x00000000c0032809        0x3 
 .rodata        0x00000000c003280c      0x1b2 x86fault.o
 *fill*         0x00000000c00329be        0x2 
 .rodata        0x00000000c00329c0      0x4cb services.o
                0x00000000c0032e8b                _rodata_end = .
                0x00000000c0033000                . = ALIGN (0x1000)
 *fill*         0x00000000c0032e8b      0x175 

.eh_frame       0x00000000c0033000     0x7f64
 .eh_frame      0x00000000c0033000       0x9c x86main.o
 .eh_frame      0x00000000c003309c       0x40 io.o
                                         0x58 (size before relaxing)
 .eh_frame      0x00000000c00330dc      0x2ac hal.o
                                        0x2c4 (size before relaxing)
 .eh_frame      0x00000000c0033388      0x1a0 mk.o
                                        0x1b8 (size before relaxing)
 .eh_frame      0x00000000c0033528       0x80 execve.o
                                         0x98 (size before relaxing)
 .eh_frame      0x00000000c00335a8       0xa0 video.o
                                         0xb8 (size before relaxing)
 .eh_frame      0x00000000c0033648       0xc4 screen.o
                                         0xdc (size before relaxing)
 .eh_frame      0x00000000c003370c       0x40 runtime.o
                                         0x58 (size before relaxing)
 .eh_frame      0x00000000c003374c      0x300 portsx86.o
                                        0x318 (size before relaxing)
 .eh_frame      0x00000000c0033a4c      0x240 x86.o
                                        0x258 (size before relaxing)
 .eh_frame      0x00000000c0033c8c      0x464 stdio.o
                                        0x47c (size before relaxing)
 .eh_frame      0x00000000c00340f0       0x60 stdlib.o
                                         0x78 (size before relaxing)
 .eh_frame      0x00000000c0034150      0x1e0 string.o
                                        0x1f8 (size before relaxing)
 .eh_frame      0x00000000c0034330       0x20 tty.o
                                         0x38 (size before relaxing)
 .eh_frame      0x00000000c0034350       0xc0 init.o
                                         0xd8 (size before relaxing)
 .eh_frame      0x00000000c0034410      0x220 logon.o
                                        0x238 (size before relaxing)
 .eh_frame      0x00000000c0034630       0x40 logoff.o
                                         0x58 (size before relaxing)
 .eh_frame      0x00000000c0034670       0xac detect.o
                                         0xc4 (size before relaxing)
 .eh_frame      0x00000000c003471c       0x40 cpuamd.o
                                         0x58 (size before relaxing)
 .eh_frame      0x00000000c003475c      0x1c4 memory.o
                                        0x1dc (size before relaxing)
 .eh_frame      0x00000000c0034920      0x1ac pages.o
                                        0x1c4 (size before relaxing)
 .eh_frame      0x00000000c0034acc       0x40 mmpool.o
                                         0x58 (size before relaxing)
 .eh_frame      0x00000000c0034b0c      0x2e0 timer.o
                                        0x2f8 (size before relaxing)
 .eh_frame      0x00000000c0034dec      0x124 rtc.o
                                        0x13c (size before relaxing)
 .eh_frame      0x00000000c0034f10       0x60 keyboard.o
                                         0x78 (size before relaxing)
 .eh_frame      0x00000000c0034f70       0x20 mouse.o
                                         0x38 (size before relaxing)
 .eh_frame      0x00000000c0034f90       0x80 ldisc.o
                                         0x98 (size before relaxing)
 .eh_frame      0x00000000c0035010      0x148 hdd.o
                                        0x160 (size before relaxing)
 .eh_frame      0x00000000c0035158      0x2bc pci.o
                                        0x2d4 (size before relaxing)
 .eh_frame      0x00000000c0035414       0x20 usb.o
                                         0x38 (size before relaxing)
 .eh_frame      0x00000000c0035434       0x40 ahci.o
                                         0x58 (size before relaxing)
 .eh_frame      0x00000000c0035474       0x20 devmgr.o
                                         0x38 (size before relaxing)
 .eh_frame      0x00000000c0035494       0x60 spawn.o
                                         0x78 (size before relaxing)
 .eh_frame      0x00000000c00354f4       0x20 callout.o
                                         0x38 (size before relaxing)
 .eh_frame      0x00000000c0035514       0x20 callfar.o
                                         0x38 (size before relaxing)
 .eh_frame      0x00000000c0035534      0x7e4 process.o
                                        0x7fc (size before relaxing)
 .eh_frame      0x00000000c0035d18      0x140 thread.o
                                        0x158 (size before relaxing)
 .eh_frame      0x00000000c0035e58      0x410 threadi.o
                                        0x428 (size before relaxing)
 .eh_frame      0x00000000c0036268       0x20 theap.o
                                         0x38 (size before relaxing)
 .eh_frame      0x00000000c0036288       0x20 tstack.o
                                         0x38 (size before relaxing)
 .eh_frame      0x00000000c00362a8       0xe0 create.o
                                         0xf8 (size before relaxing)
 .eh_frame      0x00000000c0036388      0x140 x86start.o
                                        0x158 (size before relaxing)
 .eh_frame      0x00000000c00364c8      0x120 x86cont.o
                                        0x138 (size before relaxing)
 .eh_frame      0x00000000c00365e8       0x70 tasks.o
                                         0x88 (size before relaxing)
 .eh_frame      0x00000000c0036658       0xe4 ts.o
                                         0xfc (size before relaxing)
 .eh_frame      0x00000000c003673c       0xe0 queue.o
                                         0xf8 (size before relaxing)
 .eh_frame      0x00000000c003681c       0xe0 sched.o
                                         0xf8 (size before relaxing)
 .eh_frame      0x00000000c00368fc      0x3a0 schedi.o
                                        0x3b8 (size before relaxing)
 .eh_frame      0x00000000c0036c9c       0x20 preempt.o
                                         0x38 (size before relaxing)
 .eh_frame      0x00000000c0036cbc       0xa0 priority.o
                                         0xb8 (size before relaxing)
 .eh_frame      0x00000000c0036d5c      0x200 dispatch.o
                                        0x218 (size before relaxing)
 .eh_frame      0x00000000c0036f5c      0x120 sem.o
                                        0x138 (size before relaxing)
 .eh_frame      0x00000000c003707c       0x20 modules.o
                                         0x38 (size before relaxing)
 .eh_frame      0x00000000c003709c      0x188 nicintel.o
                                        0x1a0 (size before relaxing)
 .eh_frame      0x00000000c0037224      0x130 network.o
                                        0x148 (size before relaxing)
 .eh_frame      0x00000000c0037354       0x80 socket.o
                                         0x98 (size before relaxing)
 .eh_frame      0x00000000c00373d4       0x20 sm.o
                                         0x38 (size before relaxing)
 .eh_frame      0x00000000c00373f4       0x80 channel.o
                                         0x98 (size before relaxing)
 .eh_frame      0x00000000c0037474       0x80 ipc.o
                                         0x98 (size before relaxing)
 .eh_frame      0x00000000c00374f4      0x160 read.o
                                        0x178 (size before relaxing)
 .eh_frame      0x00000000c0037654      0x100 write.o
                                        0x118 (size before relaxing)
 .eh_frame      0x00000000c0037754       0xa0 cf.o
                                         0xb8 (size before relaxing)
 .eh_frame      0x00000000c00377f4       0xc0 search.o
                                         0xd8 (size before relaxing)
 .eh_frame      0x00000000c00378b4       0x60 format.o
                                         0x78 (size before relaxing)
 .eh_frame      0x00000000c0037914       0x20 atainit.o
                                         0x38 (size before relaxing)
 .eh_frame      0x00000000c0037934       0xc0 atairq.o
                                         0xd8 (size before relaxing)
 .eh_frame      0x00000000c00379f4       0x84 atapci.o
                                         0x9c (size before relaxing)
 .eh_frame      0x00000000c0037a78       0x80 atadma.o
                                         0x98 (size before relaxing)
 .eh_frame      0x00000000c0037af8      0x298 ata.o
                                        0x2b0 (size before relaxing)
 .eh_frame      0x00000000c0037d90      0x1a4 diskvol.o
                                        0x1bc (size before relaxing)
 .eh_frame      0x00000000c0037f34      0x588 fs.o
                                        0x5a0 (size before relaxing)
 .eh_frame      0x00000000c00384bc       0x84 vfs.o
                                         0x9c (size before relaxing)
 .eh_frame      0x00000000c0038540       0x4c cedge.o
                                         0x64 (size before relaxing)
 .eh_frame      0x00000000c003858c       0x40 request.o
                                         0x58 (size before relaxing)
 .eh_frame      0x00000000c00385cc       0x50 info.o
                                         0x68 (size before relaxing)
 .eh_frame      0x00000000c003861c       0x40 signal.o
                                         0x58 (size before relaxing)
 .eh_frame      0x00000000c003865c      0x4a0 system.o
                                        0x4b8 (size before relaxing)
 .eh_frame      0x00000000c0038afc       0xa0 bg.o
                                         0xb8 (size before relaxing)
 .eh_frame      0x00000000c0038b9c       0x60 grid.o
                                         0x78 (size before relaxing)
 .eh_frame      0x00000000c0038bfc       0x20 sbar.o
                                         0x38 (size before relaxing)
 .eh_frame      0x00000000c0038c1c      0x114 menubar.o
                                        0x12c (size before relaxing)
 .eh_frame      0x00000000c0038d30      0x140 menu.o
                                        0x158 (size before relaxing)
 .eh_frame      0x00000000c0038e70       0x60 i8042.o
                                         0x78 (size before relaxing)
 .eh_frame      0x00000000c0038ed0      0x1e0 ps2mouse.o
                                        0x1f8 (size before relaxing)
 .eh_frame      0x00000000c00390b0      0x2a0 ps2kbd.o
                                        0x2b8 (size before relaxing)
 .eh_frame      0x00000000c0039350       0x40 button.o
                                         0x58 (size before relaxing)
 .eh_frame      0x00000000c0039390       0xe0 char.o
                                         0xf8 (size before relaxing)
 .eh_frame      0x00000000c0039470       0xc0 pixel.o
                                         0xd8 (size before relaxing)
 .eh_frame      0x00000000c0039530       0x40 line.o
                                         0x58 (size before relaxing)
 .eh_frame      0x00000000c0039570      0x128 rect.o
                                        0x140 (size before relaxing)
 .eh_frame      0x00000000c0039698       0x40 dtext.o
                                         0x58 (size before relaxing)
 .eh_frame      0x00000000c00396d8       0x60 font.o
                                         0x78 (size before relaxing)
 .eh_frame      0x00000000c0039738       0x40 vsync.o
                                         0x58 (size before relaxing)
 .eh_frame      0x00000000c0039778       0x80 bmp.o
                                         0x98 (size before relaxing)
 .eh_frame      0x00000000c00397f8       0x2c createw.o
                                         0x44 (size before relaxing)
 .eh_frame      0x00000000c0039824      0x820 window.o
                                        0x838 (size before relaxing)
 .eh_frame      0x00000000c003a044      0x220 desktop.o
                                        0x238 (size before relaxing)
 .eh_frame      0x00000000c003a264       0xc0 room.o
                                         0xd8 (size before relaxing)
 .eh_frame      0x00000000c003a324       0xa0 usession.o
                                         0xb8 (size before relaxing)
 .eh_frame      0x00000000c003a3c4      0x500 gws.o
                                        0x518 (size before relaxing)
 .eh_frame      0x00000000c003a8c4       0x20 object.o
                                         0x38 (size before relaxing)
 .eh_frame      0x00000000c003a8e4      0x160 userenv.o
                                        0x178 (size before relaxing)
 .eh_frame      0x00000000c003aa44      0x1cc proc.o
                                        0x1e4 (size before relaxing)
 .eh_frame      0x00000000c003ac10       0x44 syscall.o
                                         0x5c (size before relaxing)
 .eh_frame      0x00000000c003ac54       0xa0 install.o
                                         0xb8 (size before relaxing)
 .eh_frame      0x00000000c003acf4       0x40 serial.o
                                         0x58 (size before relaxing)
 .eh_frame      0x00000000c003ad34       0xc0 debug.o
                                         0xd8 (size before relaxing)
 .eh_frame      0x00000000c003adf4       0x7c abort.o
                                         0x94 (size before relaxing)
 .eh_frame      0x00000000c003ae70       0x60 x86fault.o
                                         0x78 (size before relaxing)
 .eh_frame      0x00000000c003aed0       0x94 services.o
                                         0xac (size before relaxing)

.note.gnu.property
                0x00000000c003af64       0x1c
 .note.gnu.property
                0x00000000c003af64       0x1c services.o

.rel.dyn        0x00000000c003af80        0x0
 .rel.got       0x00000000c003af80        0x0 services.o
 .rel.iplt      0x00000000c003af80        0x0 services.o
 .rel.head_x86  0x00000000c003af80        0x0 services.o
 .rel.text      0x00000000c003af80        0x0 services.o

.data           0x00000000c003af80    0x10080
                0x00000000c003af80                _data_begin = .
 *(.data)
 .data          0x00000000c003af80        0x2 head.o
                0x00000000c003af80                _data_start
 *fill*         0x00000000c003af82       0x1e 
 .data          0x00000000c003afa0      0x23c x86main.o
                0x00000000c003b1a0                _copyright
 *fill*         0x00000000c003b1dc        0x4 
 .data          0x00000000c003b1e0      0x1f0 io.o
 *fill*         0x00000000c003b3d0       0x10 
 .data          0x00000000c003b3e0      0x1f0 hal.o
 *fill*         0x00000000c003b5d0       0x10 
 .data          0x00000000c003b5e0      0x1f0 mk.o
 *fill*         0x00000000c003b7d0       0x10 
 .data          0x00000000c003b7e0      0x1f0 execve.o
 *fill*         0x00000000c003b9d0       0x10 
 .data          0x00000000c003b9e0      0x1f0 video.o
 *fill*         0x00000000c003bbd0       0x10 
 .data          0x00000000c003bbe0      0x1f0 screen.o
 *fill*         0x00000000c003bdd0       0x10 
 .data          0x00000000c003bde0      0x1f0 runtime.o
 *fill*         0x00000000c003bfd0       0x10 
 .data          0x00000000c003bfe0      0x1f0 portsx86.o
 *fill*         0x00000000c003c1d0       0x10 
 .data          0x00000000c003c1e0      0x1f0 x86.o
 *fill*         0x00000000c003c3d0       0x10 
 .data          0x00000000c003c3e0      0x1f0 stdio.o
 *fill*         0x00000000c003c5d0       0x10 
 .data          0x00000000c003c5e0      0x1f4 stdlib.o
 *fill*         0x00000000c003c7d4        0xc 
 .data          0x00000000c003c7e0      0x1f0 string.o
 *fill*         0x00000000c003c9d0       0x10 
 .data          0x00000000c003c9e0      0x1f0 tty.o
 *fill*         0x00000000c003cbd0       0x10 
 .data          0x00000000c003cbe0      0x1f0 init.o
 *fill*         0x00000000c003cdd0       0x10 
 .data          0x00000000c003cde0      0x1f0 logon.o
 *fill*         0x00000000c003cfd0       0x10 
 .data          0x00000000c003cfe0      0x1f0 logoff.o
 *fill*         0x00000000c003d1d0       0x10 
 .data          0x00000000c003d1e0      0x1f0 detect.o
 *fill*         0x00000000c003d3d0       0x10 
 .data          0x00000000c003d3e0      0x1f0 cpuamd.o
 *fill*         0x00000000c003d5d0       0x10 
 .data          0x00000000c003d5e0      0x1f0 memory.o
 *fill*         0x00000000c003d7d0       0x10 
 .data          0x00000000c003d7e0      0x1f0 pages.o
 *fill*         0x00000000c003d9d0       0x10 
 .data          0x00000000c003d9e0      0x1f0 mmpool.o
 *fill*         0x00000000c003dbd0       0x10 
 .data          0x00000000c003dbe0      0x1f0 apic.o
 *fill*         0x00000000c003ddd0       0x10 
 .data          0x00000000c003dde0      0x1f0 pic.o
 *fill*         0x00000000c003dfd0       0x10 
 .data          0x00000000c003dfe0      0x1f0 timer.o
 *fill*         0x00000000c003e1d0       0x10 
 .data          0x00000000c003e1e0      0x1f0 rtc.o
 *fill*         0x00000000c003e3d0       0x10 
 .data          0x00000000c003e3e0      0x1f0 keyboard.o
 *fill*         0x00000000c003e5d0       0x10 
 .data          0x00000000c003e5e0      0x1f0 mouse.o
 *fill*         0x00000000c003e7d0       0x10 
 .data          0x00000000c003e7e0      0x1f0 ldisc.o
 *fill*         0x00000000c003e9d0       0x10 
 .data          0x00000000c003e9e0      0x1f0 hdd.o
 *fill*         0x00000000c003ebd0       0x10 
 .data          0x00000000c003ebe0      0xec4 pci.o
                0x00000000c003ede0                _pci_classes2
                0x00000000c003f1e0                _pci_classnames
 .data          0x00000000c003faa4        0x0 usb.o
 *fill*         0x00000000c003faa4       0x1c 
 .data          0x00000000c003fac0      0x1f0 ahci.o
 *fill*         0x00000000c003fcb0       0x10 
 .data          0x00000000c003fcc0      0x1f0 devmgr.o
 *fill*         0x00000000c003feb0       0x10 
 .data          0x00000000c003fec0      0x1f0 spawn.o
 *fill*         0x00000000c00400b0       0x10 
 .data          0x00000000c00400c0      0x1f0 callout.o
 .data          0x00000000c00402b0        0x0 callfar.o
 *fill*         0x00000000c00402b0       0x10 
 .data          0x00000000c00402c0      0x1f0 process.o
 *fill*         0x00000000c00404b0       0x10 
 .data          0x00000000c00404c0      0x1f0 pheap.o
 *fill*         0x00000000c00406b0       0x10 
 .data          0x00000000c00406c0      0x1f0 thread.o
 *fill*         0x00000000c00408b0       0x10 
 .data          0x00000000c00408c0      0x1f0 threadi.o
 *fill*         0x00000000c0040ab0       0x10 
 .data          0x00000000c0040ac0      0x1f0 theap.o
 *fill*         0x00000000c0040cb0       0x10 
 .data          0x00000000c0040cc0      0x1f0 tstack.o
 *fill*         0x00000000c0040eb0       0x10 
 .data          0x00000000c0040ec0      0x1f0 create.o
 *fill*         0x00000000c00410b0       0x10 
 .data          0x00000000c00410c0      0x1f0 x86start.o
 *fill*         0x00000000c00412b0       0x10 
 .data          0x00000000c00412c0      0x1f0 x86cont.o
 *fill*         0x00000000c00414b0       0x10 
 .data          0x00000000c00414c0      0x1f0 tasks.o
 *fill*         0x00000000c00416b0       0x10 
 .data          0x00000000c00416c0      0x1f0 ts.o
 *fill*         0x00000000c00418b0       0x10 
 .data          0x00000000c00418c0      0x1f0 queue.o
 *fill*         0x00000000c0041ab0       0x10 
 .data          0x00000000c0041ac0      0x1f0 sched.o
 *fill*         0x00000000c0041cb0       0x10 
 .data          0x00000000c0041cc0      0x1f0 schedi.o
 *fill*         0x00000000c0041eb0       0x10 
 .data          0x00000000c0041ec0      0x1f0 preempt.o
 *fill*         0x00000000c00420b0       0x10 
 .data          0x00000000c00420c0      0x1f0 priority.o
 *fill*         0x00000000c00422b0       0x10 
 .data          0x00000000c00422c0      0x1f0 dispatch.o
 *fill*         0x00000000c00424b0       0x10 
 .data          0x00000000c00424c0      0x1f0 sem.o
 *fill*         0x00000000c00426b0       0x10 
 .data          0x00000000c00426c0      0x1f0 modules.o
 *fill*         0x00000000c00428b0       0x10 
 .data          0x00000000c00428c0      0x1f0 nicintel.o
 *fill*         0x00000000c0042ab0       0x10 
 .data          0x00000000c0042ac0      0x1f0 network.o
 *fill*         0x00000000c0042cb0       0x10 
 .data          0x00000000c0042cc0      0x1f0 socket.o
 *fill*         0x00000000c0042eb0       0x10 
 .data          0x00000000c0042ec0      0x1f0 sm.o
 *fill*         0x00000000c00430b0       0x10 
 .data          0x00000000c00430c0      0x1f0 channel.o
 *fill*         0x00000000c00432b0       0x10 
 .data          0x00000000c00432c0      0x1f0 ipc.o
 *fill*         0x00000000c00434b0       0x10 
 .data          0x00000000c00434c0      0x1f0 read.o
 *fill*         0x00000000c00436b0       0x10 
 .data          0x00000000c00436c0      0x1f0 write.o
 *fill*         0x00000000c00438b0       0x10 
 .data          0x00000000c00438c0      0x1f0 cf.o
 *fill*         0x00000000c0043ab0       0x10 
 .data          0x00000000c0043ac0      0x1f0 search.o
 *fill*         0x00000000c0043cb0       0x10 
 .data          0x00000000c0043cc0      0x1f0 format.o
 *fill*         0x00000000c0043eb0       0x10 
 .data          0x00000000c0043ec0      0x1f0 atainit.o
 *fill*         0x00000000c00440b0       0x10 
 .data          0x00000000c00440c0      0x1f0 atairq.o
 *fill*         0x00000000c00442b0       0x10 
 .data          0x00000000c00442c0      0x600 atapci.o
                0x00000000c00444c0                _pci_classes
 .data          0x00000000c00448c0      0x1f0 atadma.o
 *fill*         0x00000000c0044ab0       0x10 
 .data          0x00000000c0044ac0      0x1f0 ata.o
 *fill*         0x00000000c0044cb0       0x10 
 .data          0x00000000c0044cc0      0x1f0 diskvol.o
 *fill*         0x00000000c0044eb0       0x10 
 .data          0x00000000c0044ec0      0x1f0 fs.o
 *fill*         0x00000000c00450b0       0x10 
 .data          0x00000000c00450c0      0x1f0 vfs.o
 *fill*         0x00000000c00452b0       0x10 
 .data          0x00000000c00452c0      0x1f0 cedge.o
 *fill*         0x00000000c00454b0       0x10 
 .data          0x00000000c00454c0      0x1f0 ctype.o
 *fill*         0x00000000c00456b0       0x10 
 .data          0x00000000c00456c0      0x1f0 request.o
 *fill*         0x00000000c00458b0       0x10 
 .data          0x00000000c00458c0      0x1f0 info.o
 *fill*         0x00000000c0045ab0       0x10 
 .data          0x00000000c0045ac0      0x1f0 signal.o
 *fill*         0x00000000c0045cb0       0x10 
 .data          0x00000000c0045cc0      0x248 system.o
 *fill*         0x00000000c0045f08       0x18 
 .data          0x00000000c0045f20      0x1f0 bg.o
 *fill*         0x00000000c0046110       0x10 
 .data          0x00000000c0046120      0x1f0 grid.o
 *fill*         0x00000000c0046310       0x10 
 .data          0x00000000c0046320      0x1f0 sbar.o
 *fill*         0x00000000c0046510       0x10 
 .data          0x00000000c0046520      0x1f0 menubar.o
 *fill*         0x00000000c0046710       0x10 
 .data          0x00000000c0046720      0x1f0 menu.o
 *fill*         0x00000000c0046910       0x10 
 .data          0x00000000c0046920      0x1f0 i8042.o
 *fill*         0x00000000c0046b10       0x10 
 .data          0x00000000c0046b20      0x1f0 ps2mouse.o
 *fill*         0x00000000c0046d10       0x10 
 .data          0x00000000c0046d20      0x1f0 ps2kbd.o
 *fill*         0x00000000c0046f10       0x10 
 .data          0x00000000c0046f20      0x1f0 button.o
 *fill*         0x00000000c0047110       0x10 
 .data          0x00000000c0047120      0x1f0 char.o
 *fill*         0x00000000c0047310       0x10 
 .data          0x00000000c0047320      0x1f0 pixel.o
 *fill*         0x00000000c0047510       0x10 
 .data          0x00000000c0047520      0x1f0 line.o
 *fill*         0x00000000c0047710       0x10 
 .data          0x00000000c0047720      0x1f0 rect.o
 *fill*         0x00000000c0047910       0x10 
 .data          0x00000000c0047920      0x1f0 dtext.o
 *fill*         0x00000000c0047b10       0x10 
 .data          0x00000000c0047b20      0x1f0 font.o
 *fill*         0x00000000c0047d10       0x10 
 .data          0x00000000c0047d20      0x1f0 vsync.o
 *fill*         0x00000000c0047f10       0x10 
 .data          0x00000000c0047f20      0x1f0 bmp.o
 *fill*         0x00000000c0048110       0x10 
 .data          0x00000000c0048120      0x1f0 createw.o
 *fill*         0x00000000c0048310       0x10 
 .data          0x00000000c0048320      0x1f0 window.o
 *fill*         0x00000000c0048510       0x10 
 .data          0x00000000c0048520      0x1f0 desktop.o
 *fill*         0x00000000c0048710       0x10 
 .data          0x00000000c0048720      0x1f0 room.o
 *fill*         0x00000000c0048910       0x10 
 .data          0x00000000c0048920      0x1f0 usession.o
 *fill*         0x00000000c0048b10       0x10 
 .data          0x00000000c0048b20      0x1f0 gws.o
 *fill*         0x00000000c0048d10       0x10 
 .data          0x00000000c0048d20      0x1f0 object.o
 *fill*         0x00000000c0048f10       0x10 
 .data          0x00000000c0048f20      0x1f0 userenv.o
 *fill*         0x00000000c0049110       0x10 
 .data          0x00000000c0049120      0x1f0 proc.o
 *fill*         0x00000000c0049310       0x10 
 .data          0x00000000c0049320      0x1f0 syscall.o
 *fill*         0x00000000c0049510       0x10 
 .data          0x00000000c0049520      0x1f0 install.o
 *fill*         0x00000000c0049710       0x10 
 .data          0x00000000c0049720      0x1f0 serial.o
 *fill*         0x00000000c0049910       0x10 
 .data          0x00000000c0049920      0x1f0 debug.o
 *fill*         0x00000000c0049b10       0x10 
 .data          0x00000000c0049b20      0x1f0 abort.o
 *fill*         0x00000000c0049d10       0x10 
 .data          0x00000000c0049d20      0x1f0 x86fault.o
 *fill*         0x00000000c0049f10       0x10 
 .data          0x00000000c0049f20      0x1f0 services.o
                0x00000000c004a110                _data_end = .
                0x00000000c004b000                . = ALIGN (0x1000)
 *fill*         0x00000000c004a110      0xef0 

.got            0x00000000c004b000        0x0
 .got           0x00000000c004b000        0x0 services.o

.got.plt        0x00000000c004b000        0x0
 .got.plt       0x00000000c004b000        0x0 services.o

.igot.plt       0x00000000c004b000        0x0
 .igot.plt      0x00000000c004b000        0x0 services.o

.bss            0x00000000c004b000    0x4e000
                0x00000000c004b000                _bss_begin = .
 *(COMMON)
 COMMON         0x00000000c004b000    0x3cc80 x86main.o
                0x00000000c004b000                _framepoolBackBuffer3
                0x00000000c004b004                _guiMenu
                0x00000000c004b020                _usessionList
                0x00000000c004b060                _terminalOffsetMax
                0x00000000c004b064                _g_backbuffer_va
                0x00000000c004b068                _g_module_volume_initialized
                0x00000000c004b06c                _server_stdio
                0x00000000c004b080                _menuList
                0x00000000c004b480                _Graphics
                0x00000000c004b4a0                _framepoolList
                0x00000000c004c4a0                _dispatcherType
                0x00000000c004c4a4                _pci_handler_address
                0x00000000c004c4a8                _mainButton3
                0x00000000c004c4ac                _zicaaaaadasf
                0x00000000c004c4b0                _IdleThread
                0x00000000c004c4b4                _Irq9
                0x00000000c004c4b8                _g_frontbuffer_va
                0x00000000c004c4bc                _clientCW
                0x00000000c004c4c0                _userconfig_Status
                0x00000000c004c4e0                _prompt
                0x00000000c004c5e0                _MenuBar
                0x00000000c004c5e4                _semaforo_color
                0x00000000c004c5e8                _g_module_debug_initialized
                0x00000000c004c600                _threadList
                0x00000000c004d600                _pci_device
                0x00000000c004d604                _g_module_disk_initialized
                0x00000000c004d608                _terminalOffset
                0x00000000c004d60c                _kernel_heap_end
                0x00000000c004d610                _scrolllock_status
                0x00000000c004d620                _screenGrid
                0x00000000c004d820                _windowzoneStart
                0x00000000c004d824                _partition
                0x00000000c004d828                _fatbits
                0x00000000c004d82c                _g9x14fontAddress
                0x00000000c004d830                _framepoolBackBuffer2
                0x00000000c004d834                _CurrentChannel
                0x00000000c004d838                _task_switch_status
                0x00000000c004d83c                _ata_record_dev
                0x00000000c004d840                _systemzoneEnd
                0x00000000c004d844                _CurrentConsole
                0x00000000c004d848                _lineOffsetMax
                0x00000000c004d84c                _delta_x
                0x00000000c004d850                _serverSP
                0x00000000c004d854                _LocalHostHTTPSocket
                0x00000000c004d858                _ioControl_mouse
                0x00000000c004d85c                _GRID
                0x00000000c004d860                _cursorIconBuffer
                0x00000000c004d864                _preempted_task
                0x00000000c004d868                _ActiveWindow
                0x00000000c004d86c                _mouse_buttom_3
                0x00000000c004d870                _capslock_status
                0x00000000c004d874                _KernelArgs
                0x00000000c004d884                _Irq5
                0x00000000c004d888                _Irq13
                0x00000000c004d88c                _terminalWindowWithFocus
                0x00000000c004d890                _Irq2
                0x00000000c004d8a0                _pcideviceList
                0x00000000c004d920                _IpcProcedure
                0x00000000c004d924                _fullscreen_window
                0x00000000c004d928                _g_navigationbar_height
                0x00000000c004d92c                _keyboard_message_head
                0x00000000c004d930                _windowstations_count
                0x00000000c004d934                _textcursorStatus
                0x00000000c004d938                _pmiMemoryInfo
                0x00000000c004d93c                _current_stdin
                0x00000000c004d940                _SavedRect
                0x00000000c004d944                _TaskManThread
                0x00000000c004d948                _current_volume_string
                0x00000000c004d94c                _mouse_button_action
                0x00000000c004d950                _Irq15
                0x00000000c004d954                _g_module_fs_initialized
                0x00000000c004d958                _bmp_change_color_flag
                0x00000000c004d95c                _framepoolBackBuffer4
                0x00000000c004d960                _idleprocessorList
                0x00000000c004d9e0                _g_driver_hdd_initialized
                0x00000000c004d9e4                _g9x16fontAddress
                0x00000000c004d9e8                _storage
                0x00000000c004d9ec                _systemzoneStart
                0x00000000c004d9f0                _waiting_procs
                0x00000000c004d9f4                _running_tasks
                0x00000000c004d9f8                _desktop_Conductor2
                0x00000000c004d9fc                _g_device_screen_width
                0x00000000c004da00                _desktop_rootConductor
                0x00000000c004da04                _extra
                0x00000000c004da20                _fsbFrames
                0x00000000c004ea20                _g_user_space_framepool_index
                0x00000000c004ea24                _Initialization
                0x00000000c004ea3c                _Console
                0x00000000c004ea40                _next_thread
                0x00000000c004ea60                _GUI_CONFIG
                0x00000000c004ea9c                _systemzoneSize
                0x00000000c004eaa0                _zorderCounter
                0x00000000c004eaa4                _mmFramesSuperBlockTotalUsed
                0x00000000c004eaa8                _quantum
                0x00000000c004eaac                _stderr
                0x00000000c004eab0                _g_mainwindow_width
                0x00000000c004eab4                _cur_process
                0x00000000c004eab8                _waiting_list_head
                0x00000000c004eabc                _FileAccess
                0x00000000c004eac0                _g_logged
                0x00000000c004eac4                _file_TaskMan
                0x00000000c004eac8                _RGBA
                0x00000000c004eacc                _desktop0
                0x00000000c004ead0                _blocked_list_head
                0x00000000c004eae0                _nicList
                0x00000000c004eb00                _gui
                0x00000000c004eb04                _CurrentUserSession
                0x00000000c004eb08                _g_device_screen_height
                0x00000000c004eb0c                _g_mousepointer_height
                0x00000000c004eb10                _g_module_uem_initialized
                0x00000000c004eb14                _processor
                0x00000000c004eb20                _userList
                0x00000000c004eb60                _prompt_pos
                0x00000000c004eb64                _saved_mouse_x
                0x00000000c004eb68                _Irq10
                0x00000000c004eb6c                _Conductor
                0x00000000c004eb70                _ide_handler_address
                0x00000000c004eb74                _RemoteRequests
                0x00000000c004eb78                _Process
                0x00000000c004eb7c                _mbr
                0x00000000c004eb80                _current_mmblock
                0x00000000c004eba0                _deviceList
                0x00000000c004efa0                ___spinlock_ipc
                0x00000000c004efa4                _ASpace
                0x00000000c004efc0                _objects_um
                0x00000000c005b080                _mmFramesSuperBlockSize
                0x00000000c005b084                _kernel_stack_start
                0x00000000c005b088                _Rtc
                0x00000000c005b08c                _start_new_task_address
                0x00000000c005b090                _g_module_gui_initialized
                0x00000000c005b094                _file_Init
                0x00000000c005b098                _KeInitPhase
                0x00000000c005b09c                _windows_count
                0x00000000c005b0a0                _pagetableList
                0x00000000c005c0a0                _combobox_window
                0x00000000c005c0a4                _framepoolBackBuffer1
                0x00000000c005c0a8                _g_driver_video_initialized
                0x00000000c005c0ac                _active_window
                0x00000000c005c0c0                _objects_km
                0x00000000c0068180                _vfs
                0x00000000c0068184                _current_pci_device
                0x00000000c0068188                _file_InitTXT
                0x00000000c006818c                _g_show_text_cursor
                0x00000000c0068190                _Hardware
                0x00000000c0068194                _DefaultUserSession
                0x00000000c0068198                _current_process
                0x00000000c006819c                _mmglobalInitialingVAR
                0x00000000c00681a0                _appIconBuffer
                0x00000000c00681a4                _current_desktop
                0x00000000c00681a8                _Cursor
                0x00000000c00681ac                _numlock_status
                0x00000000c00681c0                _requestList
                0x00000000c0068240                _usession0
                0x00000000c0068244                _g_gramadocore_shell_heap_size
                0x00000000c0068248                _CurrentSocket
                0x00000000c006824c                _TaskBar
                0x00000000c0068250                _g_module_logoff_initialized
                0x00000000c0068254                _pagetableCurrent
                0x00000000c0068258                _usession_Conductor
                0x00000000c006825c                _g8x14fontAddress
                0x00000000c0068260                _Irq12
                0x00000000c0068264                _mainButton1
                0x00000000c0068268                _scStatus
                0x00000000c006826c                _stdin
                0x00000000c0068270                _g_frontbuffer_pa
                0x00000000c0068274                _old_mouse_buttom_1
                0x00000000c0068280                _sata_pci
                0x00000000c00682d4                _gStreams
                0x00000000c00682d8                _mmFramesSuperBlockTotalFree
                0x00000000c00682dc                _gcharWidth
                0x00000000c00682e0                _logonMenu
                0x00000000c00682e4                _gTaskmanPageDirectoryAddress
                0x00000000c00682e8                _savedmouseoverwindowY
                0x00000000c00682ec                _file_BootLoader
                0x00000000c0068300                _socketList
                0x00000000c0068380                _g_module_logon_initialized
                0x00000000c0068384                _client_stderr
                0x00000000c0068388                _next_address
                0x00000000c006838c                _destroy_window
                0x00000000c0068390                _dispatcherQueueIndex
                0x00000000c0068394                _fileIconBuffer
                0x00000000c0068398                _room0
                0x00000000c006839c                _kernel_heap_start
                0x00000000c00683a0                _g8x16fontAddress
                0x00000000c00683a4                _g_current_object
                0x00000000c00683a8                _PrideColorScheme
                0x00000000c00683ac                _current_room
                0x00000000c00683b0                _mac_address
                0x00000000c00683b4                _queue
                0x00000000c00683b8                _system_disk
                0x00000000c00683bc                _DispatchCountBlock
                0x00000000c00683c0                _current_dead_process
                0x00000000c00683c4                _shift_status
                0x00000000c00683e0                _ide_dma_prdt
                0x00000000c0068400                _current_directory
                0x00000000c0068420                _vfs_handle_list
                0x00000000c0068c20                _sys_time_ms
                0x00000000c0068c24                _kernel_stack_start_pa
                0x00000000c0068c28                _rect
                0x00000000c0068c2c                _partition_chars
                0x00000000c0068c30                _logonStatus
                0x00000000c0068c34                _framepoolFrontBuffer3
                0x00000000c0068c38                _current_window
                0x00000000c0068c3c                _terminalIconBuffer
                0x00000000c0068c40                _g_available_heap
                0x00000000c0068c44                _start_new_task_id
                0x00000000c0068c48                _process_Conductor2
                0x00000000c0068c4c                _g_heap_count
                0x00000000c0068c50                _alt_status
                0x00000000c0068c54                _schedulerType
                0x00000000c0068c58                _g_cursor_width
                0x00000000c0068c5c                _current_disk
                0x00000000c0068c60                _volume1_rootdir
                0x00000000c0068c64                _g_new_message
                0x00000000c0068c68                _pwd_initialized
                0x00000000c0068c6c                _Firmware
                0x00000000c0068c70                _volume_bootpartition
                0x00000000c0068c74                _file_BootManager
                0x00000000c0068c78                _current_dead_thread
                0x00000000c0068c7c                _current_keyboard_responder
                0x00000000c0068c80                _system_message_write
                0x00000000c0068c84                _semaforo_priority
                0x00000000c0068c88                _mouseover_window
                0x00000000c0068c8c                _kbMsgStatus
                0x00000000c0068c90                _g_module_objectmanager_initialized
                0x00000000c0068c94                _terminalActiveWindow
                0x00000000c0068c98                _ata_record_channel
                0x00000000c0068c9c                _zorderTopWindow
                0x00000000c0068ca0                _gKernelPageDirectoryAddress
                0x00000000c0068ca4                _g_current_framepool
                0x00000000c0068ca8                _current_taskman_server
                0x00000000c0068cac                _DefaultUser
                0x00000000c0068cb0                _task_color
                0x00000000c0068cb4                _framepoolFrontBuffer1
                0x00000000c0068cb8                _heapCount
                0x00000000c0068cbc                _windowzoneEnd
                0x00000000c0068cc0                _current_filesystem
                0x00000000c0068cc4                _Thread
                0x00000000c0068cc8                _g_pagedpool_va
                0x00000000c0068ccc                _current_stderr
                0x00000000c0068ce0                _ProcessorBlock
                0x00000000c0068d10                _current_mouse_responder
                0x00000000c0068d14                _pagedirectoryIdleProcess
                0x00000000c0068d18                _client_stdio
                0x00000000c0068d1c                _KernelRequests
                0x00000000c0068d20                _volume_vfs
                0x00000000c0068d24                _g_mousepointer_x
                0x00000000c0068d28                _usersession_start
                0x00000000c0068d2c                _g_cursor_top
                0x00000000c0068d30                _processors_count
                0x00000000c0068d34                _CurrentProcedure
                0x00000000c0068d38                _mmFramesSuperBlockTotal
                0x00000000c0068d3c                _periodic_procs
                0x00000000c0068d40                _g_inputmode
                0x00000000c0068d44                _UserHeap
                0x00000000c0068d48                _keyboard_handler_address
                0x00000000c0068d4c                _kernel_stack_end
                0x00000000c0068d50                _file_Kernel
                0x00000000c0068d54                _g_object_manager_status
                0x00000000c0068d58                _g_cursor_right
                0x00000000c0068d5c                _desktop_Conductor
                0x00000000c0068d60                _InitProcess
                0x00000000c0068d64                _system_volume
                0x00000000c0068d68                _microkernelStatus
                0x00000000c0068d6c                _zones
                0x00000000c0068d70                _lineBuffer
                0x00000000c0068d74                _miMemoryInfo
                0x00000000c0068d78                _desktopDefault
                0x00000000c0068d7c                _g_module_runtime_initialized
                0x00000000c0068d80                _ioControl_keyboard
                0x00000000c0068d84                _file_LA
                0x00000000c0068d88                _VersionInfo
                0x00000000c0068da0                _inode_list
                0x00000000c00695a0                _file_CFE
                0x00000000c00695a4                _system_procs
                0x00000000c00695a8                _window_with_focus
                0x00000000c00695ac                _g_proc_status
                0x00000000c00695b0                _framepoolCurrent
                0x00000000c00695c0                _desktopList
                0x00000000c0069600                _gNextKeyboardMessage
                0x00000000c0069604                _pagedirectoryShared
                0x00000000c0069608                _g_heappool_va
                0x00000000c006960c                _idle
                0x00000000c0069610                _g_spc
                0x00000000c0069614                _KernelHeap
                0x00000000c0069618                _pagedirectoryCurrent
                0x00000000c006961c                _gLogonPID
                0x00000000c0069620                _CurrentWindow
                0x00000000c0069624                _g_product_type
                0x00000000c0069628                _vbr
                0x00000000c006962c                _Irq14
                0x00000000c0069630                _g_nstream
                0x00000000c0069634                _g_heap_pointer
                0x00000000c0069638                _LineShell
                0x00000000c006963c                _mouse_pos_x
                0x00000000c0069640                _ipcStatus
                0x00000000c0069644                _WindowWithFocus
                0x00000000c0069648                _task_count
                0x00000000c006964c                _Screen
                0x00000000c0069650                _pipe_gramadocore_init_execve
                0x00000000c0069660                _channelList
                0x00000000c00696e0                _g_kernel_nonpaged_memory
                0x00000000c00696e4                _timer_handler_address
                0x00000000c00696e8                _kernel_switch
                0x00000000c00696ec                _old_mouse_buttom_3
                0x00000000c00696f0                _guiStatus
                0x00000000c00696f4                _window_rootConductor
                0x00000000c00696f8                _terminalLineMax
                0x00000000c0069700                _heapList
                0x00000000c0069720                _ttyCurrentX
                0x00000000c0069724                _volume2_rootdir
                0x00000000c0069728                _CurrentDesktop
                0x00000000c006972c                _DriveContext
                0x00000000c0069740                _prompt_err
                0x00000000c0069840                _abnt2
                0x00000000c0069844                _gFocusBlocked
                0x00000000c0069848                _current_socket
                0x00000000c006984c                _sata_handler_address
                0x00000000c0069850                _desktops_count
                0x00000000c0069854                _KernelPages
                0x00000000c0069860                _directory_entry_list
                0x00000000c006a060                _g_driver_apic_initialized
                0x00000000c006a064                __lockfocus
                0x00000000c006a068                _file_download
                0x00000000c006a06c                _saved_mouse_y
                0x00000000c006a070                _current_usersession
                0x00000000c006a074                _g_video_mode
                0x00000000c006a078                _fat
                0x00000000c006a07c                _ttyCurrentY
                0x00000000c006a080                _stdio_verbosemode_flag
                0x00000000c006a084                _file_bin
                0x00000000c006a088                _mmFramesSuperBlockEnd
                0x00000000c006a0a0                _processList
                0x00000000c006b0a0                _memorysizeExtendedMemory
                0x00000000c006b0a4                _Irq8
                0x00000000c006b0a8                _lineLine
                0x00000000c006b0ac                _gPagedPollStart
                0x00000000c006b0c0                _roomList
                0x00000000c006b100                _g_backbuffer_pa
                0x00000000c006b104                _systemzone
                0x00000000c006b108                _keyboard_message_tail
                0x00000000c006b120                _ata_pci
                0x00000000c006b174                _ATAFlag
                0x00000000c006b178                _sys_time_hz
                0x00000000c006b17c                _gLogoffPID
                0x00000000c006b180                _gfontSize
                0x00000000c006b184                _start_new_task_status
                0x00000000c006b188                _CurrentProcess
                0x00000000c006b1a0                _pageList
                0x00000000c006c1a0                _framepoolFrontBuffer4
                0x00000000c006c1a4                _current_semaphore
                0x00000000c006c1c0                _realtimeprocessorList
                0x00000000c006c240                _timer_cursor_used
                0x00000000c006c244                _g_gramadocore_init_heap_size
                0x00000000c006c248                _clientCP
                0x00000000c006c24c                _g_gramadocore_init_heap_va
                0x00000000c006c250                _g_total_physical_memory
                0x00000000c006c254                _ready_list_head
                0x00000000c006c258                _g_mousepointer_width
                0x00000000c006c25c                _usession_rootConductor
                0x00000000c006c260                _current_terminal
                0x00000000c006c264                _line_stderr
                0x00000000c006c268                _lineOffset
                0x00000000c006c26c                _window_Conductor2
                0x00000000c006c270                _g_machine_type
                0x00000000c006c274                _client_stdout
                0x00000000c006c278                _eventStatus
                0x00000000c006c27c                _Irq11
                0x00000000c006c280                _current_stdout
                0x00000000c006c284                _pageframeCurrent
                0x00000000c006c288                _ipcBuffer
                0x00000000c006c28c                _newtask_EIP
                0x00000000c006c290                _top_window
                0x00000000c006c294                _menuitemDefault
                0x00000000c006c298                _g_scheduler_status
                0x00000000c006c29c                _FULLSCREEN_TABWINDOW
                0x00000000c006c2a0                _quit_message
                0x00000000c006c2a4                _TaskManProcess
                0x00000000c006c2a8                _LineHead
                0x00000000c006c2c0                _ide_ports
                0x00000000c006c320                _SystemUser
                0x00000000c006c324                _current_quantum
                0x00000000c006c328                _stdout
                0x00000000c006c340                _activeprocessorList
                0x00000000c006c3c0                _windowzoneSize
                0x00000000c006c3c4                _g_driver_rtc_initialized
                0x00000000c006c3c8                _SystemClasses
                0x00000000c006c3e0                _objects_gui
                0x00000000c00784a0                _g_navigationbar_width
                0x00000000c00784a4                _gws_currentfont_address
                0x00000000c00784c0                _windowList
                0x00000000c00794c0                _gPagedPollEnd
                0x00000000c00794c4                _windowzone
                0x00000000c00794c8                _ShellThread
                0x00000000c00794cc                _file_CS
                0x00000000c00794e0                _Streams
                0x00000000c0079560                _Irq6
                0x00000000c0079564                _gInitPageDirectoryAddress
                0x00000000c0079568                _IDE
                0x00000000c007957c                _g_cursor_left
                0x00000000c0079580                _g_system_color
                0x00000000c0079584                _defaultChannel
                0x00000000c0079588                _g_cursor_bottom
                0x00000000c007958c                _Irq3
                0x00000000c0079590                _realtimeStatus
                0x00000000c0079594                _editbox_window
                0x00000000c0079598                _kernel_request
                0x00000000c007959c                _idle_thread
                0x00000000c00795a0                _g_pageable_framepool_index_max
                0x00000000c00795a4                _current_thread
                0x00000000c00795c0                _Pipes
                0x00000000c00795e0                _processorsList
                0x00000000c0079660                _Bank
                0x00000000c0079664                _fileBuffer
                0x00000000c0079668                _timer_cursor_status
                0x00000000c007966c                _g_current_vm
                0x00000000c0079670                _rectClientArea
                0x00000000c0079674                _file_Shell
                0x00000000c0079680                _current_target_dir
                0x00000000c00796ac                _schedulerQueue
                0x00000000c00796bc                _systemSize
                0x00000000c00796c0                _object
                0x00000000c00796c4                _gDeveloperOptions
                0x00000000c00796e0                _keybuffer
                0x00000000c0079760                _zorder
                0x00000000c0079780                _keyboard_queue
                0x00000000c00798a0                _forkid
                0x00000000c00798a4                _menus_count
                0x00000000c00798a8                _current_volume
                0x00000000c00798ac                _shutdown_address
                0x00000000c00798c0                _ioControl
                0x00000000c0079940                _devices
                0x00000000c0079944                _terminalLine
                0x00000000c0079948                _serialportError
                0x00000000c007994c                _desktop1
                0x00000000c0079950                _gcharHeight
                0x00000000c0079954                _g_use_default_user
                0x00000000c0079958                _mouse_buttom_1
                0x00000000c007995c                _RING0IDLEThread
                0x00000000c0079960                _mouse_status
                0x00000000c0079964                _framepoolFrontBuffer2
                0x00000000c0079968                _pipe_execve
                0x00000000c007996c                _g_gramadocore_taskman_heap_va
                0x00000000c0079980                _diskList
                0x00000000c007a980                _server_stderr
                0x00000000c007a984                _Conductor2
                0x00000000c007a988                _KernelClasses
                0x00000000c007a9a0                _fsbFreeFrames
                0x00000000c007b9a0                _old_mouse_buttom_2
                0x00000000c007b9a4                _screenBuffers
                0x00000000c007b9a8                _current_process_pagedirectory_address
                0x00000000c007b9ac                _rr_procs
                0x00000000c007b9b0                _KernelProcess
                0x00000000c007b9b4                _delta_y
                0x00000000c007b9b8                _framepoolPageableSpace
                0x00000000c007b9bc                _lineLineMax
                0x00000000c007b9c0                _KernelHeapSize
                0x00000000c007b9c4                _HostDeviceInfo
                0x00000000c007b9e0                _prompt_out
                0x00000000c007bae0                _bmp_selected_color
                0x00000000c007bae4                _g_driver_pci_initialized
                0x00000000c007bb00                _file_cluster_list
                0x00000000c007c300                _escape_status
                0x00000000c007c304                _memorysizeOtherMemory
                0x00000000c007c308                _IpcProcedureEx
                0x00000000c007c320                _mmblockList
                0x00000000c0084320                _g_driver_timer_initialized
                0x00000000c0084324                _HostInfo
                0x00000000c0084328                _ata_identify_dev_buf
                0x00000000c008432c                _Irq0
                0x00000000c0084330                _file_dd
                0x00000000c0084334                _DSpace
                0x00000000c0084338                _g_next_app
                0x00000000c008433c                _g_gramadocore_taskman_heap_size
                0x00000000c0084340                _timerList
                0x00000000c00843c0                _file_libs
                0x00000000c00843c4                _idle_proc
                0x00000000c00843c8                _clientCR
                0x00000000c00843cc                _g_useGUI
                0x00000000c00843d0                _g_filesystem_type
                0x00000000c00843d4                _Irq4
                0x00000000c00843d8                _dirCount
                0x00000000c00843dc                _ShellProcess
                0x00000000c00843e0                _keybuffer_head
                0x00000000c00843e4                _CurrentBuffer
                0x00000000c00843e8                _CurrentColorScheme
                0x00000000c00843ec                _next_quantum
                0x00000000c00843f0                _process_rootConductor
                0x00000000c0084400                _dev_nport
                0x00000000c0084420                _stdio_terminalmode_flag
                0x00000000c0084424                _menuDefault
                0x00000000c0084428                _framepoolSmallSystemUserSpace
                0x00000000c008442c                _ata
                0x00000000c0084444                _zicaaa
                0x00000000c0084448                _rootConductor
                0x00000000c008444c                _mouse_pos_y
                0x00000000c0084450                _gSystemStatus
                0x00000000c0084454                _DeveloperWindowCursor
                0x00000000c0084458                _tab_status
                0x00000000c008445c                _Version
                0x00000000c0084460                _file_pwd
                0x00000000c0084464                _userenvironmentStatus
                0x00000000c0084468                _g_guiMinimal
                0x00000000c008446c                _time_out
                0x00000000c0084470                _current_file
                0x00000000c0084474                _pagedirectoryKernelProcess
                0x00000000c0084478                _g_mainwindow_height
                0x00000000c008447c                _VideoBlock
                0x00000000c0084498                _System
                0x00000000c008449c                _KernelSize
                0x00000000c00844a0                _Line
                0x00000000c00844c0                _dispatcherReadyList
                0x00000000c00844e8                _ScreenInfo
                0x00000000c00844ec                _CurrentCursor
                0x00000000c00844f0                _g8x8fontAddress
                0x00000000c00844f4                _KernelStackSize
                0x00000000c00844f8                _zica
                0x00000000c00844fc                _keybuffer_index
                0x00000000c0084500                _g_cursor_color
                0x00000000c0084504                _memorysizeTotal
                0x00000000c0084520                _pageAllocList
                0x00000000c0085520                _g_system_mode
                0x00000000c0085524                _Irq1
                0x00000000c0085528                _g_current_video_mode
                0x00000000c008552c                _g_heap_count_max
                0x00000000c0085530                _cur_thread
                0x00000000c0085534                _current_group
                0x00000000c0085538                _process_Conductor
                0x00000000c008553c                _BackBufferInfo
                0x00000000c0085540                _file_users
                0x00000000c0085544                _conductorIndex
                0x00000000c0085548                _g_mousepointer_y
                0x00000000c008554c                _g_framepool_max
                0x00000000c0085550                _task_waiting
                0x00000000c0085554                _keybuffer_tail
                0x00000000c0085558                _g_cursor_y
                0x00000000c008555c                _volume_systempartition
                0x00000000c0085560                _Irq7
                0x00000000c0085564                _banksCount
                0x00000000c0085568                _Pic
                0x00000000c008556c                _Platform
                0x00000000c0085570                _system_message_read
                0x00000000c0085574                _errno
                0x00000000c0085578                _old
                0x00000000c008557c                _g_heap_size
                0x00000000c0085580                _zorderList
                0x00000000c0085780                _gSystemEdition
                0x00000000c00857a0                _pagedirectoryList
                0x00000000c00867a0                _framepoolMediumSystemUserSpace
                0x00000000c00867a4                _menubarDefault
                0x00000000c00867a8                _filesystem
                0x00000000c00867ac                _logoffStatus
                0x00000000c00867b0                _current_user
                0x00000000c00867b4                _WindowProcedure
                0x00000000c00867b8                _framepoolKernelSpace
                0x00000000c00867bc                _memorysizeBaseMemory
                0x00000000c00867c0                _key_status
                0x00000000c00867c4                _server_stdout
                0x00000000c00867c8                _g_file_system_type
                0x00000000c00867cc                _currentNIC
                0x00000000c00867d0                _g_gramadocore_shell_heap_va
                0x00000000c00867d4                _mmblockCount
                0x00000000c00867d8                _prompt_status
                0x00000000c00867dc                _pagedirectoryTaskmanProcess
                0x00000000c00867e0                _ambiente
                0x00000000c00867e4                _framepoolLargeSystemUserSpace
                0x00000000c00867e8                _g_platform_type
                0x00000000c00867ec                _folderIconBuffer
                0x00000000c00867f0                _line_stdin
                0x00000000c00867f4                _g_kernel_paged_memory
                0x00000000c00867f8                _mmFramesSuperBlockStart
                0x00000000c00867fc                _mouseBMPBuffer
                0x00000000c0086800                _g_driver_keyboard_initialized
                0x00000000c0086804                _rtc
                0x00000000c0086808                _bmp_substitute_color
                0x00000000c008680c                _window_Conductor
                0x00000000c0086810                _lastBank
                0x00000000c0086814                _e1000_interrupt_flag
                0x00000000c0086818                _g_mm_system_type
                0x00000000c008681c                _g_kernel_lfb
                0x00000000c0086820                _PciDrivers
                0x00000000c0086840                _system_message_queue
                0x00000000c00868c0                _usession_Conductor2
                0x00000000c00868c4                _terminal_window
                0x00000000c00868c8                _mainButton2
                0x00000000c00868cc                _CurrentScreen
                0x00000000c00868d0                _sys_time_ticks_total
                0x00000000c00868e0                _queueList
                0x00000000c0086900                _ttyLineCounter
                0x00000000c0086904                _g_char_attrib
                0x00000000c0086908                _HumilityColorScheme
                0x00000000c008690c                _window_mouse_over
                0x00000000c0086910                _file_tmp
                0x00000000c0086914                _ctrl_status
                0x00000000c0086918                _e1000_irq_count
                0x00000000c008691c                _g_module_shell_initialized
                0x00000000c0086920                _g_next_proc
                0x00000000c0086940                _semaphoreList
                0x00000000c00869c4                _file_CWE
                0x00000000c00869c8                _winkey_status
                0x00000000c00869cc                _FrontBufferInfo
                0x00000000c00869d0                _g_current_list
                0x00000000c00869d4                _savedmouseoverwindowX
                0x00000000c00869d8                _line_stdout
                0x00000000c00869dc                _g_module_mm_initialized
                0x00000000c00869e0                _g_cursor_height
                0x00000000c0086a00                _current_workingdiretory_string
                0x00000000c0086a20                _gShellPageDirectoryAddress
                0x00000000c0086a40                _volumeList
                0x00000000c0087a40                _TERMINAL
                0x00000000c0087c60                _g_nova_mensagem
                0x00000000c0087c64                _current_menu
                0x00000000c0087c68                _pmiCurrent
                0x00000000c0087c6c                _Pci
                0x00000000c0087c70                _g_cursor_x
                0x00000000c0087c74                _UserRequests
                0x00000000c0087c78                _mouse_buttom_2
                0x00000000c0087c7c                _CurrentUser
 COMMON         0x00000000c0087c80        0x8 video.o
                0x00000000c0087c80                _videoError
                0x00000000c0087c84                _videoStatus
 COMMON         0x00000000c0087c88        0x8 screen.o
                0x00000000c0087c88                _screen_height
                0x00000000c0087c8c                _screen_width
 COMMON         0x00000000c0087c90        0xc memory.o
                0x00000000c0087c90                _mm_prev_pointer
                0x00000000c0087c94                _last_size
                0x00000000c0087c98                _last_valid
 COMMON         0x00000000c0087c9c        0x8 pic.o
                0x00000000c0087c9c                _picError
                0x00000000c0087ca0                _picStatus
 COMMON         0x00000000c0087ca4       0x20 timer.o
                0x00000000c0087ca4                _timerShowTextCursor
                0x00000000c0087ca8                _timerColor
                0x00000000c0087cac                _timerTextCursorStatus
                0x00000000c0087cb0                _timerStatus
                0x00000000c0087cb4                _timerIdleState
                0x00000000c0087cb8                _timerError
                0x00000000c0087cbc                _timerLock
                0x00000000c0087cc0                _timerLine
 COMMON         0x00000000c0087cc4        0xc rtc.o
                0x00000000c0087cc4                _rtcError
                0x00000000c0087cc8                _rtcTicks
                0x00000000c0087ccc                _rtcStatus
 COMMON         0x00000000c0087cd0        0x8 hdd.o
                0x00000000c0087cd0                _hddError
                0x00000000c0087cd4                _hddStatus
 COMMON         0x00000000c0087cd8        0x8 pci.o
                0x00000000c0087cd8                _pciListOffset
                0x00000000c0087cdc                _pci_supported
 COMMON         0x00000000c0087ce0        0x4 ahci.o
                0x00000000c0087ce0                _SATAFlag
 COMMON         0x00000000c0087ce4        0x8 process.o
                0x00000000c0087ce4                _processNewPID
                0x00000000c0087ce8                _caller_process_id
 COMMON         0x00000000c0087cec       0x40 x86cont.o
                0x00000000c0087cec                _contextESP
                0x00000000c0087cf0                _contextEDX
                0x00000000c0087cf4                _contextFS
                0x00000000c0087cf8                _contextDS
                0x00000000c0087cfc                _contextESI
                0x00000000c0087d00                _contextEIP
                0x00000000c0087d04                _contextGS
                0x00000000c0087d08                _contextEFLAGS
                0x00000000c0087d0c                _contextECX
                0x00000000c0087d10                _contextEBP
                0x00000000c0087d14                _contextCS
                0x00000000c0087d18                _contextEAX
                0x00000000c0087d1c                _contextEBX
                0x00000000c0087d20                _contextEDI
                0x00000000c0087d24                _contextES
                0x00000000c0087d28                _contextSS
 COMMON         0x00000000c0087d2c        0x4 ts.o
                0x00000000c0087d2c                _lock_taskswitch
 COMMON         0x00000000c0087d30        0x5 nicintel.o
                0x00000000c0087d30                _nic_idt_entry_new_address
                0x00000000c0087d34                _nic_idt_entry_new_number
 *fill*         0x00000000c0087d35        0x3 
 COMMON         0x00000000c0087d38        0x4 network.o
                0x00000000c0087d38                _network_status
 *fill*         0x00000000c0087d3c        0x4 
 COMMON         0x00000000c0087d40    0x10000 write.o
                0x00000000c0087d40                _list
 COMMON         0x00000000c0097d40        0xc ata.o
                0x00000000c0097d40                _dma_addr
                0x00000000c0097d44                _current_dev
                0x00000000c0097d48                _ready_queue_dev
 COMMON         0x00000000c0097d4c        0x4 signal.o
                0x00000000c0097d4c                _Signal
 COMMON         0x00000000c0097d50        0x4 ps2mouse.o
                0x00000000c0097d50                _flagRefreshMouseOver
 COMMON         0x00000000c0097d54       0x18 window.o
                0x00000000c0097d54                _save_client_rect_top
                0x00000000c0097d58                _fsStatus
                0x00000000c0097d5c                _xxxxsavemessage
                0x00000000c0097d60                _save_client_rect_left
                0x00000000c0097d64                _save_client_rect_height
                0x00000000c0097d68                _save_client_rect_width
 COMMON         0x00000000c0097d6c        0xc gws.o
                0x00000000c0097d6c                _gws_status
                0x00000000c0097d70                _gws_wm_PID
                0x00000000c0097d74                _gws_wm_status
 COMMON         0x00000000c0097d78       0x10 debug.o
                0x00000000c0097d78                _Mind
 COMMON         0x00000000c0097d88        0xc x86fault.o
                0x00000000c0097d88                _thread_failed_flag
                0x00000000c0097d8c                _demand_paging_flag
                0x00000000c0097d90                _fatal_error_flag
 COMMON         0x00000000c0097d94       0x34 services.o
                0x00000000c0097d94                _cwArg1
                0x00000000c0097d98                _cwArg2
                0x00000000c0097d9c                _cwArg11
                0x00000000c0097da0                _cwArg8
                0x00000000c0097da4                _cwArg3
                0x00000000c0097da8                _cwArg9
                0x00000000c0097dac                _cwArg10
                0x00000000c0097db0                _cwFlag
                0x00000000c0097db4                _cwArg12
                0x00000000c0097db8                _cwArg5
                0x00000000c0097dbc                _cwArg7
                0x00000000c0097dc0                _cwArg4
                0x00000000c0097dc4                _cwArg6
 *(.bss)
 .bss           0x00000000c0097dc8        0x0 head.o
                0x00000000c0097dc8                _bss_start
 .bss           0x00000000c0097dc8       0x28 x86main.o
 .bss           0x00000000c0097df0       0x28 io.o
 .bss           0x00000000c0097e18       0x28 hal.o
 .bss           0x00000000c0097e40       0x28 mk.o
 .bss           0x00000000c0097e68       0x28 execve.o
 .bss           0x00000000c0097e90       0x28 video.o
 .bss           0x00000000c0097eb8       0x28 screen.o
 .bss           0x00000000c0097ee0       0x28 runtime.o
 .bss           0x00000000c0097f08       0x28 portsx86.o
 .bss           0x00000000c0097f30       0x28 x86.o
 .bss           0x00000000c0097f58       0x28 stdio.o
 .bss           0x00000000c0097f80       0x28 stdlib.o
 .bss           0x00000000c0097fa8       0x2c string.o
 .bss           0x00000000c0097fd4       0x28 tty.o
 .bss           0x00000000c0097ffc       0x28 init.o
 .bss           0x00000000c0098024       0x28 logon.o
 .bss           0x00000000c009804c       0x28 logoff.o
 .bss           0x00000000c0098074       0x28 detect.o
 .bss           0x00000000c009809c       0x28 cpuamd.o
 .bss           0x00000000c00980c4       0x28 memory.o
 .bss           0x00000000c00980ec       0x28 pages.o
 .bss           0x00000000c0098114       0x28 mmpool.o
 .bss           0x00000000c009813c       0x28 apic.o
 .bss           0x00000000c0098164       0x28 pic.o
 .bss           0x00000000c009818c       0x28 timer.o
 .bss           0x00000000c00981b4       0x28 rtc.o
 .bss           0x00000000c00981dc       0x28 keyboard.o
 .bss           0x00000000c0098204       0x28 mouse.o
 .bss           0x00000000c009822c       0x28 ldisc.o
 .bss           0x00000000c0098254       0x28 hdd.o
 .bss           0x00000000c009827c       0x28 pci.o
 .bss           0x00000000c00982a4        0x0 usb.o
 .bss           0x00000000c00982a4       0x28 ahci.o
 .bss           0x00000000c00982cc       0x28 devmgr.o
 .bss           0x00000000c00982f4       0x28 spawn.o
 .bss           0x00000000c009831c       0x28 callout.o
 .bss           0x00000000c0098344        0x0 callfar.o
 .bss           0x00000000c0098344       0x28 process.o
 .bss           0x00000000c009836c       0x28 pheap.o
 .bss           0x00000000c0098394       0x28 thread.o
 .bss           0x00000000c00983bc       0x28 threadi.o
 .bss           0x00000000c00983e4       0x28 theap.o
 .bss           0x00000000c009840c       0x28 tstack.o
 .bss           0x00000000c0098434       0x28 create.o
 .bss           0x00000000c009845c       0x28 x86start.o
 .bss           0x00000000c0098484       0x28 x86cont.o
 .bss           0x00000000c00984ac       0x28 tasks.o
 .bss           0x00000000c00984d4       0x28 ts.o
 .bss           0x00000000c00984fc       0x28 queue.o
 .bss           0x00000000c0098524       0x28 sched.o
 .bss           0x00000000c009854c       0x28 schedi.o
 .bss           0x00000000c0098574       0x28 preempt.o
 .bss           0x00000000c009859c       0x28 priority.o
 .bss           0x00000000c00985c4       0x28 dispatch.o
 .bss           0x00000000c00985ec       0x28 sem.o
 .bss           0x00000000c0098614       0x28 modules.o
 .bss           0x00000000c009863c       0x28 nicintel.o
 .bss           0x00000000c0098664       0x28 network.o
 .bss           0x00000000c009868c       0x28 socket.o
 .bss           0x00000000c00986b4       0x28 sm.o
 .bss           0x00000000c00986dc       0x28 channel.o
 .bss           0x00000000c0098704       0x28 ipc.o
 .bss           0x00000000c009872c       0x28 read.o
 .bss           0x00000000c0098754       0x28 write.o
 .bss           0x00000000c009877c       0x28 cf.o
 .bss           0x00000000c00987a4       0x28 search.o
 .bss           0x00000000c00987cc       0x28 format.o
 .bss           0x00000000c00987f4       0x28 atainit.o
 .bss           0x00000000c009881c       0x2c atairq.o
 .bss           0x00000000c0098848       0x28 atapci.o
 .bss           0x00000000c0098870       0x28 atadma.o
 .bss           0x00000000c0098898       0x2c ata.o
                0x00000000c0098898                _dev_next_pid
 .bss           0x00000000c00988c4       0x28 diskvol.o
 .bss           0x00000000c00988ec       0x28 fs.o
 .bss           0x00000000c0098914       0x28 vfs.o
 .bss           0x00000000c009893c       0x29 cedge.o
 *fill*         0x00000000c0098965        0x3 
 .bss           0x00000000c0098968       0x28 ctype.o
 .bss           0x00000000c0098990       0x28 request.o
 .bss           0x00000000c00989b8       0x28 info.o
 .bss           0x00000000c00989e0       0x28 signal.o
 .bss           0x00000000c0098a08       0x28 system.o
 .bss           0x00000000c0098a30       0x28 bg.o
 .bss           0x00000000c0098a58       0x28 grid.o
 .bss           0x00000000c0098a80       0x28 sbar.o
 .bss           0x00000000c0098aa8       0x28 menubar.o
 .bss           0x00000000c0098ad0       0x28 menu.o
 .bss           0x00000000c0098af8       0x28 i8042.o
 .bss           0x00000000c0098b20       0x3b ps2mouse.o
                0x00000000c0098b20                _mouse_x
                0x00000000c0098b24                _mouse_y
                0x00000000c0098b28                _mouse_packet_data
                0x00000000c0098b29                _mouse_packet_x
                0x00000000c0098b2a                _mouse_packet_y
                0x00000000c0098b2b                _mouse_packet_scroll
 *fill*         0x00000000c0098b5b        0x1 
 .bss           0x00000000c0098b5c       0x28 ps2kbd.o
 .bss           0x00000000c0098b84       0x28 button.o
 .bss           0x00000000c0098bac       0x28 char.o
 .bss           0x00000000c0098bd4       0x28 pixel.o
 .bss           0x00000000c0098bfc       0x28 line.o
 .bss           0x00000000c0098c24       0x28 rect.o
 .bss           0x00000000c0098c4c       0x28 dtext.o
 .bss           0x00000000c0098c74       0x28 font.o
 .bss           0x00000000c0098c9c       0x28 vsync.o
 .bss           0x00000000c0098cc4       0x2c bmp.o
 .bss           0x00000000c0098cf0       0x28 createw.o
 .bss           0x00000000c0098d18       0x28 window.o
 .bss           0x00000000c0098d40       0x28 desktop.o
 .bss           0x00000000c0098d68       0x28 room.o
 .bss           0x00000000c0098d90       0x28 usession.o
 .bss           0x00000000c0098db8       0x28 gws.o
 .bss           0x00000000c0098de0       0x28 object.o
 .bss           0x00000000c0098e08       0x28 userenv.o
 .bss           0x00000000c0098e30       0x28 proc.o
 .bss           0x00000000c0098e58       0x28 syscall.o
 .bss           0x00000000c0098e80       0x28 install.o
 .bss           0x00000000c0098ea8       0x28 serial.o
 .bss           0x00000000c0098ed0       0x28 debug.o
 .bss           0x00000000c0098ef8       0x28 abort.o
 .bss           0x00000000c0098f20       0x28 x86fault.o
 .bss           0x00000000c0098f48       0x28 services.o
                0x00000000c0098f70                _bss_end = .
                0x00000000c0099000                . = ALIGN (0x1000)
 *fill*         0x00000000c0098f70       0x90 
                0x00000000c0099000                _kernel_end = .
LOAD head.o
LOAD x86main.o
LOAD io.o
LOAD hal.o
LOAD mk.o
LOAD execve.o
LOAD video.o
LOAD screen.o
LOAD runtime.o
LOAD portsx86.o
LOAD x86.o
LOAD stdio.o
LOAD stdlib.o
LOAD string.o
LOAD tty.o
LOAD init.o
LOAD logon.o
LOAD logoff.o
LOAD detect.o
LOAD cpuamd.o
LOAD memory.o
LOAD pages.o
LOAD mmpool.o
LOAD apic.o
LOAD pic.o
LOAD timer.o
LOAD rtc.o
LOAD keyboard.o
LOAD mouse.o
LOAD ldisc.o
LOAD hdd.o
LOAD pci.o
LOAD usb.o
LOAD ahci.o
LOAD devmgr.o
LOAD spawn.o
LOAD callout.o
LOAD callfar.o
LOAD process.o
LOAD pheap.o
LOAD thread.o
LOAD threadi.o
LOAD theap.o
LOAD tstack.o
LOAD create.o
LOAD x86start.o
LOAD x86cont.o
LOAD tasks.o
LOAD ts.o
LOAD queue.o
LOAD sched.o
LOAD schedi.o
LOAD preempt.o
LOAD priority.o
LOAD dispatch.o
LOAD sem.o
LOAD modules.o
LOAD nicintel.o
LOAD network.o
LOAD socket.o
LOAD sm.o
LOAD channel.o
LOAD ipc.o
LOAD read.o
LOAD write.o
LOAD cf.o
LOAD search.o
LOAD format.o
LOAD atainit.o
LOAD atairq.o
LOAD atapci.o
LOAD atadma.o
LOAD ata.o
LOAD diskvol.o
LOAD fs.o
LOAD vfs.o
LOAD cedge.o
LOAD ctype.o
LOAD request.o
LOAD info.o
LOAD signal.o
LOAD system.o
LOAD bg.o
LOAD grid.o
LOAD sbar.o
LOAD menubar.o
LOAD menu.o
LOAD i8042.o
LOAD ps2mouse.o
LOAD ps2kbd.o
LOAD button.o
LOAD char.o
LOAD pixel.o
LOAD line.o
LOAD rect.o
LOAD dtext.o
LOAD font.o
LOAD vsync.o
LOAD bmp.o
LOAD createw.o
LOAD window.o
LOAD desktop.o
LOAD room.o
LOAD usession.o
LOAD gws.o
LOAD object.o
LOAD userenv.o
LOAD proc.o
LOAD syscall.o
LOAD install.o
LOAD serial.o
LOAD debug.o
LOAD abort.o
LOAD x86fault.o
LOAD services.o
OUTPUT(KERNEL.BIN elf32-i386)

.comment        0x0000000000000000       0x1a
 .comment       0x0000000000000000       0x1a x86main.o
                                         0x1b (size before relaxing)
 .comment       0x000000000000001a       0x1b io.o
 .comment       0x000000000000001a       0x1b hal.o
 .comment       0x000000000000001a       0x1b mk.o
 .comment       0x000000000000001a       0x1b execve.o
 .comment       0x000000000000001a       0x1b video.o
 .comment       0x000000000000001a       0x1b screen.o
 .comment       0x000000000000001a       0x1b runtime.o
 .comment       0x000000000000001a       0x1b portsx86.o
 .comment       0x000000000000001a       0x1b x86.o
 .comment       0x000000000000001a       0x1b stdio.o
 .comment       0x000000000000001a       0x1b stdlib.o
 .comment       0x000000000000001a       0x1b string.o
 .comment       0x000000000000001a       0x1b tty.o
 .comment       0x000000000000001a       0x1b init.o
 .comment       0x000000000000001a       0x1b logon.o
 .comment       0x000000000000001a       0x1b logoff.o
 .comment       0x000000000000001a       0x1b detect.o
 .comment       0x000000000000001a       0x1b cpuamd.o
 .comment       0x000000000000001a       0x1b memory.o
 .comment       0x000000000000001a       0x1b pages.o
 .comment       0x000000000000001a       0x1b mmpool.o
 .comment       0x000000000000001a       0x1b apic.o
 .comment       0x000000000000001a       0x1b pic.o
 .comment       0x000000000000001a       0x1b timer.o
 .comment       0x000000000000001a       0x1b rtc.o
 .comment       0x000000000000001a       0x1b keyboard.o
 .comment       0x000000000000001a       0x1b mouse.o
 .comment       0x000000000000001a       0x1b ldisc.o
 .comment       0x000000000000001a       0x1b hdd.o
 .comment       0x000000000000001a       0x1b pci.o
 .comment       0x000000000000001a       0x1b usb.o
 .comment       0x000000000000001a       0x1b ahci.o
 .comment       0x000000000000001a       0x1b devmgr.o
 .comment       0x000000000000001a       0x1b spawn.o
 .comment       0x000000000000001a       0x1b callout.o
 .comment       0x000000000000001a       0x1b callfar.o
 .comment       0x000000000000001a       0x1b process.o
 .comment       0x000000000000001a       0x1b pheap.o
 .comment       0x000000000000001a       0x1b thread.o
 .comment       0x000000000000001a       0x1b threadi.o
 .comment       0x000000000000001a       0x1b theap.o
 .comment       0x000000000000001a       0x1b tstack.o
 .comment       0x000000000000001a       0x1b create.o
 .comment       0x000000000000001a       0x1b x86start.o
 .comment       0x000000000000001a       0x1b x86cont.o
 .comment       0x000000000000001a       0x1b tasks.o
 .comment       0x000000000000001a       0x1b ts.o
 .comment       0x000000000000001a       0x1b queue.o
 .comment       0x000000000000001a       0x1b sched.o
 .comment       0x000000000000001a       0x1b schedi.o
 .comment       0x000000000000001a       0x1b preempt.o
 .comment       0x000000000000001a       0x1b priority.o
 .comment       0x000000000000001a       0x1b dispatch.o
 .comment       0x000000000000001a       0x1b sem.o
 .comment       0x000000000000001a       0x1b modules.o
 .comment       0x000000000000001a       0x1b nicintel.o
 .comment       0x000000000000001a       0x1b network.o
 .comment       0x000000000000001a       0x1b socket.o
 .comment       0x000000000000001a       0x1b sm.o
 .comment       0x000000000000001a       0x1b channel.o
 .comment       0x000000000000001a       0x1b ipc.o
 .comment       0x000000000000001a       0x1b read.o
 .comment       0x000000000000001a       0x1b write.o
 .comment       0x000000000000001a       0x1b cf.o
 .comment       0x000000000000001a       0x1b search.o
 .comment       0x000000000000001a       0x1b format.o
 .comment       0x000000000000001a       0x1b atainit.o
 .comment       0x000000000000001a       0x1b atairq.o
 .comment       0x000000000000001a       0x1b atapci.o
 .comment       0x000000000000001a       0x1b atadma.o
 .comment       0x000000000000001a       0x1b ata.o
 .comment       0x000000000000001a       0x1b diskvol.o
 .comment       0x000000000000001a       0x1b fs.o
 .comment       0x000000000000001a       0x1b vfs.o
 .comment       0x000000000000001a       0x1b cedge.o
 .comment       0x000000000000001a       0x1b ctype.o
 .comment       0x000000000000001a       0x1b request.o
 .comment       0x000000000000001a       0x1b info.o
 .comment       0x000000000000001a       0x1b signal.o
 .comment       0x000000000000001a       0x1b system.o
 .comment       0x000000000000001a       0x1b bg.o
 .comment       0x000000000000001a       0x1b grid.o
 .comment       0x000000000000001a       0x1b sbar.o
 .comment       0x000000000000001a       0x1b menubar.o
 .comment       0x000000000000001a       0x1b menu.o
 .comment       0x000000000000001a       0x1b i8042.o
 .comment       0x000000000000001a       0x1b ps2mouse.o
 .comment       0x000000000000001a       0x1b ps2kbd.o
 .comment       0x000000000000001a       0x1b button.o
 .comment       0x000000000000001a       0x1b char.o
 .comment       0x000000000000001a       0x1b pixel.o
 .comment       0x000000000000001a       0x1b line.o
 .comment       0x000000000000001a       0x1b rect.o
 .comment       0x000000000000001a       0x1b dtext.o
 .comment       0x000000000000001a       0x1b font.o
 .comment       0x000000000000001a       0x1b vsync.o
 .comment       0x000000000000001a       0x1b bmp.o
 .comment       0x000000000000001a       0x1b createw.o
 .comment       0x000000000000001a       0x1b window.o
 .comment       0x000000000000001a       0x1b desktop.o
 .comment       0x000000000000001a       0x1b room.o
 .comment       0x000000000000001a       0x1b usession.o
 .comment       0x000000000000001a       0x1b gws.o
 .comment       0x000000000000001a       0x1b object.o
 .comment       0x000000000000001a       0x1b userenv.o
 .comment       0x000000000000001a       0x1b proc.o
 .comment       0x000000000000001a       0x1b syscall.o
 .comment       0x000000000000001a       0x1b install.o
 .comment       0x000000000000001a       0x1b serial.o
 .comment       0x000000000000001a       0x1b debug.o
 .comment       0x000000000000001a       0x1b abort.o
 .comment       0x000000000000001a       0x1b x86fault.o
 .comment       0x000000000000001a       0x1b services.o

.note.GNU-stack
                0x0000000000000000        0x0
 .note.GNU-stack
                0x0000000000000000        0x0 x86main.o
 .note.GNU-stack
                0x0000000000000000        0x0 io.o
 .note.GNU-stack
                0x0000000000000000        0x0 hal.o
 .note.GNU-stack
                0x0000000000000000        0x0 mk.o
 .note.GNU-stack
                0x0000000000000000        0x0 execve.o
 .note.GNU-stack
                0x0000000000000000        0x0 video.o
 .note.GNU-stack
                0x0000000000000000        0x0 screen.o
 .note.GNU-stack
                0x0000000000000000        0x0 runtime.o
 .note.GNU-stack
                0x0000000000000000        0x0 portsx86.o
 .note.GNU-stack
                0x0000000000000000        0x0 x86.o
 .note.GNU-stack
                0x0000000000000000        0x0 stdio.o
 .note.GNU-stack
                0x0000000000000000        0x0 stdlib.o
 .note.GNU-stack
                0x0000000000000000        0x0 string.o
 .note.GNU-stack
                0x0000000000000000        0x0 tty.o
 .note.GNU-stack
                0x0000000000000000        0x0 init.o
 .note.GNU-stack
                0x0000000000000000        0x0 logon.o
 .note.GNU-stack
                0x0000000000000000        0x0 logoff.o
 .note.GNU-stack
                0x0000000000000000        0x0 detect.o
 .note.GNU-stack
                0x0000000000000000        0x0 cpuamd.o
 .note.GNU-stack
                0x0000000000000000        0x0 memory.o
 .note.GNU-stack
                0x0000000000000000        0x0 pages.o
 .note.GNU-stack
                0x0000000000000000        0x0 mmpool.o
 .note.GNU-stack
                0x0000000000000000        0x0 apic.o
 .note.GNU-stack
                0x0000000000000000        0x0 pic.o
 .note.GNU-stack
                0x0000000000000000        0x0 timer.o
 .note.GNU-stack
                0x0000000000000000        0x0 rtc.o
 .note.GNU-stack
                0x0000000000000000        0x0 keyboard.o
 .note.GNU-stack
                0x0000000000000000        0x0 mouse.o
 .note.GNU-stack
                0x0000000000000000        0x0 ldisc.o
 .note.GNU-stack
                0x0000000000000000        0x0 hdd.o
 .note.GNU-stack
                0x0000000000000000        0x0 pci.o
 .note.GNU-stack
                0x0000000000000000        0x0 usb.o
 .note.GNU-stack
                0x0000000000000000        0x0 ahci.o
 .note.GNU-stack
                0x0000000000000000        0x0 devmgr.o
 .note.GNU-stack
                0x0000000000000000        0x0 spawn.o
 .note.GNU-stack
                0x0000000000000000        0x0 callout.o
 .note.GNU-stack
                0x0000000000000000        0x0 callfar.o
 .note.GNU-stack
                0x0000000000000000        0x0 process.o
 .note.GNU-stack
                0x0000000000000000        0x0 pheap.o
 .note.GNU-stack
                0x0000000000000000        0x0 thread.o
 .note.GNU-stack
                0x0000000000000000        0x0 threadi.o
 .note.GNU-stack
                0x0000000000000000        0x0 theap.o
 .note.GNU-stack
                0x0000000000000000        0x0 tstack.o
 .note.GNU-stack
                0x0000000000000000        0x0 create.o
 .note.GNU-stack
                0x0000000000000000        0x0 x86start.o
 .note.GNU-stack
                0x0000000000000000        0x0 x86cont.o
 .note.GNU-stack
                0x0000000000000000        0x0 tasks.o
 .note.GNU-stack
                0x0000000000000000        0x0 ts.o
 .note.GNU-stack
                0x0000000000000000        0x0 queue.o
 .note.GNU-stack
                0x0000000000000000        0x0 sched.o
 .note.GNU-stack
                0x0000000000000000        0x0 schedi.o
 .note.GNU-stack
                0x0000000000000000        0x0 preempt.o
 .note.GNU-stack
                0x0000000000000000        0x0 priority.o
 .note.GNU-stack
                0x0000000000000000        0x0 dispatch.o
 .note.GNU-stack
                0x0000000000000000        0x0 sem.o
 .note.GNU-stack
                0x0000000000000000        0x0 modules.o
 .note.GNU-stack
                0x0000000000000000        0x0 nicintel.o
 .note.GNU-stack
                0x0000000000000000        0x0 network.o
 .note.GNU-stack
                0x0000000000000000        0x0 socket.o
 .note.GNU-stack
                0x0000000000000000        0x0 sm.o
 .note.GNU-stack
                0x0000000000000000        0x0 channel.o
 .note.GNU-stack
                0x0000000000000000        0x0 ipc.o
 .note.GNU-stack
                0x0000000000000000        0x0 read.o
 .note.GNU-stack
                0x0000000000000000        0x0 write.o
 .note.GNU-stack
                0x0000000000000000        0x0 cf.o
 .note.GNU-stack
                0x0000000000000000        0x0 search.o
 .note.GNU-stack
                0x0000000000000000        0x0 format.o
 .note.GNU-stack
                0x0000000000000000        0x0 atainit.o
 .note.GNU-stack
                0x0000000000000000        0x0 atairq.o
 .note.GNU-stack
                0x0000000000000000        0x0 atapci.o
 .note.GNU-stack
                0x0000000000000000        0x0 atadma.o
 .note.GNU-stack
                0x0000000000000000        0x0 ata.o
 .note.GNU-stack
                0x0000000000000000        0x0 diskvol.o
 .note.GNU-stack
                0x0000000000000000        0x0 fs.o
 .note.GNU-stack
                0x0000000000000000        0x0 vfs.o
 .note.GNU-stack
                0x0000000000000000        0x0 cedge.o
 .note.GNU-stack
                0x0000000000000000        0x0 ctype.o
 .note.GNU-stack
                0x0000000000000000        0x0 request.o
 .note.GNU-stack
                0x0000000000000000        0x0 info.o
 .note.GNU-stack
                0x0000000000000000        0x0 signal.o
 .note.GNU-stack
                0x0000000000000000        0x0 system.o
 .note.GNU-stack
                0x0000000000000000        0x0 bg.o
 .note.GNU-stack
                0x0000000000000000        0x0 grid.o
 .note.GNU-stack
                0x0000000000000000        0x0 sbar.o
 .note.GNU-stack
                0x0000000000000000        0x0 menubar.o
 .note.GNU-stack
                0x0000000000000000        0x0 menu.o
 .note.GNU-stack
                0x0000000000000000        0x0 i8042.o
 .note.GNU-stack
                0x0000000000000000        0x0 ps2mouse.o
 .note.GNU-stack
                0x0000000000000000        0x0 ps2kbd.o
 .note.GNU-stack
                0x0000000000000000        0x0 button.o
 .note.GNU-stack
                0x0000000000000000        0x0 char.o
 .note.GNU-stack
                0x0000000000000000        0x0 pixel.o
 .note.GNU-stack
                0x0000000000000000        0x0 line.o
 .note.GNU-stack
                0x0000000000000000        0x0 rect.o
 .note.GNU-stack
                0x0000000000000000        0x0 dtext.o
 .note.GNU-stack
                0x0000000000000000        0x0 font.o
 .note.GNU-stack
                0x0000000000000000        0x0 vsync.o
 .note.GNU-stack
                0x0000000000000000        0x0 bmp.o
 .note.GNU-stack
                0x0000000000000000        0x0 createw.o
 .note.GNU-stack
                0x0000000000000000        0x0 window.o
 .note.GNU-stack
                0x0000000000000000        0x0 desktop.o
 .note.GNU-stack
                0x0000000000000000        0x0 room.o
 .note.GNU-stack
                0x0000000000000000        0x0 usession.o
 .note.GNU-stack
                0x0000000000000000        0x0 gws.o
 .note.GNU-stack
                0x0000000000000000        0x0 object.o
 .note.GNU-stack
                0x0000000000000000        0x0 userenv.o
 .note.GNU-stack
                0x0000000000000000        0x0 proc.o
 .note.GNU-stack
                0x0000000000000000        0x0 syscall.o
 .note.GNU-stack
                0x0000000000000000        0x0 install.o
 .note.GNU-stack
                0x0000000000000000        0x0 serial.o
 .note.GNU-stack
                0x0000000000000000        0x0 debug.o
 .note.GNU-stack
                0x0000000000000000        0x0 abort.o
 .note.GNU-stack
                0x0000000000000000        0x0 x86fault.o
 .note.GNU-stack
                0x0000000000000000        0x0 services.o
